(dp0
S'season'
p1
I1
sS'episode'
p2
I20
sS'script'
p3
(lp4
(dp5
S'text'
p6
VI get nervous around laws that fundamentally assume that Americans can't be trusted. We'd better have mandatory sentencing, because judges can't be trusted to disperse even-handed justice.
p7
sS'bow_score'
p8
S'neutral'
p9
sS'character'
p10
VBARTLET
p11
sS'maxent_score'
p12
S'negative'
p13
sa(dp14
g6
VWe better have term limits, 'cause voters can't be trusted to recognize corruption.
p15
sg8
g13
sg10
VBARTLET
p16
sg12
g9
sa(dp17
g6
VOh, and by the way... I say, by the way. When the playing field is leveled and the process is fair and open, it turns out we have term limits. They're called elections.
p18
sg8
S'positive'
p19
sg10
VBARTLET
p20
sg12
g9
sa(dp21
g6
VThe President ate his Wheaties this morning.
p22
sg8
g9
sg10
VCHRIS
p23
sg12
g9
sa(dp24
g6
VAs a matter of fact, the President had a bowl of oatmeal this morning. He said it was something he's always wanted to try. [walks around the room and brushes by Danny] Folks, listen up. In a moment or two, the President is going to say something that's sure to get you all shouting my name at once. There'll be a full briefing tonight at the White House.
p25
sg8
g19
sg10
VC.J.
p26
sg12
g9
sa(dp27
g6
VC.J., look....
p28
sg8
g9
sg10
VDANNY
p29
sg12
g19
sa(dp30
g6
VYeah. You're not going to want to miss this.
p31
sg8
g9
sg10
VC.J.
p32
sg12
g9
sa(dp33
g6
VC.J., what is this? What's going on in there?
p34
sg8
g9
sg10
VREPORTER
p35
sg12
g9
sa(dp36
g6
VThe President's going to throw his cap over the wall.
p37
sg8
g9
sg10
VC.J.
p38
sg12
g9
sa(dp39
g6
VWhat does that mean?
p40
sg8
g9
sg10
VREPORTER
p41
sg12
g13
sa(dp42
g6
VYou're about to find out.
p43
sg8
g9
sg10
VC.J.
p44
sg12
g9
sa(dp45
g6
VMy father was very fond of the analogy of the Irish lads whose journey was blocked by a brick wall, seemingly too high to scale. Throwing their caps over the wall, the lads had no choice but to follow. How many times in the great history of our country have we come to a wall seemingly too high to scale only to throw our caps to the other side?
p46
sg8
g19
sg10
VBARTLET
p47
sg12
g9
sa(dp48
g6
VThis was given to me by a constituent who read in Time Magazine that I like Cognac. The problem is, that this is Brandy and not Cognac. Anyone know the difference?
p49
sg8
g13
sg10
VSENATOR
p50
sg12
g9
sa(dp51
g6
VSenator?
p52
sg8
g9
sg10
VONORATO
p53
sg12
g9
sa(dp54
g6
VThe Cognac is supposed to come from the...
p55
sg8
g9
sg10
VSECRETARY
p56
sg12
g9
sa(dp57
g6
V...The Cognac region of France. That's right.
p58
sg8
g9
sg10
VSENATOR
p59
sg12
g9
sa(dp60
g6
VSenator?
p61
sg8
g9
sg10
VONORATO
p62
sg12
g9
sa(dp63
g6
VSteve, sit down with us over here, would you? The man's not going to say anything we're interested in.
p64
sg8
g19
sg10
VSENATOR
p65
sg12
g9
sa(dp66
g6
VI think he is.
p67
sg8
g9
sg10
VONORATO
p68
sg12
g9
sa(dp69
g6
VWhat are you talking about?
p70
sg8
g9
sg10
VSENATOR
p71
sg12
g9
sa(dp72
g6
VListen.
p73
sg8
g9
sg10
VONORATO
p74
sg12
g9
sa(dp75
g6
V[on T.V.] Tomorrow... tomorrow morning, we're going to begin to change the way elections are supervised in this country.
p76
sg8
g9
sg10
VBARTLET
p77
sg12
g9
sa(dp78
g6
VHe's going to name two finance reformers to the F.E.C.
p79
sg8
g9
sg10
VONORATO
p80
sg12
g9
sa(dp81
g6
VWhat the hell are you talking about?
p82
sg8
g13
sg10
VSENATOR
p83
sg12
g9
sa(dp84
g6
VListen.
p85
sg8
g9
sg10
VONORATO
p86
sg12
g9
sa(dp87
g6
VYou said it wasn't going to happen.
p88
sg8
g9
sg10
VSENATOR
p89
sg12
g13
sa(dp90
g6
VI was wrong.
p91
sg8
g13
sg10
VONORATO
p92
sg12
g13
sa(dp93
g6
VYou were wrong?
p94
sg8
g13
sg10
VSENATOR
p95
sg12
g13
sa(dp96
g6
VHe's going to name... damn it! Somebody....
p97
sg8
g13
sg10
VONORATO
p98
sg12
g9
sa(dp99
g6
VJohn Bacon...
p100
sg8
g9
sg10
VSECRETARY
p101
sg12
g9
sa(dp102
g6
VJohn Bacon and Patty Calhoun.
p103
sg8
g9
sg10
VONORATO
p104
sg12
g9
sa(dp105
g6
VYou told him, they take on campaign finance reform, I roll out a legislative agenda that'll make his boss sit down and cry.
p106
sg8
g9
sg10
VSENATOR
p107
sg12
g19
sa(dp108
g6
VI made it very clear.
p109
sg8
g9
sg10
VONORATO
p110
sg12
g13
sa(dp111
g6
V[on T.V.] I am proud to nominate John Branford Bacon and Patricia Calhoun to the Federal Election Commission.
p112
sg8
g19
sg10
VBARTLET
p113
sg12
g9
sa(dp114
g6
VGet him on the phone.
p115
sg8
g9
sg10
VSENATOR
p116
sg12
g9
sa(dp117
g6
VWho?
p118
sg8
g9
sg10
VSECRETARY
p119
sg12
g9
sa(dp120
g6
VJosh Lyman. Get him on the phone. I'm going to reach down his throat and take out his lungs with an ice-cream scoop.
p121
sg8
g9
sg10
VSENATOR
p122
sg12
g9
sa(dp123
g6
VYou're about to get a call.
p124
sg8
g9
sg10
VSAM
p125
sg12
g9
sa(dp126
g6
VYeah.
p127
sg8
g9
sg10
VJOSH
p128
sg12
g9
sa(dp129
g6
VBig call.
p130
sg8
g9
sg10
VSAM
p131
sg12
g9
sa(dp132
g6
VYeah.
p133
sg8
g9
sg10
VJOSH
p134
sg12
g9
sa(dp135
g6
VPowerful guy.
p136
sg8
g9
sg10
VSAM
p137
sg12
g9
sa(dp138
g6
VYeah.
p139
sg8
g9
sg10
VJOSH
p140
sg12
g9
sa(dp141
g6
VI'm just saying you're probably rocked back from your meeting last week.
p142
sg8
g9
sg10
VSAM
p143
sg12
g9
sa(dp144
g6
VA little.
p145
sg8
g9
sg10
VJOSH
p146
sg12
g13
sa(dp147
g6
VThey threatened you with a legislative agenda.
p148
sg8
g9
sg10
VSAM
p149
sg12
g19
sa(dp150
g6
VYeah.
p151
sg8
g9
sg10
VJOSH
p152
sg12
g9
sa(dp153
g6
VThey made you feel powerless and you're a little off your game.
p154
sg8
g13
sg10
VSAM
p155
sg12
g9
sa(dp156
g6
VYeah.
p157
sg8
g9
sg10
VJOSH
p158
sg12
g9
sa(dp159
g6
VA little gun shy.
p160
sg8
g13
sg10
VSAM
p161
sg12
g13
sa(dp162
g6
VLeave him alone.
p163
sg8
g9
sg10
VTOBY
p164
sg12
g9
sa(dp165
g6
VI'm bucking him up.
p166
sg8
g9
sg10
VSAM
p167
sg12
g13
sa(dp168
g6
VLeave him alone.
p169
sg8
g9
sg10
VTOBY
p170
sg12
g9
sa(dp171
g6
VYou asked me to buck him up.
p172
sg8
g9
sg10
VSAM
p173
sg12
g13
sa(dp174
g6
VNow, I'm telling you to leave him alone.
p175
sg8
g13
sg10
VTOBY
p176
sg12
g13
sa(dp177
g6
VGuys, I'm trying to watch this speech.
p178
sg8
g19
sg10
VJOSH
p179
sg12
g9
sa(dp180
g6
VJosh.
p181
sg8
g9
sg10
VDONNA
p182
sg12
g9
sa(dp183
g6
VThe call?
p184
sg8
g9
sg10
VJOSH
p185
sg12
g9
sa(dp186
g6
VOn the cell. [hands him the cell phone]
p187
sg8
g9
sg10
VDONNA
p188
sg12
g9
sa(dp189
g6
VJosh, if you need us, we're standing right here.
p190
sg8
g19
sg10
VTOBY
p191
sg12
g9
sa(dp192
g6
V[into phone] Hi, Senator. Why don't you take your legislative agenda and shove it up your ass.
p193
sg8
g13
sg10
VJOSH
p194
sg12
g9
sa(dp195
g6
VTurns out I was fine.
p196
sg8
g9
sg10
VJOSH
p197
sg12
g13
sa(dp198
g6
VC.J.? Is the White House concerned that the FEC will become a partisan political football?
p199
sg8
g9
sg10
VREPORTER
p200
sg12
g9
sa(dp201
g6
VI'd like to emphasize again that the President has nominated one Democrat and one Republican, which he was, certainly, under no legal obligation to do.
p202
sg8
g19
sg10
VC.J.
p203
sg12
g9
sa(dp204
g6
VJesse.
p205
sg8
g9
sg10
VC.J.
p206
sg12
g9
sa(dp207
g6
VIn the past, the F.E.C. Commissioners were chosen...
p208
sg8
g19
sg10
VJESSE
p209
sg12
g9
sa(dp210
g6
VIn the past, the F.E.C. Commissioners has been chosen by the President, signing off on whomever the Congressional Leadership pointed to.
p211
sg8
g19
sg10
VC.J.
p212
sg12
g9
sa(dp213
g6
VWas the Congressional Leadership aware in advance that the President would be slipping this announcement in his speech tonight?
p214
sg8
g19
sg10
VSTEVE
p215
sg12
g9
sa(dp216
g6
VI think it's possible we forgot to tell them.
p217
sg8
g9
sg10
VC.J.
p218
sg12
g9
sa(dp219
g6
VC.J., is the President declaring war on Congress?
p220
sg8
g13
sg10
VREPORTER
p221
sg12
g9
sa(dp222
g6
VSay it's a police action.
p223
sg8
g19
sg10
VJOSH
p224
sg12
g19
sa(dp225
g6
V[on T.V.] The President isn't empowered to declare war. The President is empowered. In fact, he's obligated to nominate Federal Agency Directors. I call it more of a police action.
p226
sg8
g19
sg10
VC.J.
p227
sg12
g9
sa(dp228
g6
V[chuckles] How 'bout that?
p229
sg8
g9
sg10
VJOSH
p230
sg12
g9
sa(dp231
g6
V[enters] Toby wants you.
p232
sg8
g9
sg10
VDONNA
p233
sg12
g9
sa(dp234
g6
VOn the phone?
p235
sg8
g9
sg10
VJOSH
p236
sg12
g9
sa(dp237
g6
VIn his office.
p238
sg8
g9
sg10
VDONNA
p239
sg12
g9
sa(dp240
g6
VDo you know why?
p241
sg8
g9
sg10
VJOSH
p242
sg12
g9
sa(dp243
g6
VPolling.
p244
sg8
g9
sg10
VDONNA
p245
sg12
g9
sa(dp246
g6
VHe's bringing in Al Kiefer?
p247
sg8
g9
sg10
VJOSH
p248
sg12
g19
sa(dp249
g6
VLet him tell you.
p250
sg8
g9
sg10
VDONNA
p251
sg12
g9
sa(dp252
g6
VWhy can't you tell me?
p253
sg8
g9
sg10
VJOSH
p254
sg12
g13
sa(dp255
g6
V'Cause you're going to his office right now. And I've got 37 different things to...
p256
sg8
g9
sg10
VDONNA
p257
sg12
g9
sa(dp258
g6
V[huffily] Fine.
p259
sg8
g9
sg10
VJOSH
p260
sg12
g9
sa(dp261
g6
VJosh.
p262
sg8
g9
sg10
VDONNA
p263
sg12
g9
sa(dp264
g6
VYeah.
p265
sg8
g9
sg10
VJOSH
p266
sg12
g9
sa(dp267
g6
VYes, he's bringing in Al Keifer.
p268
sg8
g9
sg10
VDONNA
p269
sg12
g19
sa(dp270
g6
VIt's a big polling week, Donna. I figured he was bringing in Kiefer.
p271
sg8
g9
sg10
VJOSH
p272
sg12
g9
sa(dp273
g6
VOkay.
p274
sg8
g9
sg10
VDONNA
p275
sg12
g9
sa(dp276
g6
VThat's what you were afraid to tell me?
p277
sg8
g13
sg10
VJOSH
p278
sg12
g9
sa(dp279
g6
VI wasn't afraid.
p280
sg8
g13
sg10
VDONNA
p281
sg12
g13
sa(dp282
g6
VOkay.
p283
sg8
g9
sg10
VJOSH
p284
sg12
g9
sa(dp285
g6
VThe thing is, and it's going to be interesting to see how you react to this, but Kiefer wants to bring in a California expert.
p286
sg8
g19
sg10
VDONNA
p287
sg12
g9
sa(dp288
g6
VThat's a good idea, cause... wait... [pause, looks]
p289
sg8
g9
sg10
VJOSH
p290
sg12
g9
sa(dp291
g6
VYeah.
p292
sg8
g9
sg10
VDONNA
p293
sg12
g9
sa(dp294
g6
VJoey Lucas.
p295
sg8
g9
sg10
VJOSH
p296
sg12
g9
sa(dp297
g6
VShe's coming out with Kiefer tomorrow.
p298
sg8
g9
sg10
VDONNA
p299
sg12
g9
sa(dp300
g6
VOkay... okay....
p301
sg8
g9
sg10
VJOSH
p302
sg12
g9
sa(dp303
g6
VBy the way, that's what I was afraid to tell you.
p304
sg8
g13
sg10
VDONNA
p305
sg12
g9
sa(dp306
g6
VYou... you shouldn't have been. You know why?
p307
sg8
g9
sg10
VJOSH
p308
sg12
g13
sa(dp309
g6
VIt's no big deal.
p310
sg8
g19
sg10
VDONNA
p311
sg12
g9
sa(dp312
g6
VIt's no big deal. And I'll tell you what else.
p313
sg8
g19
sg10
VJOSH
p314
sg12
g9
sa(dp315
g6
VYou're a pro.
p316
sg8
g9
sg10
VDONNA
p317
sg12
g9
sa(dp318
g6
VI... I am a pro. But that's not what I was going to say.
p319
sg8
g9
sg10
VJOSH
p320
sg12
g9
sa(dp321
g6
VWhat were you going to say?
p322
sg8
g9
sg10
VDONNA
p323
sg12
g9
sa(dp324
g6
VThat's what I was going to say.
p325
sg8
g9
sg10
VJOSH
p326
sg12
g9
sa(dp327
g6
VYeah.
p328
sg8
g9
sg10
VDONNA
p329
sg12
g9
sa(dp330
g6
VBut, both those things are true. I'm a pro and what was the other one?
p331
sg8
g19
sg10
VJOSH
p332
sg12
g9
sa(dp333
g6
VIt's no big deal.
p334
sg8
g19
sg10
VDONNA
p335
sg12
g9
sa(dp336
g6
VThat's right.
p337
sg8
g9
sg10
VJOSH
p338
sg12
g9
sa(dp339
g6
VRambo!
p340
sg8
g9
sg10
VBONNIE
p341
sg12
g9
sa(dp342
g6
VYou talking to me?
p343
sg8
g9
sg10
VJOSH
p344
sg12
g13
sa(dp345
g6
VNice phone call.
p346
sg8
g9
sg10
VBONNIE
p347
sg12
g9
sa(dp348
g6
VThat's how we do things in New England, my friends. [raises is arms in victory]
p349
sg8
g19
sg10
VJOSH
p350
sg12
g9
sa(dp351
g6
VIn Indiana, we're not allowed to talk like that.
p352
sg8
g19
sg10
VBONNIE
p353
sg12
g9
sa(dp354
g6
VIn New Jersey, we encourage it.
p355
sg8
g19
sg10
VGINGER
p356
sg12
g9
sa(dp357
g6
VWhere's Toby?
p358
sg8
g9
sg10
VJOSH
p359
sg12
g9
sa(dp360
g6
VThey're in Sam's office.
p361
sg8
g9
sg10
VBONNIE
p362
sg12
g9
sa(dp363
g6
VHey.
p364
sg8
g9
sg10
VJOSH
p365
sg12
g9
sa(dp366
g6
V[to Josh] Hang on. [to Sam] That's good... good... Okay... Sam?
p367
sg8
g19
sg10
VTOBY
p368
sg12
g19
sa(dp369
g6
VYeah.
p370
sg8
g9
sg10
VSAM
p371
sg12
g9
sa(dp372
g6
VYou're going to come to a verb soon, right?
p373
sg8
g9
sg10
VTOBY
p374
sg12
g9
sa(dp375
g6
VOkay. You know what this is called?
p376
sg8
g9
sg10
VSAM
p377
sg12
g9
sa(dp378
g6
VBad writing?
p379
sg8
g9
sg10
VTOBY
p380
sg12
g13
sa(dp381
g6
VImagery.
p382
sg8
g9
sg10
VSAM
p383
sg12
g9
sa(dp384
g6
VWell, you say potato... Josh, it's a big polling week. I'm bringing in Al Kiefer.
p385
sg8
g9
sg10
VTOBY
p386
sg12
g9
sa(dp387
g6
VYou've turned 180 degrees on Kiefer. You know that?
p388
sg8
g9
sg10
VJOSH
p389
sg12
g9
sa(dp390
g6
VI haven't turned on Kiefer at all. I don't want him advising the President. I want him bringing us numbers.
p391
sg8
g19
sg10
VTOBY
p392
sg12
g9
sa(dp393
g6
VAdvising people is what pollsters do.
p394
sg8
g9
sg10
VJOSH
p395
sg12
g9
sa(dp396
g6
VHe'll do what I tell him to do. Also....
p397
sg8
g9
sg10
VTOBY
p398
sg12
g9
sa(dp399
g6
VEnglish as the National Language.
p400
sg8
g9
sg10
VJOSH
p401
sg12
g9
sa(dp402
g6
VThat's the first thing they're going to fight back with, Josh.
p403
sg8
g13
sg10
VSAM
p404
sg12
g9
sa(dp405
g6
VWe need Hispanics. You know what state has a large population of Hispanics?
p406
sg8
g19
sg10
VTOBY
p407
sg12
g9
sa(dp408
g6
VUh... I want to say Maine, but uh...
p409
sg8
g9
sg10
VJOSH
p410
sg12
g9
sa(dp411
g6
VCalifornia.
p412
sg8
g9
sg10
VTOBY
p413
sg12
g9
sa(dp414
g6
VCalifornia. Damn, and I was only off by a continent.
p415
sg8
g9
sg10
VJOSH
p416
sg12
g9
sa(dp417
g6
VJosh.
p418
sg8
g9
sg10
VTOBY
p419
sg12
g9
sa(dp420
g6
VIt's fine. Bring her out here.
p421
sg8
g9
sg10
VJOSH
p422
sg12
g9
sa(dp423
g6
VShe'll be here tomorrow.
p424
sg8
g9
sg10
VTOBY
p425
sg12
g19
sa(dp426
g6
VThis isn't a thing.
p427
sg8
g9
sg10
VJOSH
p428
sg12
g13
sa(dp429
g6
VOkay.
p430
sg8
g9
sg10
VTOBY
p431
sg12
g9
sa(dp432
g6
VI met her twice, Toby.
p433
sg8
g9
sg10
VJOSH
p434
sg12
g9
sa(dp435
g6
VYeah, but, one of those times, she broke your heart. You know the way women can do. Where they take your heart and they throw it on the floor and then they stomp on it with their big high heals. She's a very beautiful and interesting woman. I can see why a lot of guys would go for her. [pause] You know, there's nothing at all I'm saying now of any value. So, I think the thing to do is... I think I should just keep writing.
p436
sg8
g19
sg10
VSAM
p437
sg12
g9
sa(dp438
g6
VOkay. [gets up] We had a good night.
p439
sg8
g19
sg10
VJOSH
p440
sg12
g9
sa(dp441
g6
VYeah.
p442
sg8
g9
sg10
VTOBY
p443
sg12
g9
sa(dp444
g6
V[at the door] C.J.'s doing great in there.
p445
sg8
g9
sg10
VJOSH
p446
sg12
g9
sa(dp447
g6
VAny time you want to use punctuation, that'd be fine.
p448
sg8
g9
sg10
VTOBY
p449
sg12
g9
sa(dp450
g6
VI'm going to take one more question. Katie.
p451
sg8
g19
sg10
VC.J.
p452
sg12
g9
sa(dp453
g6
VThe Federal Elections Commission's role has never been that much more than symbolic...
p454
sg8
g19
sg10
VKATIE
p455
sg12
g9
sa(dp456
g6
VI wouldn't say the F.E.C. was merely symbolic, but if you're suggesting they're toothless, I'll agree with you.
p457
sg8
g19
sg10
VC.J.
p458
sg12
g9
sa(dp459
g6
VGiven that, does the White House think that two new commissioners will make any difference?
p460
sg8
g9
sg10
VKATIE
p461
sg12
g9
sa(dp462
g6
VNo.
p463
sg8
g9
sg10
VC.J.
p464
sg12
g9
sa(dp465
g6
VThen why do it?
p466
sg8
g9
sg10
VKATIE
p467
sg12
g13
sa(dp468
g6
VSymbolism. There'll be plenty more tomorrow. Everybody have a good night.
p469
sg8
g19
sg10
VC.J.
p470
sg12
g19
sa(dp471
g6
VCarol.
p472
sg8
g9
sg10
VC.J.
p473
sg12
g9
sa(dp474
g6
VJack, C.J.'s inviting you back to follow up on a couple of things.
p475
sg8
g19
sg10
VCAROL
p476
sg12
g9
sa(dp477
g6
VMe?
p478
sg8
g9
sg10
VJACK
p479
sg12
g9
sa(dp480
g6
VYeah.
p481
sg8
g9
sg10
VCAROL
p482
sg12
g9
sa(dp483
g6
VShe doesn't want me. [turns to Danny] She wants Danny.
p484
sg8
g9
sg10
VJACK
p485
sg12
g9
sa(dp486
g6
VNo, she asked for you.
p487
sg8
g9
sg10
VCAROL
p488
sg12
g9
sa(dp489
g6
VDanny -- The Senior White House Correspondent. If there's going to be an exclusive with the Press Secretary...
p490
sg8
g9
sg10
VJACK
p491
sg12
g9
sa(dp492
g6
VGo. She wants you.
p493
sg8
g9
sg10
VDANNY
p494
sg12
g9
sa(dp495
g6
VMandatory Minimums are racist.
p496
sg8
g9
sg10
VSAM
p497
sg12
g19
sa(dp498
g6
VI understand that.
p499
sg8
g9
sg10
VTOBY
p500
sg12
g13
sa(dp501
g6
VThey're a red herring.
p502
sg8
g9
sg10
VSAM
p503
sg12
g9
sa(dp504
g6
VI understand that, too.
p505
sg8
g9
sg10
VTOBY
p506
sg12
g19
sa(dp507
g6
VIt's a way of looking like you're tough on crime, without assuming the burden of being tough on crime.
p508
sg8
g13
sg10
VSAM
p509
sg12
g9
sa(dp510
g6
VEverything you've said I understand.
p511
sg8
g9
sg10
VTOBY
p512
sg12
g9
sa(dp513
g6
VI'm saying...
p514
sg8
g9
sg10
VSAM
p515
sg12
g13
sa(dp516
g6
VWe do things one thing at a time.
p517
sg8
g9
sg10
VTOBY
p518
sg12
g9
sa(dp519
g6
VBut I'm saying we don't have time to do things one thing at a time.
p520
sg8
g9
sg10
VSAM
p521
sg12
g13
sa(dp522
g6
VWe're talking about treatment.
p523
sg8
g9
sg10
VTOBY
p524
sg12
g9
sa(dp525
g6
VI'm talking about treatment and I'm talking about Mandatory Minimums and I'm saying it's a red herring and I'm saying it's racist.
p526
sg8
g9
sg10
VSAM
p527
sg12
g9
sa(dp528
g6
VWhen you talk to the President, I want you talking about treatment. I want you talking about treatment vs. enforcement and I don't want you to stray from that!
p529
sg8
g13
sg10
VTOBY
p530
sg12
g9
sa(dp531
g6
VToby, is this what you meant when you said, "Sam, you're completely in charge of this"?
p532
sg8
g19
sg10
VSAM
p533
sg12
g9
sa(dp534
g6
VYes, I meant, you're in charge of this, in the sense that you're subordinate to me in every way. [stops walking and looks around] Where is this place?
p535
sg8
g9
sg10
VTOBY
p536
sg12
g9
sa(dp537
g6
VWhat place?
p538
sg8
g9
sg10
VSAM
p539
sg12
g9
sa(dp540
g6
VThe breakfast place.
p541
sg8
g19
sg10
VTOBY
p542
sg12
g19
sa(dp543
g6
VIt's still on the last street.
p544
sg8
g9
sg10
VSAM
p545
sg12
g9
sa(dp546
g6
VWhy didn't you say anything?
p547
sg8
g9
sg10
VTOBY
p548
sg12
g13
sa(dp549
g6
VWe were having a nice conversation.
p550
sg8
g9
sg10
VSAM
p551
sg12
g13
sa(dp552
g6
VMr. McGarry, would you like some tomato juice while waiting for the others?
p553
sg8
g9
sg10
VWAITRESS
p554
sg12
g9
sa(dp555
g6
VThanks, Celia.
p556
sg8
g9
sg10
VLEO
p557
sg12
g19
sa(dp558
g6
VAll set there?
p559
sg8
g9
sg10
VLEO
p560
sg12
g9
sa(dp561
g6
VYeah.
p562
sg8
g9
sg10
VMARGARET
p563
sg12
g9
sa(dp564
g6
VLeo. We couldn't meet closer to the office?
p565
sg8
g9
sg10
VJOSH
p566
sg12
g9
sa(dp567
g6
VI don't want people coming by the table.
p568
sg8
g9
sg10
VLEO
p569
sg12
g9
sa(dp570
g6
VWe couldn't meet in the office?
p571
sg8
g9
sg10
VJOSH
p572
sg12
g9
sa(dp573
g6
VI was hungry.
p574
sg8
g13
sg10
VLEO
p575
sg12
g13
sa(dp576
g6
VWe couldn't have food ordered?
p577
sg8
g19
sg10
VJOSH
p578
sg12
g13
sa(dp579
g6
VOh, sit down, would you?
p580
sg8
g9
sg10
VLEO
p581
sg12
g9
sa(dp582
g6
VYou should notice that Josh has on a nice suit.
p583
sg8
g9
sg10
VDONNA
p584
sg12
g9
sa(dp585
g6
VThat is a nice suit.
p586
sg8
g9
sg10
VMARGARET
p587
sg12
g13
sa(dp588
g6
VDonna.
p589
sg8
g9
sg10
VJOSH
p590
sg12
g9
sa(dp591
g6
VWe'll call it his Joy Lucas suit....
p592
sg8
g9
sg10
VDONNA
p593
sg12
g9
sa(dp594
g6
VDonna.
p595
sg8
g9
sg10
VJOSH
p596
sg12
g9
sa(dp597
g6
V...you know from now on.
p598
sg8
g9
sg10
VDONNA
p599
sg12
g9
sa(dp600
g6
VJoey Lucas is coming?
p601
sg8
g9
sg10
VMARGARET
p602
sg12
g9
sa(dp603
g6
VWe need a California expert and this is my regular Tuesday suit.
p604
sg8
g19
sg10
VJOSH
p605
sg12
g9
sa(dp606
g6
VYou assign your clothes days of the week?
p607
sg8
g9
sg10
VMARGARET
p608
sg12
g9
sa(dp609
g6
VI'm saying there's no particular M.O. behind...
p610
sg8
g9
sg10
VJOSH
p611
sg12
g13
sa(dp612
g6
VFound it.
p613
sg8
g9
sg10
VSAM
p614
sg12
g13
sa(dp615
g6
VAbout time. Sit down.
p616
sg8
g9
sg10
VLEO
p617
sg12
g9
sa(dp618
g6
VAh, Leo....
p619
sg8
g9
sg10
VSAM
p620
sg12
g9
sa(dp621
g6
VHang on. [to Toby] Talk to me about drugs.
p622
sg8
g9
sg10
VLEO
p623
sg12
g9
sa(dp624
g6
VWe can make a case for treatment vs. enforcement and we're ready to go to the President.
p625
sg8
g13
sg10
VTOBY
p626
sg12
g9
sa(dp627
g6
VWe're also ready to go to the President with Mandatory Minimums on crack versus powder cocaine.
p628
sg8
g13
sg10
VSAM
p629
sg12
g9
sa(dp630
g6
VOne step at a time.
p631
sg8
g9
sg10
VLEO
p632
sg12
g19
sa(dp633
g6
VThat's what Toby just said.
p634
sg8
g9
sg10
VSAM
p635
sg12
g9
sa(dp636
g6
VToby's right.
p637
sg8
g9
sg10
VLEO
p638
sg12
g9
sa(dp639
g6
VYes, but does anyone remember that I was put in charge.
p640
sg8
g9
sg10
VSAM
p641
sg12
g13
sa(dp642
g6
VIt was an honorary kind of thing, Sam.
p643
sg8
g19
sg10
VLEO
p644
sg12
g9
sa(dp645
g6
VLeo. [hands Leo the cell phone]
p646
sg8
g9
sg10
VMARGARET
p647
sg12
g9
sa(dp648
g6
V[into phone] Yeah.
p649
sg8
g9
sg10
VLEO
p650
sg12
g9
sa(dp651
g6
V[to the others] Are you ready to order?
p652
sg8
g9
sg10
VWAITRESS
p653
sg12
g9
sa(dp654
g6
V[to Margaret] Write these names down: Dalton, Dawson, Foxworthy, Greer, Morgenthau, Stackhouse, and Sugarbaker. [into phone] Thank you.
p655
sg8
g9
sg10
VLEO
p656
sg12
g9
sa(dp657
g6
VWhat was that?
p658
sg8
g9
sg10
VTOBY
p659
sg12
g13
sa(dp660
g6
VYou know what that was.
p661
sg8
g9
sg10
VLEO
p662
sg12
g13
sa(dp663
g6
VLeo, what do you want me to do with this thing?
p664
sg8
g9
sg10
VMARGARET
p665
sg12
g9
sa(dp666
g6
VHold on to them until I say so.
p667
sg8
g9
sg10
VLEO
p668
sg12
g9
sa(dp669
g6
VIt's exactly the right thing to do.
p670
sg8
g9
sg10
VTOBY
p671
sg12
g9
sa(dp672
g6
VFrom anybody but me.
p673
sg8
g9
sg10
VLEO
p674
sg12
g13
sa(dp675
g6
VI'd like to clear up that I... I don't have suits for the days of the week. This is just a regular suit.
p676
sg8
g9
sg10
VJOSH
p677
sg12
g13
sa(dp678
g6
VIt's a nice suit.
p679
sg8
g9
sg10
VSAM
p680
sg12
g9
sa(dp681
g6
VSure, it's a nice suit. It's his Joey Lucas....
p682
sg8
g9
sg10
VDONNA
p683
sg12
g9
sa(dp684
g6
VDonna!
p685
sg8
g9
sg10
VJOSH
p686
sg12
g9
sa(dp687
g6
VI'm beginning to regret not getting the waffles.
p688
sg8
g13
sg10
VDONNA
p689
sg12
g13
sa(dp690
g6
V[exasperated] I am beginning to regret having hired any of you. We have a 42% job approval and you're talking about waffles and something with Josh, I don't understand.
p691
sg8
g19
sg10
VLEO
p692
sg12
g9
sa(dp693
g6
VHe's wearing a special suit for Joey Lucas.
p694
sg8
g19
sg10
VDONNA
p695
sg12
g9
sa(dp696
g6
VYou got dressed up for a guy named Joey?
p697
sg8
g9
sg10
VLEO
p698
sg12
g9
sa(dp699
g6
VJoey... Joey Lucas is a woman... and I'm not getting dressed up for her.
p700
sg8
g9
sg10
VJOSH
p701
sg12
g9
sa(dp702
g6
VIt's his regular Tuesday suit.
p703
sg8
g9
sg10
VDONNA
p704
sg12
g9
sa(dp705
g6
VMy point is... we have to make it through the week without making any mistakes.
p706
sg8
g9
sg10
VLEO
p707
sg12
g9
sa(dp708
g6
VWe will.
p709
sg8
g9
sg10
VJOSH
p710
sg12
g9
sa(dp711
g6
VI'm saying that this is...
p712
sg8
g9
sg10
VLEO
p713
sg12
g13
sa(dp714
g6
VI'm saying calm down.
p715
sg8
g19
sg10
VJOSH
p716
sg12
g13
sa(dp717
g6
VI'm perfectly calm.
p718
sg8
g19
sg10
VLEO
p719
sg12
g9
sa(dp720
g6
VYou're not calm, Leo. You're acting like a nervous hooleelia.
p721
sg8
g9
sg10
VSAM
p722
sg12
g9
sa(dp723
g6
VA what?
p724
sg8
g9
sg10
VTOBY
p725
sg12
g9
sa(dp726
g6
VIt may not be a word. It may just be something my mother used to say.
p727
sg8
g19
sg10
VSAM
p728
sg12
g9
sa(dp729
g6
VIt's a huge mistake.
p730
sg8
g13
sg10
VAL
p731
sg12
g9
sa(dp732
g6
VAl...
p733
sg8
g9
sg10
VBARTLET
p734
sg12
g9
sa(dp735
g6
VIt is a huge mistake, Mr. President. And possibly a fatal one. It'll doom the midterms in November. It'll haunt you at the convention. And if you manage to get renominated, which is far from a lock, there's no way you'll win reelection.
p736
sg8
g13
sg10
VAL
p737
sg12
g9
sa(dp738
g6
VAl's Mr. Good News Happy Guy.
p739
sg8
g9
sg10
VSAM
p740
sg12
g9
sa(dp741
g6
VWe're not coming out for legalization.
p742
sg8
g9
sg10
VSAM
p743
sg12
g13
sa(dp744
g6
VIt's going to be a long day.
p745
sg8
g9
sg10
VMANDY
p746
sg12
g9
sa(dp747
g6
VMandy.
p748
sg8
g9
sg10
VC.J.
p749
sg12
g9
sa(dp750
g6
VKiefer's just getting warmed up.
p751
sg8
g9
sg10
VMANDY
p752
sg12
g9
sa(dp753
g6
VListen...
p754
sg8
g9
sg10
VC.J.
p755
sg12
g9
sa(dp756
g6
VYou're kidding.
p757
sg8
g9
sg10
VMANDY
p758
sg12
g9
sa(dp759
g6
VNo.
p760
sg8
g9
sg10
VC.J.
p761
sg12
g9
sa(dp762
g6
VHe doesn't want me in there?
p763
sg8
g9
sg10
VMANDY
p764
sg12
g13
sa(dp765
g6
VLeo's not comfortable with it.
p766
sg8
g9
sg10
VC.J.
p767
sg12
g9
sa(dp768
g6
VLeo's not comfortable with it.
p769
sg8
g9
sg10
VMANDY
p770
sg12
g9
sa(dp771
g6
VNo.
p772
sg8
g9
sg10
VC.J.
p773
sg12
g9
sa(dp774
g6
VI want to talk to the President.
p775
sg8
g19
sg10
VMANDY
p776
sg12
g9
sa(dp777
g6
VYou can't.
p778
sg8
g9
sg10
VC.J.
p779
sg12
g13
sa(dp780
g6
VC.J.
p781
sg8
g9
sg10
VMANDY
p782
sg12
g9
sa(dp783
g6
VYou can't.
p784
sg8
g9
sg10
VC.J.
p785
sg12
g13
sa(dp786
g6
VIt was just a memo.
p787
sg8
g9
sg10
VMANDY
p788
sg12
g13
sa(dp789
g6
VIt wasn't just a memo.
p790
sg8
g9
sg10
VC.J.
p791
sg12
g13
sa(dp792
g6
VThe fact that you guys....
p793
sg8
g9
sg10
VMANDY
p794
sg12
g9
sa(dp795
g6
VDo you have any idea how pissed people are at you?
p796
sg8
g9
sg10
VC.J.
p797
sg12
g9
sa(dp798
g6
VC.J.
p799
sg8
g9
sg10
VMANDY
p800
sg12
g9
sa(dp801
g6
VThey're pissed at me, that's how pissed they are at you. They want to know how the hell I didn't know about the memo.
p802
sg8
g13
sg10
VC.J.
p803
sg12
g9
sa(dp804
g6
VI can be trusted.
p805
sg8
g9
sg10
VMANDY
p806
sg12
g13
sa(dp807
g6
VWe'll see. There's plenty for you to do. Leo would feel more comfortable if you stayed out of this...
p808
sg8
g9
sg10
VC.J.
p809
sg12
g9
sa(dp810
g6
VOkay. Okay! [walks away in a huff]
p811
sg8
g13
sg10
VMANDY
p812
sg12
g9
sa(dp813
g6
VYou're coming...
p814
sg8
g9
sg10
VAL
p815
sg12
g9
sa(dp816
g6
VDrug control...
p817
sg8
g9
sg10
VSAM
p818
sg12
g9
sa(dp819
g6
VMr. President.
p820
sg8
g9
sg10
VAL
p821
sg12
g9
sa(dp822
g6
VListen to me...
p823
sg8
g9
sg10
VSAM
p824
sg12
g13
sa(dp825
g6
VSir.
p826
sg8
g9
sg10
VAL
p827
sg12
g9
sa(dp828
g6
VListen to Sam.
p829
sg8
g9
sg10
VTOBY
p830
sg12
g9
sa(dp831
g6
VDrug control appropriations...
p832
sg8
g9
sg10
VSAM
p833
sg12
g9
sa(dp834
g6
V...which total 17.6 billion...
p835
sg8
g9
sg10
VJOSH
p836
sg12
g13
sa(dp837
g6
V...are divided into a ratio of 2/3 enforcement, 1/3 treatment. We want to reverse that ratio.
p838
sg8
g13
sg10
VSAM
p839
sg12
g9
sa(dp840
g6
VSpend less money on drug enforcement?
p841
sg8
g9
sg10
VAL
p842
sg12
g9
sa(dp843
g6
VSo that we can spend more money on treatment.
p844
sg8
g19
sg10
VSAM
p845
sg12
g19
sa(dp846
g6
VSo, you're soft on crime.
p847
sg8
g13
sg10
VAL
p848
sg12
g9
sa(dp849
g6
VAl...
p850
sg8
g9
sg10
VSAM
p851
sg12
g9
sa(dp852
g6
VYou don't care if kids shoot up on the playground at recess.
p853
sg8
g9
sg10
VAL
p854
sg12
g9
sa(dp855
g6
VWe don't care do we, Sam?
p856
sg8
g9
sg10
VBARTLET
p857
sg12
g13
sa(dp858
g6
VNo, sir.
p859
sg8
g19
sg10
VSAM
p860
sg12
g9
sa(dp861
g6
V[enters] What'd I miss?
p862
sg8
g9
sg10
VLEO
p863
sg12
g13
sa(dp864
g6
VKiefer's been here 45 minutes, he's already got me on the playground at recess.
p865
sg8
g19
sg10
VBARTLET
p866
sg12
g9
sa(dp867
g6
V[to Al] Took you 45 minutes?
p868
sg8
g9
sg10
VLEO
p869
sg12
g9
sa(dp870
g6
VMr. President, Sam and I have been working with the Office of National Drug Control Policy, we have some numbers you should hear.
p871
sg8
g19
sg10
VTOBY
p872
sg12
g9
sa(dp873
g6
VWhat's up?
p874
sg8
g9
sg10
VJOSH
p875
sg12
g9
sa(dp876
g6
VJoey Lucas is here. She's waiting in your office.
p877
sg8
g9
sg10
VCHARLIE
p878
sg12
g9
sa(dp879
g6
VOkay.
p880
sg8
g9
sg10
VJOSH
p881
sg12
g9
sa(dp882
g6
VOkay.
p883
sg8
g9
sg10
VCHARLIE
p884
sg12
g9
sa(dp885
g6
VWhat are you smiling at?
p886
sg8
g19
sg10
VJOSH
p887
sg12
g19
sa(dp888
g6
VFine lookin' woman, Josh.
p889
sg8
g9
sg10
VCHARLIE
p890
sg12
g9
sa(dp891
g6
VYes.
p892
sg8
g9
sg10
VJOSH
p893
sg12
g19
sa(dp894
g6
VI could help you out.
p895
sg8
g9
sg10
VCHARLIE
p896
sg12
g13
sa(dp897
g6
VHelp me out with what?
p898
sg8
g9
sg10
VJOSH
p899
sg12
g9
sa(dp900
g6
VShe's a fine looking woman.
p901
sg8
g9
sg10
VCHARLIE
p902
sg12
g9
sa(dp903
g6
VStop saying that!
p904
sg8
g9
sg10
VJOSH
p905
sg12
g9
sa(dp906
g6
VI owe you a lot, Josh. You got me this job. I'd like to pay you back.
p907
sg8
g19
sg10
VCHARLIE
p908
sg12
g9
sa(dp909
g6
VBy helping me out?
p910
sg8
g9
sg10
VJOSH
p911
sg12
g9
sa(dp912
g6
VBy helping you out.
p913
sg8
g9
sg10
VCHARLIE
p914
sg12
g9
sa(dp915
g6
VWhat makes you think I need any help?
p916
sg8
g9
sg10
VJOSH
p917
sg12
g9
sa(dp918
g6
VShe's a fine looking woman....
p919
sg8
g9
sg10
VCHARLIE
p920
sg12
g9
sa(dp921
g6
VGet away from me.
p922
sg8
g9
sg10
VJOSH
p923
sg12
g13
sa(dp924
g6
VHey, Joey. Hey, Kenny. Good to see you. I got your desks set up out here. Why don't you come with me? [walks out]
p925
sg8
g9
sg10
VJOSH
p926
sg12
g9
sa(dp927
g6
VHey!
p928
sg8
g9
sg10
VJOEY
p929
sg12
g9
sa(dp930
g6
VYeah.
p931
sg8
g9
sg10
VJOSH
p932
sg12
g9
sa(dp933
g6
VJoey, we're in a bit of a mode here and I think it's best if we just do business. Plus, this is the White House. I wouldn't expect candy and flowers on your arrival.
p934
sg8
g19
sg10
VJOSH
p935
sg12
g9
sa(dp936
g6
VExcuse me. Joey? These are from Leo McGarry. [presents her with flowers] He says welcome and let him know if there's anything you need.
p937
sg8
g9
sg10
VMARGARET
p938
sg12
g9
sa(dp939
g6
VI will. Did you have a good flight?
p940
sg8
g19
sg10
VMARGARET
p941
sg12
g9
sa(dp942
g6
V[a bit sternly to Margaret] Go back to your office.
p943
sg8
g9
sg10
VJOSH
p944
sg12
g9
sa(dp945
g6
VThey're carnations.
p946
sg8
g9
sg10
VJOEY
p947
sg12
g9
sa(dp948
g6
VThis is your desk. You got a phone. You got a computer. You got access to a staff. I know how women like to personalize their desks with flowers, and plants, and hand lotion, but I prefer the place to be professional.
p949
sg8
g19
sg10
VJOSH
p950
sg12
g9
sa(dp951
g6
VSome of them might, and I'm saying we don't do that on my side of the building. [pause] I'm going to go back to this meeting and then I'll brief you on what I need.
p952
sg8
g19
sg10
VJOSH
p953
sg12
g9
sa(dp954
g6
VOkay.
p955
sg8
g9
sg10
VJOEY
p956
sg12
g9
sa(dp957
g6
VCome here. [motions to Joey]
p958
sg8
g9
sg10
VJOSH
p959
sg12
g13
sa(dp960
g6
VYes!
p961
sg8
g9
sg10
VJOSH
p962
sg12
g9
sa(dp963
g6
VBy coming here!
p964
sg8
g9
sg10
VJOSH
p965
sg12
g9
sa(dp966
g6
VThis is a place where solemn work is done. This is a place... this is a place... let me say this... this is not a place where one's personal things... where things among people... this is not a place... let's... This is a place where work is done and nothing else.
p967
sg8
g9
sg10
VJOSH
p968
sg12
g9
sa(dp969
g6
VYou bet.
p970
sg8
g9
sg10
VJOEY
p971
sg12
g9
sa(dp972
g6
VOkay. [turns to leave]
p973
sg8
g13
sg10
VJOSH
p974
sg12
g13
sa(dp975
g6
VNice suit.
p976
sg8
g9
sg10
VJOEY
p977
sg12
g9
sa(dp978
g6
V[pauses to look at her] I'll... I'll be back.
p979
sg8
g9
sg10
VJOSH
p980
sg12
g9
sa(dp981
g6
VJosh, listen. I misspoke last night. I said the President nominated a Democrat and a Republican, even though he was under no legal obligation to do so. It turns out he is.
p982
sg8
g19
sg10
VC.J.
p983
sg12
g9
sa(dp984
g6
V[sighs] C.J....
p985
sg8
g9
sg10
VJOSH
p986
sg12
g9
sa(dp987
g6
VI know.
p988
sg8
g9
sg10
VC.J.
p989
sg12
g13
sa(dp990
g6
VThis from the White House counsel?
p991
sg8
g19
sg10
VJOSH
p992
sg12
g9
sa(dp993
g6
VYeah.
p994
sg8
g9
sg10
VC.J.
p995
sg12
g9
sa(dp996
g6
VYou sure?
p997
sg8
g9
sg10
VJOSH
p998
sg12
g9
sa(dp999
g6
VAbout what?
p1000
sg8
g9
sg10
VC.J.
p1001
sg12
g9
sa(dp1002
g6
VYou said he nominated a Democrat and a Republican.
p1003
sg8
g9
sg10
VJOSH
p1004
sg12
g9
sa(dp1005
g6
VEven though he was under no legal obligation to do so. Yeah, I just looked at the transcript.
p1006
sg8
g19
sg10
VC.J.
p1007
sg12
g9
sa(dp1008
g6
VAll right. You'll fix it at the briefing?
p1009
sg8
g9
sg10
VJOSH
p1010
sg12
g9
sa(dp1011
g6
VYeah.
p1012
sg8
g9
sg10
VC.J.
p1013
sg12
g9
sa(dp1014
g6
VDon't worry about it. [leaves C.J. standing in the lobby]
p1015
sg8
g9
sg10
VJOSH
p1016
sg12
g9
sa(dp1017
g6
VThe American Medical Association says that addiction is a disease.
p1018
sg8
g13
sg10
VSAM
p1019
sg12
g9
sa(dp1020
g6
VYou're not going to be able to sell that.
p1021
sg8
g9
sg10
VAL
p1022
sg12
g9
sa(dp1023
g6
VAl!
p1024
sg8
g9
sg10
VSAM
p1025
sg12
g9
sa(dp1026
g6
VYou're not going to be able to sell it.
p1027
sg8
g9
sg10
VAL
p1028
sg12
g9
sa(dp1029
g6
VThe A.M.A. says it, why does it he have to sell it?
p1030
sg8
g9
sg10
VTOBY
p1031
sg12
g13
sa(dp1032
g6
VBecause...
p1033
sg8
g9
sg10
VAL
p1034
sg12
g19
sa(dp1035
g6
VDrug addiction is a disease. It's a... it's... it's a... medical problem. It can be treated. This isn't ideological. It's science.
p1036
sg8
g13
sg10
VTOBY
p1037
sg12
g9
sa(dp1038
g6
VIt's science to you.
p1039
sg8
g9
sg10
VAL
p1040
sg12
g9
sa(dp1041
g6
V[big sigh] Science is science to everybody, Al.
p1042
sg8
g9
sg10
VTOBY
p1043
sg12
g9
sa(dp1044
g6
V[enters] What'd I miss?
p1045
sg8
g9
sg10
VJOSH
p1046
sg12
g13
sa(dp1047
g6
VToby was just explaining to Al that science is science to everyone.
p1048
sg8
g9
sg10
VBARTLET
p1049
sg12
g9
sa(dp1050
g6
VAnd I believe that science is science to everybody. I just don't think you can sell that.
p1051
sg8
g9
sg10
VAL
p1052
sg12
g13
sa(dp1053
g6
VI'm sorry, Mr. President. While Al tries to come up with something easier to sell than science, would you mind if I spoke to Toby and Leo alone?
p1054
sg8
g13
sg10
VJOSH
p1055
sg12
g9
sa(dp1056
g6
VGo.
p1057
sg8
g9
sg10
VBARTLET
p1058
sg12
g9
sa(dp1059
g6
VSo...
p1060
sg8
g9
sg10
VJOSH
p1061
sg12
g9
sa(dp1062
g6
VYeah.
p1063
sg8
g9
sg10
VLEO
p1064
sg12
g9
sa(dp1065
g6
VHey, Joey Lucas says she's not with Kiefer anymore.
p1066
sg8
g9
sg10
VJOSH
p1067
sg12
g9
sa(dp1068
g6
VWell that's a load off our minds.
p1069
sg8
g9
sg10
VLEO
p1070
sg12
g13
sa(dp1071
g6
VYeah... uh... C.J. misspoke last night during her briefing... uh, she'll fix it when she gets back in there.
p1072
sg8
g9
sg10
VJOSH
p1073
sg12
g9
sa(dp1074
g6
VWhat did she say?
p1075
sg8
g9
sg10
VTOBY
p1076
sg12
g9
sa(dp1077
g6
VShe said the President nominated a Democrat and a Republican when he was under no legal obligation to do so.
p1078
sg8
g19
sg10
VJOSH
p1079
sg12
g9
sa(dp1080
g6
VHe is under a legal obligation.
p1081
sg8
g19
sg10
VLEO
p1082
sg12
g19
sa(dp1083
g6
VShe knows that now.
p1084
sg8
g9
sg10
VJOSH
p1085
sg12
g19
sa(dp1086
g6
VThis is just the kind of dumb mistake we don't need right now.
p1087
sg8
g13
sg10
VLEO
p1088
sg12
g13
sa(dp1089
g6
VShe knows that, too.
p1090
sg8
g9
sg10
VJOSH
p1091
sg12
g19
sa(dp1092
g6
VAll right, what are you gonna do?
p1093
sg8
g9
sg10
VLEO
p1094
sg12
g9
sa(dp1095
g6
VHow's it going in there?
p1096
sg8
g9
sg10
VJOSH
p1097
sg12
g9
sa(dp1098
g6
VSam's just starting.
p1099
sg8
g9
sg10
VLEO
p1100
sg12
g13
sa(dp1101
g6
VYou talked to him about the thing, yet? [pointing at Toby]
p1102
sg8
g9
sg10
VJOSH
p1103
sg12
g9
sa(dp1104
g6
VNo.
p1105
sg8
g9
sg10
VLEO
p1106
sg12
g9
sa(dp1107
g6
VMe?
p1108
sg8
g9
sg10
VTOBY
p1109
sg12
g9
sa(dp1110
g6
VYeah, listen....
p1111
sg8
g9
sg10
VLEO
p1112
sg12
g19
sa(dp1113
g6
VWe want you to go to a meeting.
p1114
sg8
g9
sg10
VJOSH
p1115
sg12
g9
sa(dp1116
g6
VWith who?
p1117
sg8
g9
sg10
VTOBY
p1118
sg12
g9
sa(dp1119
g6
VA prominent House Democrat who has a voice on Campaign Finance Reform and if it was someone on the Ethics Committee that'd be even better, cause then she could answer some of Leo's questions.
p1120
sg8
g9
sg10
VJOSH
p1121
sg12
g9
sa(dp1122
g6
V[pause, smiles a bit] I used to be married to someone who fits that description.
p1123
sg8
g13
sg10
VTOBY
p1124
sg12
g9
sa(dp1125
g6
VI set up lunch for the two of you.
p1126
sg8
g9
sg10
VLEO
p1127
sg12
g9
sa(dp1128
g6
VYou set me up on a date with my ex-wife?
p1129
sg8
g9
sg10
VTOBY
p1130
sg12
g9
sa(dp1131
g6
VYeah. Let her know the President's not going to ask the democrats to unilaterally drop soft money.
p1132
sg8
g19
sg10
VLEO
p1133
sg12
g9
sa(dp1134
g6
VMake that clear.
p1135
sg8
g9
sg10
VJOSH
p1136
sg12
g19
sa(dp1137
g6
VAnd also take her temperature on the ethics thing.
p1138
sg8
g19
sg10
VLEO
p1139
sg12
g9
sa(dp1140
g6
VOkay.
p1141
sg8
g9
sg10
VTOBY
p1142
sg12
g9
sa(dp1143
g6
VSee ya later. [starts to leave but turns around] Leo, you had to send flowers?
p1144
sg8
g13
sg10
VJOSH
p1145
sg12
g9
sa(dp1146
g6
VIt's a nice thing to do.
p1147
sg8
g9
sg10
VLEO
p1148
sg12
g9
sa(dp1149
g6
VYeah, but I had this whole patter thing going... and then... the hell with it. [exits]
p1150
sg8
g13
sg10
VJOSH
p1151
sg12
g13
sa(dp1152
g6
VMargaret!
p1153
sg8
g9
sg10
VLEO
p1154
sg12
g9
sa(dp1155
g6
V[comes in] Yes.
p1156
sg8
g9
sg10
VMARGARET
p1157
sg12
g19
sa(dp1158
g6
VThe list of names I gave you before?
p1159
sg8
g9
sg10
VLEO
p1160
sg12
g9
sa(dp1161
g6
VDalton, Dawson, Foxworthy, Greer, Morgenthau, Stackhouse, Sugarbaker.
p1162
sg8
g9
sg10
VMARGARET
p1163
sg12
g19
sa(dp1164
g6
VYou didn't have to memorize them.
p1165
sg8
g9
sg10
VLEO
p1166
sg12
g13
sa(dp1167
g6
VI couldn't help it.
p1168
sg8
g9
sg10
VMARGARET
p1169
sg12
g13
sa(dp1170
g6
VOkay.
p1171
sg8
g9
sg10
VLEO
p1172
sg12
g9
sa(dp1173
g6
VMy mind works that way.
p1174
sg8
g9
sg10
VMARGARET
p1175
sg12
g19
sa(dp1176
g6
VYes, call their offices. I want to see one representative apiece at two o'clock. I want them as a group.
p1177
sg8
g9
sg10
VLEO
p1178
sg12
g9
sa(dp1179
g6
VIn the office?
p1180
sg8
g9
sg10
VMARGARET
p1181
sg12
g9
sa(dp1182
g6
VIn the press briefing room. [walks toward the door]
p1183
sg8
g9
sg10
VLEO
p1184
sg12
g9
sa(dp1185
g6
VLeo.
p1186
sg8
g9
sg10
VMARGARET
p1187
sg12
g9
sa(dp1188
g6
VYeah.
p1189
sg8
g9
sg10
VLEO
p1190
sg12
g9
sa(dp1191
g6
VWhat do those seven people have in common?
p1192
sg8
g9
sg10
VMARGARET
p1193
sg12
g9
sa(dp1194
g6
VDon't worry about it.
p1195
sg8
g13
sg10
VLEO
p1196
sg12
g13
sa(dp1197
g6
VHello.
p1198
sg8
g9
sg10
VJOSH
p1199
sg12
g9
sa(dp1200
g6
VHello.
p1201
sg8
g9
sg10
VJOEY
p1202
sg12
g9
sa(dp1203
g6
VI see you're all settled in.
p1204
sg8
g9
sg10
VJOSH
p1205
sg12
g9
sa(dp1206
g6
VAh, yes, yes.
p1207
sg8
g9
sg10
VJOEY
p1208
sg12
g19
sa(dp1209
g6
VArea looks good. Not too many personal items. Got your little clock, that's fine.
p1210
sg8
g19
sg10
VJOSH
p1211
sg12
g13
sa(dp1212
g6
VThank you.
p1213
sg8
g9
sg10
VJOEY
p1214
sg12
g19
sa(dp1215
g6
VHere's the story. The President announced last night, he's naming two Campaign Finance Reform minded nominees to the F.E.C. This will anger the Republican Leadership to the extent they'll retaliate. Retaliate, how? They'll introduce a series of bills design to put the President on the wrong side of public debates. The first will be a law making English the National language.
p1216
sg8
g13
sg10
VJOSH
p1217
sg12
g9
sa(dp1218
g6
VJoey...
p1219
sg8
g9
sg10
VJOSH
p1220
sg12
g9
sa(dp1221
g6
VLunchtime.
p1222
sg8
g9
sg10
VJOEY
p1223
sg12
g9
sa(dp1224
g6
VOver 30% of the entire Federal prison population are non-violent first time offenders in jail for drug related crimes.
p1225
sg8
g13
sg10
VSAM
p1226
sg12
g9
sa(dp1227
g6
VSam...
p1228
sg8
g9
sg10
VAL
p1229
sg12
g9
sa(dp1230
g6
VAt a cost, for those prisoners alone...
p1231
sg8
g9
sg10
VSAM
p1232
sg12
g9
sa(dp1233
g6
VSam!
p1234
sg8
g9
sg10
VAL
p1235
sg12
g9
sa(dp1236
g6
V...of 2 million dollars a day.
p1237
sg8
g9
sg10
VSAM
p1238
sg12
g9
sa(dp1239
g6
VMr. President, we can sell the public on the idea that 2 million bucks a day can be put to better use.
p1240
sg8
g19
sg10
VTOBY
p1241
sg12
g9
sa(dp1242
g6
VNot if it's for treatment.
p1243
sg8
g9
sg10
VAL
p1244
sg12
g9
sa(dp1245
g6
VYes, if it's for treatment. Yes, we can demonstrate that treatment is what prevents substance abuse.
p1246
sg8
g9
sg10
VSAM
p1247
sg12
g19
sa(dp1248
g6
VAnd yes, if you can get people to sit still long enough to hear that argument. But, it takes a lot less time to hear "Just Say No" And anyone on the other side is soft on crime.
p1249
sg8
g13
sg10
VAL
p1250
sg12
g9
sa(dp1251
g6
VThe A.M.A....
p1252
sg8
g9
sg10
VSAM
p1253
sg12
g9
sa(dp1254
g6
VCan't sell it!
p1255
sg8
g9
sg10
VAL
p1256
sg12
g9
sa(dp1257
g6
VCan't sell science?
p1258
sg8
g9
sg10
VBARTLET
p1259
sg12
g9
sa(dp1260
g6
VMr. President.
p1261
sg8
g9
sg10
VAL
p1262
sg12
g9
sa(dp1263
g6
VI'm hungry and so far nobody has convinced me of anything.
p1264
sg8
g13
sg10
VBARTLET
p1265
sg12
g13
sa(dp1266
g6
VLet's go eat lunch and meet back here in an hour.
p1267
sg8
g19
sg10
VLEO
p1268
sg12
g9
sa(dp1269
g6
VYes, sir.
p1270
sg8
g19
sg10
VSAM
p1271
sg12
g19
sa(dp1272
g6
VHey, Sam. How's it going?
p1273
sg8
g9
sg10
VCATHY
p1274
sg12
g9
sa(dp1275
g6
VUh, we're in the early stages.
p1276
sg8
g9
sg10
VSAM
p1277
sg12
g9
sa(dp1278
g6
VDo you know what you want for lunch?
p1279
sg8
g9
sg10
VCATHY
p1280
sg12
g9
sa(dp1281
g6
VThat's an interesting question.
p1282
sg8
g19
sg10
VSAM
p1283
sg12
g19
sa(dp1284
g6
VSam.
p1285
sg8
g9
sg10
VCATHY
p1286
sg12
g9
sa(dp1287
g6
VI could have turkey.
p1288
sg8
g9
sg10
VSAM
p1289
sg12
g13
sa(dp1290
g6
VSam.
p1291
sg8
g9
sg10
VCATHY
p1292
sg12
g9
sa(dp1293
g6
VI could have some fish.
p1294
sg8
g9
sg10
VSAM
p1295
sg12
g13
sa(dp1296
g6
VWould you like to look at the menu?
p1297
sg8
g9
sg10
VCATHY
p1298
sg12
g9
sa(dp1299
g6
VA nice piece of fish never hurt anyone, Cathy.
p1300
sg8
g13
sg10
VSAM
p1301
sg12
g13
sa(dp1302
g6
VHey, Sam.
p1303
sg8
g9
sg10
VONORATO
p1304
sg12
g19
sa(dp1305
g6
VSteve.
p1306
sg8
g9
sg10
VSAM
p1307
sg12
g9
sa(dp1308
g6
VThere was an O.M.B. meeting downstairs. I wanted to see you. They said you were with the President that I should wait here.
p1309
sg8
g13
sg10
VONORATO
p1310
sg12
g9
sa(dp1311
g6
VYes. This is about the F.E.C. nominees?
p1312
sg8
g9
sg10
VSAM
p1313
sg12
g9
sa(dp1314
g6
VAh, look...
p1315
sg8
g9
sg10
VONORATO
p1316
sg12
g9
sa(dp1317
g6
VYou don't want to see me, you want to see Josh.
p1318
sg8
g9
sg10
VSAM
p1319
sg12
g9
sa(dp1320
g6
VI was hoping you and I could talk.
p1321
sg8
g19
sg10
VONORATO
p1322
sg12
g9
sa(dp1323
g6
VOn the F.E.C., Josh is the guy.
p1324
sg8
g9
sg10
VSAM
p1325
sg12
g9
sa(dp1326
g6
VJosh isn't quite himself lately.
p1327
sg8
g9
sg10
VONORATO
p1328
sg12
g13
sa(dp1329
g6
VSteve.
p1330
sg8
g9
sg10
VSAM
p1331
sg12
g9
sa(dp1332
g6
V"Take your legislative agenda and shove it up your ass"?
p1333
sg8
g13
sg10
VONORATO
p1334
sg12
g9
sa(dp1335
g6
VThat sounds exactly like Josh to me.
p1336
sg8
g9
sg10
VSAM
p1337
sg12
g13
sa(dp1338
g6
VMy boss is ready to set the building on fire.
p1339
sg8
g19
sg10
VONORATO
p1340
sg12
g9
sa(dp1341
g6
VThen your boss will be arrested, as I'm quite sure that's against the law.
p1342
sg8
g9
sg10
VSAM
p1343
sg12
g9
sa(dp1344
g6
VLook, don't mess with me Sam, I'm serious.
p1345
sg8
g13
sg10
VONORATO
p1346
sg12
g13
sa(dp1347
g6
VAnd I'm tired, and this isn't my thing. Go see Josh.
p1348
sg8
g13
sg10
VSAM
p1349
sg12
g13
sa(dp1350
g6
VYou gonna eat?
p1351
sg8
g19
sg10
VONORATO
p1352
sg12
g19
sa(dp1353
g6
VWhat?
p1354
sg8
g9
sg10
VSAM
p1355
sg12
g9
sa(dp1356
g6
VLunch. Are you gonna eat?
p1357
sg8
g19
sg10
VONORATO
p1358
sg12
g19
sa(dp1359
g6
VYeah, but at my desk, I was just gonna get...
p1360
sg8
g9
sg10
VSAM
p1361
sg12
g9
sa(dp1362
g6
VWhat are you having?
p1363
sg8
g9
sg10
VONORATO
p1364
sg12
g9
sa(dp1365
g6
VTurkey.
p1366
sg8
g9
sg10
VSAM
p1367
sg12
g9
sa(dp1368
g6
VGet two.
p1369
sg8
g9
sg10
VONORATO
p1370
sg12
g13
sa(dp1371
g6
VYes.
p1372
sg8
g9
sg10
VTOBY
p1373
sg12
g19
sa(dp1374
g6
VThis is nice. It's like a picnic.
p1375
sg8
g19
sg10
VANDY
p1376
sg12
g9
sa(dp1377
g6
VThere are restaurants, you know, indoors, with waiters and tables.
p1378
sg8
g9
sg10
VTOBY
p1379
sg12
g19
sa(dp1380
g6
VYou should come sit next to me. [pats the blanket]
p1381
sg8
g9
sg10
VANDY
p1382
sg12
g9
sa(dp1383
g6
VI'm wearing a suit.
p1384
sg8
g9
sg10
VTOBY
p1385
sg12
g13
sa(dp1386
g6
VSo am I.
p1387
sg8
g9
sg10
VANDY
p1388
sg12
g9
sa(dp1389
g6
VI'm a responsible adult.
p1390
sg8
g19
sg10
VTOBY
p1391
sg12
g13
sa(dp1392
g6
VI'm a member of the United States Congress.
p1393
sg8
g9
sg10
VANDY
p1394
sg12
g9
sa(dp1395
g6
VI rest my case.
p1396
sg8
g9
sg10
VTOBY
p1397
sg12
g13
sa(dp1398
g6
VYou know what I got?
p1399
sg8
g9
sg10
VANDY
p1400
sg12
g9
sa(dp1401
g6
VWhat?
p1402
sg8
g9
sg10
VTOBY
p1403
sg12
g9
sa(dp1404
g6
VI got pie. [pulls out a Tupperware container from her bag]
p1405
sg8
g9
sg10
VANDY
p1406
sg12
g9
sa(dp1407
g6
VAndy.
p1408
sg8
g9
sg10
VTOBY
p1409
sg12
g9
sa(dp1410
g6
VToby, I've got really good pie. It's homemade. [takes a piece of the pie and eats it]
p1411
sg8
g19
sg10
VANDY
p1412
sg12
g19
sa(dp1413
g6
VYou baked a pie?
p1414
sg8
g9
sg10
VTOBY
p1415
sg12
g9
sa(dp1416
g6
VNo, I didn't mean I made it in my home.
p1417
sg8
g9
sg10
VANDY
p1418
sg12
g13
sa(dp1419
g6
VLet's go.
p1420
sg8
g9
sg10
VTOBY
p1421
sg12
g9
sa(dp1422
g6
V[puts the Tupperware in her bag] This pie was baked for me by one of my constituents.
p1423
sg8
g9
sg10
VANDY
p1424
sg12
g9
sa(dp1425
g6
VAnd you trust it?
p1426
sg8
g9
sg10
VTOBY
p1427
sg12
g13
sa(dp1428
g6
VWell, that's why I was hoping you'd eat it first.
p1429
sg8
g19
sg10
VANDY
p1430
sg12
g13
sa(dp1431
g6
VAndy.
p1432
sg8
g9
sg10
VTOBY
p1433
sg12
g9
sa(dp1434
g6
VWant to talk about the F.E.C.?
p1435
sg8
g19
sg10
VANDY
p1436
sg12
g9
sa(dp1437
g6
VThe President's not gonna ask anyone to give up soft money unilaterally.
p1438
sg8
g19
sg10
VTOBY
p1439
sg12
g9
sa(dp1440
g6
VYou're still going to hear from Stadler and Ross.
p1441
sg8
g9
sg10
VANDY
p1442
sg12
g9
sa(dp1443
g6
VYeah.
p1444
sg8
g9
sg10
VTOBY
p1445
sg12
g9
sa(dp1446
g6
VProbably from McCovey, Lester, Brock...probably Klesko, Trask...
p1447
sg8
g9
sg10
VANDY
p1448
sg12
g19
sa(dp1449
g6
VRitchie.
p1450
sg8
g9
sg10
VTOBY
p1451
sg12
g9
sa(dp1452
g6
VYeah.
p1453
sg8
g9
sg10
VANDY
p1454
sg12
g9
sa(dp1455
g6
VBut we have your people in line?
p1456
sg8
g9
sg10
VTOBY
p1457
sg12
g9
sa(dp1458
g6
VYeah.
p1459
sg8
g9
sg10
VANDY
p1460
sg12
g9
sa(dp1461
g6
VWhat about drugs?
p1462
sg8
g9
sg10
VTOBY
p1463
sg12
g9
sa(dp1464
g6
VThat's a different story.
p1465
sg8
g9
sg10
VANDY
p1466
sg12
g9
sa(dp1467
g6
VAndy...
p1468
sg8
g9
sg10
VTOBY
p1469
sg12
g9
sa(dp1470
g6
VMandatory Minimums are racist.
p1471
sg8
g9
sg10
VANDY
p1472
sg12
g19
sa(dp1473
g6
VOne step at a time.
p1474
sg8
g9
sg10
VTOBY
p1475
sg12
g19
sa(dp1476
g6
VIt's part of the same step.
p1477
sg8
g9
sg10
VANDY
p1478
sg12
g9
sa(dp1479
g6
VTreatment.
p1480
sg8
g9
sg10
VTOBY
p1481
sg12
g9
sa(dp1482
g6
VI'm saying Mandatory Minimums...
p1483
sg8
g9
sg10
VANDY
p1484
sg12
g13
sa(dp1485
g6
VI know what you're saying. I don't want to talk about Mandatory Minimums.
p1486
sg8
g19
sg10
VTOBY
p1487
sg12
g9
sa(dp1488
g6
VThe Sentencing Commissioners...
p1489
sg8
g9
sg10
VANDY
p1490
sg12
g9
sa(dp1491
g6
VAndy, I don't want to...
p1492
sg8
g9
sg10
VTOBY
p1493
sg12
g13
sa(dp1494
g6
V...proposals regarding cocaine recommend that relative federal mandatory minimums sentencing crack users...
p1495
sg8
g13
sg10
VANDY
p1496
sg12
g13
sa(dp1497
g6
VThis is what happens. This is what you do. I say I don't want to talk about Mandatory Minimums and we talk about Mandatory Minimums anyway. You hijack my ability to make that decision for myself, Andrea. And making decisions for myself is my birthright!
p1498
sg8
g19
sg10
VTOBY
p1499
sg12
g9
sa(dp1500
g6
VGood to get that off you chest there, Pokey?
p1501
sg8
g9
sg10
VANDY
p1502
sg12
g9
sa(dp1503
g6
VYes.
p1504
sg8
g9
sg10
VTOBY
p1505
sg12
g19
sa(dp1506
g6
VOkay.
p1507
sg8
g9
sg10
VANDY
p1508
sg12
g9
sa(dp1509
g6
VYou don't have a problem with what Leo's gonna do?
p1510
sg8
g13
sg10
VTOBY
p1511
sg12
g9
sa(dp1512
g6
VNo, but I want to be there.
p1513
sg8
g9
sg10
VANDY
p1514
sg12
g9
sa(dp1515
g6
VWhy?
p1516
sg8
g9
sg10
VTOBY
p1517
sg12
g9
sa(dp1518
g6
VJust for fun.
p1519
sg8
g19
sg10
VANDY
p1520
sg12
g13
sa(dp1521
g6
VIt's not fun, Andy.
p1522
sg8
g19
sg10
VTOBY
p1523
sg12
g9
sa(dp1524
g6
VOkay.
p1525
sg8
g9
sg10
VANDY
p1526
sg12
g9
sa(dp1527
g6
VIt's not fun...
p1528
sg8
g19
sg10
VTOBY
p1529
sg12
g9
sa(dp1530
g6
VOkay.
p1531
sg8
g9
sg10
VANDY
p1532
sg12
g9
sa(dp1533
g6
VNot everything is fun....
p1534
sg8
g19
sg10
VTOBY
p1535
sg12
g9
sa(dp1536
g6
VOkay!
p1537
sg8
g9
sg10
VANDY
p1538
sg12
g9
sa(dp1539
g6
VIf you want to be there, you can be there, but this is a serious thing.
p1540
sg8
g9
sg10
VTOBY
p1541
sg12
g9
sa(dp1542
g6
VCan I bring my pie?
p1543
sg8
g9
sg10
VANDY
p1544
sg12
g13
sa(dp1545
g6
VAndy.
p1546
sg8
g9
sg10
VTOBY
p1547
sg12
g9
sa(dp1548
g6
VI'm just saying it's a serious thing. There might not be any food there.
p1549
sg8
g19
sg10
VANDY
p1550
sg12
g9
sa(dp1551
g6
VCan you walk faster, please? I really don't like to be outdoors this long.
p1552
sg8
g9
sg10
VTOBY
p1553
sg12
g9
sa(dp1554
g6
VThe fact is we'll probably have to confirm your nominees.
p1555
sg8
g9
sg10
VONORATO
p1556
sg12
g9
sa(dp1557
g6
V[mouthful] Yeah.
p1558
sg8
g9
sg10
VSAM
p1559
sg12
g9
sa(dp1560
g6
VThey're too qualified.
p1561
sg8
g19
sg10
VONORATO
p1562
sg12
g9
sa(dp1563
g6
VThey're too qualified?
p1564
sg8
g19
sg10
VSAM
p1565
sg12
g9
sa(dp1566
g6
VToo qualified not to confirm.
p1567
sg8
g19
sg10
VONORATO
p1568
sg12
g19
sa(dp1569
g6
VThat's a problem.
p1570
sg8
g13
sg10
VSAM
p1571
sg12
g9
sa(dp1572
g6
VI'm saying, there's no political cover.
p1573
sg8
g9
sg10
VONORATO
p1574
sg12
g9
sa(dp1575
g6
VI understood what you're saying.
p1576
sg8
g9
sg10
VSAM
p1577
sg12
g9
sa(dp1578
g6
VSo my question is....
p1579
sg8
g19
sg10
VONORATO
p1580
sg12
g9
sa(dp1581
g6
VSteve, the F.E.C. nominees aren't my thing.
p1582
sg8
g9
sg10
VSAM
p1583
sg12
g9
sa(dp1584
g6
VI'm not talking about the F.E.C. now. I'm talking about drugs. You're gearing up to announce a new drug policy.
p1585
sg8
g9
sg10
VONORATO
p1586
sg12
g9
sa(dp1587
g6
VWe've been gearing up for 14 months.
p1588
sg8
g9
sg10
VSAM
p1589
sg12
g13
sa(dp1590
g6
VYeah, but now you're taking daylong strategy sessions in the Oval Office.
p1591
sg8
g9
sg10
VONORATO
p1592
sg12
g9
sa(dp1593
g6
VYeah.
p1594
sg8
g9
sg10
VSAM
p1595
sg12
g9
sa(dp1596
g6
VDrugs are obviously important to you.
p1597
sg8
g19
sg10
VONORATO
p1598
sg12
g19
sa(dp1599
g6
VImportant to everyone.
p1600
sg8
g9
sg10
VSAM
p1601
sg12
g9
sa(dp1602
g6
VI mean, particularly to you. You've been the point man at the White House.
p1603
sg8
g9
sg10
VONORATO
p1604
sg12
g9
sa(dp1605
g6
VYeah.
p1606
sg8
g9
sg10
VSAM
p1607
sg12
g9
sa(dp1608
g6
VSo why do you want to trade it in for a move on campaign finance? It's not going to get you anywhere.
p1609
sg8
g9
sg10
VONORATO
p1610
sg12
g9
sa(dp1611
g6
VIt's gonna get me somewhere and I'm not trading it in.
p1612
sg8
g9
sg10
VSAM
p1613
sg12
g9
sa(dp1614
g6
VYou are.
p1615
sg8
g9
sg10
VONORATO
p1616
sg12
g19
sa(dp1617
g6
VWe're not bartering.
p1618
sg8
g9
sg10
VSAM
p1619
sg12
g13
sa(dp1620
g6
VI'm saying without the F.E.C. nominations, there's room to work with us.
p1621
sg8
g9
sg10
VONORATO
p1622
sg12
g9
sa(dp1623
g6
VAnd with the nominations?
p1624
sg8
g9
sg10
VSAM
p1625
sg12
g19
sa(dp1626
g6
VYou can have all the strategy sessions you want. No one you need's gonna take your phone call. And you, Sam, can go back to writing speeches for when the President meets the Girl Scout who sold the most cupcakes.
p1627
sg8
g9
sg10
VONORATO
p1628
sg12
g9
sa(dp1629
g6
VSam.
p1630
sg8
g9
sg10
VCATHY
p1631
sg12
g9
sa(dp1632
g6
V[to Onorato] Cookies.
p1633
sg8
g9
sg10
VSAM
p1634
sg12
g9
sa(dp1635
g6
VHuh?
p1636
sg8
g9
sg10
VONORATO
p1637
sg12
g9
sa(dp1638
g6
V[takes his jacket and heads out] Girl Scouts sells cookies, not cupcakes. And it was a pretty good speech, I wrote. It was about volunteerism.
p1639
sg8
g19
sg10
VSAM
p1640
sg12
g9
sa(dp1641
g6
VWell keep up the good work, Sam.
p1642
sg8
g19
sg10
VONORATO
p1643
sg12
g19
sa(dp1644
g6
V[from outside his office] I will.
p1645
sg8
g9
sg10
VSAM
p1646
sg12
g9
sa(dp1647
g6
VLeo.
p1648
sg8
g9
sg10
VC.J.
p1649
sg12
g9
sa(dp1650
g6
VYeah.
p1651
sg8
g9
sg10
VLEO
p1652
sg12
g9
sa(dp1653
g6
VI was just coming to see you.
p1654
sg8
g9
sg10
VC.J.
p1655
sg12
g13
sa(dp1656
g6
VI don't have much time.
p1657
sg8
g9
sg10
VLEO
p1658
sg12
g13
sa(dp1659
g6
VYou're people are here. They're in the press briefing room.
p1660
sg8
g9
sg10
VC.J.
p1661
sg12
g9
sa(dp1662
g6
VOkay. [heads out as C.J. follows]
p1663
sg8
g9
sg10
VLEO
p1664
sg12
g9
sa(dp1665
g6
VCarol's keeping the press in the northeast lobby. She'll wait for your high sign.
p1666
sg8
g13
sg10
VC.J.
p1667
sg12
g9
sa(dp1668
g6
VI'll be over in a minute.
p1669
sg8
g9
sg10
VLEO
p1670
sg12
g9
sa(dp1671
g6
VWe're telling anyone who asks why the press is out of there that it's a special event.
p1672
sg8
g19
sg10
VC.J.
p1673
sg12
g9
sa(dp1674
g6
VGood.
p1675
sg8
g9
sg10
VLEO
p1676
sg12
g19
sa(dp1677
g6
VLeo, I don't know if you've heard...
p1678
sg8
g9
sg10
VC.J.
p1679
sg12
g9
sa(dp1680
g6
VYeah, I did hear C.J. You want me to tell you how many different ways that screw-up was stupid?
p1681
sg8
g13
sg10
VLEO
p1682
sg12
g9
sa(dp1683
g6
VI know.
p1684
sg8
g9
sg10
VC.J.
p1685
sg12
g13
sa(dp1686
g6
VFor one thing, don't pass yourself off as a legal authority. For another, what the hell are you doing using a phrase like "under no legal obligation"?
p1687
sg8
g19
sg10
VLEO
p1688
sg12
g9
sa(dp1689
g6
VLeo.
p1690
sg8
g9
sg10
VC.J.
p1691
sg12
g9
sa(dp1692
g6
VYou're parsing at a time when the whole idea...
p1693
sg8
g9
sg10
VLEO
p1694
sg12
g9
sa(dp1695
g6
VI know.
p1696
sg8
g9
sg10
VC.J.
p1697
sg12
g13
sa(dp1698
g6
VSo right out of the gate, we've got to go back.
p1699
sg8
g9
sg10
VLEO
p1700
sg12
g9
sa(dp1701
g6
VYes.
p1702
sg8
g9
sg10
VC.J.
p1703
sg12
g19
sa(dp1704
g6
VThese amateur mistakes make me crazy, C.J.
p1705
sg8
g13
sg10
VLEO
p1706
sg12
g13
sa(dp1707
g6
VYes.
p1708
sg8
g9
sg10
VC.J.
p1709
sg12
g19
sa(dp1710
g6
VI'll be in there in a minute.
p1711
sg8
g9
sg10
VLEO
p1712
sg12
g9
sa(dp1713
g6
VThat was bush league what you did last night.
p1714
sg8
g19
sg10
VDANNY
p1715
sg12
g9
sa(dp1716
g6
VWe'll talk in my office.
p1717
sg8
g19
sg10
VC.J.
p1718
sg12
g9
sa(dp1719
g6
VAnd why can't anyone go in the Press Room?
p1720
sg8
g9
sg10
VDANNY
p1721
sg12
g13
sa(dp1722
g6
VThere's a meeting in there.
p1723
sg8
g9
sg10
VC.J.
p1724
sg12
g9
sa(dp1725
g6
VWhat kind of meeting?
p1726
sg8
g19
sg10
VDANNY
p1727
sg12
g19
sa(dp1728
g6
VNone of your business.
p1729
sg8
g9
sg10
VC.J.
p1730
sg12
g9
sa(dp1731
g6
VIt's the Press Room.
p1732
sg8
g9
sg10
VDANNY
p1733
sg12
g9
sa(dp1734
g6
VHi, Carol.
p1735
sg8
g9
sg10
VC.J.
p1736
sg12
g19
sa(dp1737
g6
VHi, Carol.
p1738
sg8
g9
sg10
VDANNY
p1739
sg12
g19
sa(dp1740
g6
VHi.
p1741
sg8
g9
sg10
VCAROL
p1742
sg12
g9
sa(dp1743
g6
VDon't talk to me like that in front of people.
p1744
sg8
g19
sg10
VC.J.
p1745
sg12
g9
sa(dp1746
g6
VLook...
p1747
sg8
g9
sg10
VDANNY
p1748
sg12
g9
sa(dp1749
g6
VNo! I just got called amateur twice in 10 seconds. The White House Chief of Staff can do it to me wherever he wants. You don't do it in front of people.
p1750
sg8
g9
sg10
VC.J.
p1751
sg12
g9
sa(dp1752
g6
VIf I don't have access anymore, I don't have a job.
p1753
sg8
g19
sg10
VDANNY
p1754
sg12
g13
sa(dp1755
g6
VI would think a man with your credentials...
p1756
sg8
g9
sg10
VC.J.
p1757
sg12
g9
sa(dp1758
g6
VYou think I'm kidding around?
p1759
sg8
g9
sg10
VDANNY
p1760
sg12
g13
sa(dp1761
g6
V[yells] You think I am?!
p1762
sg8
g9
sg10
VC.J.
p1763
sg12
g9
sa(dp1764
g6
VThe memo was news.
p1765
sg8
g9
sg10
VDANNY
p1766
sg12
g9
sa(dp1767
g6
VSays you.
p1768
sg8
g9
sg10
VC.J.
p1769
sg12
g19
sa(dp1770
g6
VThat's right. Says me -- says me, says my editor, says every paper who picked it up the next day. Says Time, says Newsweek...
p1771
sg8
g9
sg10
VDANNY
p1772
sg12
g9
sa(dp1773
g6
VCongratulations, you're a movie star. You're also on the outside looking in for a while, so get used to it.
p1774
sg8
g19
sg10
VC.J.
p1775
sg12
g9
sa(dp1776
g6
VUsed to it? I'm paid for it, and what you don't understand....
p1777
sg8
g9
sg10
VDANNY
p1778
sg12
g9
sa(dp1779
g6
VDON'T tell me what I don't understand! I'm not in my freshman year anymore. I understand more than you think.
p1780
sg8
g9
sg10
VC.J.
p1781
sg12
g13
sa(dp1782
g6
V[knocks] C.J.?
p1783
sg8
g9
sg10
VCAROL
p1784
sg12
g9
sa(dp1785
g6
VYeah.
p1786
sg8
g9
sg10
VC.J.
p1787
sg12
g9
sa(dp1788
g6
VLeo's on his way in.
p1789
sg8
g9
sg10
VCAROL
p1790
sg12
g9
sa(dp1791
g6
VThanks. [leaves]
p1792
sg8
g9
sg10
VC.J.
p1793
sg12
g9
sa(dp1794
g6
VWhat's going on in the Press Room?
p1795
sg8
g9
sg10
VDANNY
p1796
sg12
g9
sa(dp1797
g6
VSpecial event.
p1798
sg8
g9
sg10
VC.J.
p1799
sg12
g19
sa(dp1800
g6
VGood afternoon. I'll make this as quick and direct as I can. There's a chance...
p1801
sg8
g9
sg10
VLEO
p1802
sg12
g9
sa(dp1803
g6
VWhy are we in the Press Room?
p1804
sg8
g9
sg10
VSTUART
p1805
sg12
g9
sa(dp1806
g6
VThis will be pretty fast, Stuart. Faster still if I'm not interrupted. There's a chance that a debate is about to begin over the best way to fight the drug problem in this country. The White House, being among those, who believe more money should be put into treatment. The people you work for, being among those who believe we should put more money into prisons.
p1807
sg8
g19
sg10
VLEO
p1808
sg12
g9
sa(dp1809
g6
VLeo, why the 7 of us?
p1810
sg8
g9
sg10
VDICK
p1811
sg12
g9
sa(dp1812
g6
VDick, in July of '96, your boss's son was arrested for carrying 25 grams of cocaine. That's a crime that usually carries... what Toby?
p1813
sg8
g13
sg10
VLEO
p1814
sg12
g9
sa(dp1815
g6
VEight to 15 years.
p1816
sg8
g9
sg10
VTOBY
p1817
sg12
g9
sa(dp1818
g6
VAnd what did the Congressman's son get?
p1819
sg8
g9
sg10
VLEO
p1820
sg12
g9
sa(dp1821
g6
VSix months house arrest.
p1822
sg8
g13
sg10
VTOBY
p1823
sg12
g13
sa(dp1824
g6
VLynn, your boss's husband was caught stealing Vicodin and Percocet from the hospital at which he served as Chief of Thoracic Surgery. Now, Vicodin and Percocet are schedule-two drugs in the same legal category as Opium. What was the blue-book value, Toby?
p1825
sg8
g9
sg10
VLEO
p1826
sg12
g9
sa(dp1827
g6
VEach stolen pill carries the penalty of one year in prison and a monetary fine.
p1828
sg8
g13
sg10
VTOBY
p1829
sg12
g9
sa(dp1830
g6
VAnd what did we have for the Congresswoman's husband?
p1831
sg8
g9
sg10
VLEO
p1832
sg12
g9
sa(dp1833
g6
VHe went to a pre-trial diversion program. There's no longer any criminal record.
p1834
sg8
g9
sg10
VTOBY
p1835
sg12
g13
sa(dp1836
g6
VThat's not bad.
p1837
sg8
g13
sg10
VLEO
p1838
sg12
g9
sa(dp1839
g6
VLeo, I...
p1840
sg8
g9
sg10
VSTUART
p1841
sg12
g13
sa(dp1842
g6
VStuart, yours is my favorite. Your boss has a daughter who was pulled over with 31 grams of coke and charged with intent to deliver. More over, she's just been indicted by a federal grand jury in Greenville, South Carolina, along with 18 other people for conspiracy to distribute. Toby...
p1843
sg8
g19
sg10
VLEO
p1844
sg12
g9
sa(dp1845
g6
VShe paid a fine of $2800 and forfeited her car in which the drugs were found.
p1846
sg8
g9
sg10
VTOBY
p1847
sg12
g9
sa(dp1848
g6
VThe President wants a lively debate.
p1849
sg8
g19
sg10
VLEO
p1850
sg12
g9
sa(dp1851
g6
VHe wants to hear opposition, but he's not gonna stomach hypocrisy. We start hearing "soft on criminals", "soft on drugs" from any of the people you work for, we've got 7 stories ready for page one.
p1852
sg8
g13
sg10
VLEO
p1853
sg12
g9
sa(dp1854
g6
VYou're saber-rattling.
p1855
sg8
g9
sg10
VSTUART
p1856
sg12
g9
sa(dp1857
g6
VHere comes the White House Press Corps. Let's find out.
p1858
sg8
g9
sg10
VLEO
p1859
sg12
g9
sa(dp1860
g6
VWe're done here.
p1861
sg8
g9
sg10
VSTUART
p1862
sg12
g13
sa(dp1863
g6
VYou play the full nine innings at this level, Stuart. Tell your friends about it.
p1864
sg8
g19
sg10
VLEO
p1865
sg12
g9
sa(dp1866
g6
V[to the press] Take your seats, please. C.J. will start the briefing.
p1867
sg8
g9
sg10
VCAROL
p1868
sg12
g9
sa(dp1869
g6
V[sighs] Can I tell you something?
p1870
sg8
g9
sg10
VANDY
p1871
sg12
g9
sa(dp1872
g6
VListen.
p1873
sg8
g9
sg10
VTOBY
p1874
sg12
g9
sa(dp1875
g6
VWatching you guys do that....
p1876
sg8
g9
sg10
VANDY
p1877
sg12
g9
sa(dp1878
g6
VAndy.
p1879
sg8
g9
sg10
VTOBY
p1880
sg12
g9
sa(dp1881
g6
VIt was a little fun.
p1882
sg8
g19
sg10
VANDY
p1883
sg12
g9
sa(dp1884
g6
VThat was not fun.
p1885
sg8
g19
sg10
VTOBY
p1886
sg12
g9
sa(dp1887
g6
VYou should've had some pie.
p1888
sg8
g9
sg10
VANDY
p1889
sg12
g9
sa(dp1890
g6
VI have to get back to work. And you, being a Congresswoman... I'm sure you need to be back out there... you know, screwing the people.
p1891
sg8
g9
sg10
VTOBY
p1892
sg12
g9
sa(dp1893
g6
VI should tell you something.
p1894
sg8
g9
sg10
VANDY
p1895
sg12
g13
sa(dp1896
g6
VWhat?
p1897
sg8
g9
sg10
VTOBY
p1898
sg12
g9
sa(dp1899
g6
VIn the interest of full disclosure.
p1900
sg8
g19
sg10
VANDY
p1901
sg12
g19
sa(dp1902
g6
VWhat?
p1903
sg8
g9
sg10
VTOBY
p1904
sg12
g9
sa(dp1905
g6
VThe other night, I was out on a date. We had a couple glasses of wine. He pulled the car up, bumped the guy ahead of us. The cop was there. He was going to give him a blood-alcohol test, but then he recognized me.
p1906
sg8
g19
sg10
VANDY
p1907
sg12
g9
sa(dp1908
g6
VThat's fine.
p1909
sg8
g9
sg10
VTOBY
p1910
sg12
g9
sa(dp1911
g6
VI'm just saying....
p1912
sg8
g9
sg10
VANDY
p1913
sg12
g13
sa(dp1914
g6
VYou didn't say, "Officer, I'm a member of Congress, isn't there anything we can do about this?"
p1915
sg8
g9
sg10
VTOBY
p1916
sg12
g9
sa(dp1917
g6
VNo.
p1918
sg8
g9
sg10
VANDY
p1919
sg12
g9
sa(dp1920
g6
VWho were you out with?
p1921
sg8
g9
sg10
VTOBY
p1922
sg12
g9
sa(dp1923
g6
VA guy named Victor Stipe.
p1924
sg8
g9
sg10
VANDY
p1925
sg12
g9
sa(dp1926
g6
VExecutive advisor for the Orioles?
p1927
sg8
g9
sg10
VTOBY
p1928
sg12
g9
sa(dp1929
g6
VYeah.
p1930
sg8
g9
sg10
VANDY
p1931
sg12
g9
sa(dp1932
g6
VYou went out on a date with the executive advisor for the Baltimore Orioles?
p1933
sg8
g9
sg10
VTOBY
p1934
sg12
g9
sa(dp1935
g6
VToby, are you upset that I went out on a date? Or are you upset that I went out on a date with someone who plays in the same division as the Yankees?
p1936
sg8
g13
sg10
VANDY
p1937
sg12
g9
sa(dp1938
g6
VHonest to God, I'm not sure.
p1939
sg8
g9
sg10
VTOBY
p1940
sg12
g13
sa(dp1941
g6
VMandatory Minimums, Toby.
p1942
sg8
g9
sg10
VANDY
p1943
sg12
g19
sa(dp1944
g6
VWhat are you doing getting into cars with guys that have been drinking?
p1945
sg8
g13
sg10
VTOBY
p1946
sg12
g9
sa(dp1947
g6
VCause I'm a grown woman....
p1948
sg8
g9
sg10
VANDY
p1949
sg12
g9
sa(dp1950
g6
VThat's what taxicabs are for.
p1951
sg8
g9
sg10
VTOBY
p1952
sg12
g9
sa(dp1953
g6
VAnd I will get into whatever car....
p1954
sg8
g9
sg10
VANDY
p1955
sg12
g9
sa(dp1956
g6
VAnd also, I can still do that.
p1957
sg8
g9
sg10
VTOBY
p1958
sg12
g13
sa(dp1959
g6
V[stops and stares at Toby] You'd come pick me up with a date?
p1960
sg8
g19
sg10
VANDY
p1961
sg12
g9
sa(dp1962
g6
VIf it wasn't an Oriole, absolutely. Or a Red Sock. In fact, just date the National League, would you?
p1963
sg8
g9
sg10
VTOBY
p1964
sg12
g9
sa(dp1965
g6
VToby, I'm not kidding. Mandatory Minimums.
p1966
sg8
g9
sg10
VANDY
p1967
sg12
g13
sa(dp1968
g6
VGo away.
p1969
sg8
g9
sg10
VTOBY
p1970
sg12
g9
sa(dp1971
g6
VIt's good seeing you.
p1972
sg8
g19
sg10
VANDY
p1973
sg12
g19
sa(dp1974
g6
VAndy?
p1975
sg8
g9
sg10
VTOBY
p1976
sg12
g9
sa(dp1977
g6
VYeah.
p1978
sg8
g9
sg10
VANDY
p1979
sg12
g9
sa(dp1980
g6
VLet me have the pie.
p1981
sg8
g9
sg10
VTOBY
p1982
sg12
g13
sa(dp1983
g6
VMr. President.
p1984
sg8
g9
sg10
VLEO
p1985
sg12
g9
sa(dp1986
g6
V[groggily] Yeah.
p1987
sg8
g9
sg10
VBARTLET
p1988
sg12
g9
sa(dp1989
g6
VOh, you're in bed?
p1990
sg8
g9
sg10
VLEO
p1991
sg12
g9
sa(dp1992
g6
VYeah.
p1993
sg8
g9
sg10
VBARTLET
p1994
sg12
g9
sa(dp1995
g6
VWhen I called, you were awake.
p1996
sg8
g9
sg10
VLEO
p1997
sg12
g9
sa(dp1998
g6
VWell, yeah, that's cause I answered the phone. [turns on the lamp]
p1999
sg8
g9
sg10
VBARTLET
p2000
sg12
g9
sa(dp2001
g6
VI was just coming by to talk. It can wait.
p2002
sg8
g9
sg10
VLEO
p2003
sg12
g13
sa(dp2004
g6
VWhat's on your mind? [waves for Leo to come in]
p2005
sg8
g9
sg10
VBARTLET
p2006
sg12
g9
sa(dp2007
g6
VYou sure?
p2008
sg8
g9
sg10
VLEO
p2009
sg12
g9
sa(dp2010
g6
VYeah, I got to be up in four hours, anyway.
p2011
sg8
g9
sg10
VBARTLET
p2012
sg12
g9
sa(dp2013
g6
VHey.
p2014
sg8
g9
sg10
VJOSH
p2015
sg12
g9
sa(dp2016
g6
VHey. What are you doing?
p2017
sg8
g9
sg10
VCHARLIE
p2018
sg12
g13
sa(dp2019
g6
VF.E.C. Where's the President?
p2020
sg8
g9
sg10
VJOSH
p2021
sg12
g9
sa(dp2022
g6
VHe went to the residence about an hour ago. So, I couldn't help noticing coming over here that the light in Joey Lucas's office is on.
p2023
sg8
g9
sg10
VCHARLIE
p2024
sg12
g9
sa(dp2025
g6
VShe's still here?
p2026
sg8
g9
sg10
VJOSH
p2027
sg12
g19
sa(dp2028
g6
VYeah.
p2029
sg8
g9
sg10
VCHARLIE
p2030
sg12
g9
sa(dp2031
g6
VWhy are you telling me?
p2032
sg8
g9
sg10
VJOSH
p2033
sg12
g13
sa(dp2034
g6
VShe's a fine looking...
p2035
sg8
g9
sg10
VCHARLIE
p2036
sg12
g19
sa(dp2037
g6
VCharlie.
p2038
sg8
g9
sg10
VJOSH
p2039
sg12
g9
sa(dp2040
g6
VOkay.
p2041
sg8
g9
sg10
VCHARLIE
p2042
sg12
g9
sa(dp2043
g6
VHave a good night.
p2044
sg8
g19
sg10
VJOSH
p2045
sg12
g9
sa(dp2046
g6
VYou give her a little something.
p2047
sg8
g9
sg10
VCHARLIE
p2048
sg12
g9
sa(dp2049
g6
VYeah.
p2050
sg8
g9
sg10
VJOSH
p2051
sg12
g9
sa(dp2052
g6
V"Here this is for you, cause it's your first day. You don't know anybody." Bam -- you give it to her. You say something nice.
p2053
sg8
g9
sg10
VCHARLIE
p2054
sg12
g9
sa(dp2055
g6
V[waves to Charlie] See you tomorrow.
p2056
sg8
g9
sg10
VJOSH
p2057
sg12
g9
sa(dp2058
g6
VTake it easy.
p2059
sg8
g9
sg10
VCHARLIE
p2060
sg12
g9
sa(dp2061
g6
VHey, Charlie.
p2062
sg8
g9
sg10
VSAM
p2063
sg12
g9
sa(dp2064
g6
VHey.
p2065
sg8
g9
sg10
VCHARLIE
p2066
sg12
g9
sa(dp2067
g6
V[to Sam] Tell him what you told me.
p2068
sg8
g9
sg10
VTOBY
p2069
sg12
g9
sa(dp2070
g6
VSee... uh... I still don't understand.
p2071
sg8
g9
sg10
VSAM
p2072
sg12
g9
sa(dp2073
g6
VTell him what you told me.
p2074
sg8
g9
sg10
VTOBY
p2075
sg12
g9
sa(dp2076
g6
VSteve Onorato came to see me this afternoon. We had lunch.
p2077
sg8
g9
sg10
VSAM
p2078
sg12
g9
sa(dp2079
g6
VOnorato came to you?
p2080
sg8
g9
sg10
VJOSH
p2081
sg12
g9
sa(dp2082
g6
VYeah.
p2083
sg8
g9
sg10
VSAM
p2084
sg12
g9
sa(dp2085
g6
VTell him what he said.
p2086
sg8
g9
sg10
VTOBY
p2087
sg12
g9
sa(dp2088
g6
VHe said that if we dropped F.E.C., he could warm things up for drugs.
p2089
sg8
g9
sg10
VSAM
p2090
sg12
g9
sa(dp2091
g6
VI don't understand.
p2092
sg8
g9
sg10
VSAM
p2093
sg12
g13
sa(dp2094
g6
VHe said that?
p2095
sg8
g9
sg10
VJOSH
p2096
sg12
g9
sa(dp2097
g6
VHe even pointed out to Sam that Sam was working on drugs for the White House.
p2098
sg8
g19
sg10
VTOBY
p2099
sg12
g9
sa(dp2100
g6
V[grinning] You made the big time, Sam.
p2101
sg8
g9
sg10
VJOSH
p2102
sg12
g9
sa(dp2103
g6
VWhat's going on?
p2104
sg8
g9
sg10
VSAM
p2105
sg12
g9
sa(dp2106
g6
VHe knows about Laurie.
p2107
sg8
g9
sg10
VJOSH
p2108
sg12
g19
sa(dp2109
g6
VWhat do you mean?
p2110
sg8
g9
sg10
VSAM
p2111
sg12
g9
sa(dp2112
g6
VHe knows you're friends with a call girl.
p2113
sg8
g9
sg10
VTOBY
p2114
sg12
g9
sa(dp2115
g6
VWhat does that have to do with anything?
p2116
sg8
g9
sg10
VSAM
p2117
sg12
g13
sa(dp2118
g6
VHe wants to move you out to the front of the field so he can drop Laurie on you.
p2119
sg8
g9
sg10
VJOSH
p2120
sg12
g9
sa(dp2121
g6
VAre you serious?
p2122
sg8
g9
sg10
VSAM
p2123
sg12
g9
sa(dp2124
g6
VYeah.
p2125
sg8
g9
sg10
VJOSH
p2126
sg12
g9
sa(dp2127
g6
VAre you serious?!
p2128
sg8
g9
sg10
VSAM
p2129
sg12
g9
sa(dp2130
g6
VIt's okay, Sam. You haven't done anything wrong.
p2131
sg8
g13
sg10
VJOSH
p2132
sg12
g9
sa(dp2133
g6
VOh, I know I haven't done anything wrong. Are you serious?
p2134
sg8
g13
sg10
VSAM
p2135
sg12
g13
sa(dp2136
g6
V[chuckling] We're serious. Don't worry about it.
p2137
sg8
g13
sg10
VTOBY
p2138
sg12
g13
sa(dp2139
g6
VHe... are you saying, he... he tried to practice on my...
p2140
sg8
g19
sg10
VSAM
p2141
sg12
g9
sa(dp2142
g6
V...credulous simplicity?
p2143
sg8
g9
sg10
VTOBY
p2144
sg12
g9
sa(dp2145
g6
VYeah.
p2146
sg8
g9
sg10
VSAM
p2147
sg12
g9
sa(dp2148
g6
VYeah.
p2149
sg8
g9
sg10
VTOBY
p2150
sg12
g9
sa(dp2151
g6
VAlright. I want to know what I can do right now.
p2152
sg8
g9
sg10
VSAM
p2153
sg12
g9
sa(dp2154
g6
VSam.
p2155
sg8
g9
sg10
VJOSH
p2156
sg12
g9
sa(dp2157
g6
VNo, right now! At 11:35. I want to know what I can do.
p2158
sg8
g9
sg10
VSAM
p2159
sg12
g9
sa(dp2160
g6
VTake it easy.
p2161
sg8
g9
sg10
VJOSH
p2162
sg12
g9
sa(dp2163
g6
VI won't take it easy! Give me the phone. [reaches for the phone] I'm gonna call the Senator and I'm gonna tell him that he can shove his legislative agenda up his ass!
p2164
sg8
g13
sg10
VSAM
p2165
sg12
g9
sa(dp2166
g6
VI've already done that.
p2167
sg8
g9
sg10
VJOSH
p2168
sg12
g13
sa(dp2169
g6
VI'll do it again.
p2170
sg8
g9
sg10
VSAM
p2171
sg12
g9
sa(dp2172
g6
VYou know what this is like? This is like The Godfather. When Pacino tells James Caan that he's gonna kill the cop. It's a lot like that scene, only not really.
p2173
sg8
g13
sg10
VJOSH
p2174
sg12
g9
sa(dp2175
g6
VDid Leo go home?
p2176
sg8
g9
sg10
VTOBY
p2177
sg12
g9
sa(dp2178
g6
VHe's... he's still here somewhere.
p2179
sg8
g9
sg10
VJOSH
p2180
sg12
g9
sa(dp2181
g6
VHe's in the Residence.
p2182
sg8
g9
sg10
VSAM
p2183
sg12
g9
sa(dp2184
g6
VIt is like that scene. I'm James Caan. [to Sam] You're...you're Al Pacino.
p2185
sg8
g9
sg10
VJOSH
p2186
sg12
g9
sa(dp2187
g6
VLet's go.
p2188
sg8
g9
sg10
VTOBY
p2189
sg12
g9
sa(dp2190
g6
VToby, you're the guy who shows Pacino how to make tomato sauce.
p2191
sg8
g9
sg10
VJOSH
p2192
sg12
g9
sa(dp2193
g6
V[to Sam] Let's go.
p2194
sg8
g9
sg10
VTOBY
p2195
sg12
g9
sa(dp2196
g6
VI'll be right behind, I'm gonna pick up the late wires.
p2197
sg8
g9
sg10
VJOSH
p2198
sg12
g13
sa(dp2199
g6
VHello.
p2200
sg8
g9
sg10
VJOSH
p2201
sg12
g9
sa(dp2202
g6
VHi.
p2203
sg8
g9
sg10
VJOEY
p2204
sg12
g9
sa(dp2205
g6
VHey, Kenny.
p2206
sg8
g9
sg10
VJOSH
p2207
sg12
g19
sa(dp2208
g6
VHey, Josh.
p2209
sg8
g9
sg10
VKENNY
p2210
sg12
g19
sa(dp2211
g6
VI saw the light was on. You guys are here late.
p2212
sg8
g13
sg10
VJOSH
p2213
sg12
g9
sa(dp2214
g6
VI brought you a coffee mug.
p2215
sg8
g9
sg10
VJOSH
p2216
sg12
g9
sa(dp2217
g6
VJust as a thing, cause you don't know anybody. It's got... uh... a picture of the White House. It says, 'The White House.' Seal of the President. It's a White House coffee mug.
p2218
sg8
g9
sg10
VJOSH
p2219
sg12
g9
sa(dp2220
g6
VThank you.
p2221
sg8
g9
sg10
VJOEY
p2222
sg12
g19
sa(dp2223
g6
VKenny, can you give us a second?
p2224
sg8
g9
sg10
VJOSH
p2225
sg12
g19
sa(dp2226
g6
VOh, sure. [signing to Joey] I'm going to step outside. [walks away]
p2227
sg8
g9
sg10
VKENNY
p2228
sg12
g9
sa(dp2229
g6
VI wore this suit, special today. This isn't my regular Tuesday suit.
p2230
sg8
g19
sg10
VJOSH
p2231
sg12
g13
sa(dp2232
g6
VYou have a regular Tuesday suit?
p2233
sg8
g9
sg10
VJOEY
p2234
sg12
g9
sa(dp2235
g6
VNo.
p2236
sg8
g9
sg10
VJOSH
p2237
sg12
g9
sa(dp2238
g6
VFor me?
p2239
sg8
g9
sg10
VJOEY
p2240
sg12
g13
sa(dp2241
g6
VYeah... So... Okay, I gotta go. [smiles wide as Josh leaves]
p2242
sg8
g9
sg10
VJOSH
p2243
sg12
g19
sa(dp2244
g6
VSo... I don't want to be Labor the point, though. I... I do think this is understandable. I feel a little self-conscience coming down the mountain on drugs two months after I announce I was a recovering drug addict. What do you think?
p2245
sg8
g9
sg10
VLEO
p2246
sg12
g13
sa(dp2247
g6
VAbout what?
p2248
sg8
g9
sg10
VBARTLET
p2249
sg12
g9
sa(dp2250
g6
VWhat I just said.
p2251
sg8
g9
sg10
VLEO
p2252
sg12
g9
sa(dp2253
g6
VWell, I wasn't listening to a lot of it.
p2254
sg8
g9
sg10
VBARTLET
p2255
sg12
g13
sa(dp2256
g6
VSir...
p2257
sg8
g9
sg10
VLEO
p2258
sg12
g9
sa(dp2259
g6
VLeo, if there's anyone qualified to talk about the benefits of treatment vs. criminal action, it's you. Is there anyone whose life would be better right now, if you'd had gone to jail instead of rehab?
p2260
sg8
g19
sg10
VBARTLET
p2261
sg12
g9
sa(dp2262
g6
VNo.
p2263
sg8
g9
sg10
VLEO
p2264
sg12
g9
sa(dp2265
g6
VThank you. Is there anything else?
p2266
sg8
g9
sg10
VBARTLET
p2267
sg12
g9
sa(dp2268
g6
VApparently there is.
p2269
sg8
g9
sg10
VBARTLET
p2270
sg12
g13
sa(dp2271
g6
V[enters] Mr. President.
p2272
sg8
g9
sg10
VC.J.
p2273
sg12
g9
sa(dp2274
g6
VYeah.
p2275
sg8
g9
sg10
VBARTLET
p2276
sg12
g9
sa(dp2277
g6
VI'm sorry. I heard Leo was here, I assumed you were awake.
p2278
sg8
g9
sg10
VC.J.
p2279
sg12
g13
sa(dp2280
g6
VI am.
p2281
sg8
g9
sg10
VBARTLET
p2282
sg12
g13
sa(dp2283
g6
VI haven't seen you all day, I just... wanted to apologize for the gaffe at the briefing last night.
p2284
sg8
g19
sg10
VC.J.
p2285
sg12
g9
sa(dp2286
g6
VYou fixed it this afternoon, right?
p2287
sg8
g9
sg10
VBARTLET
p2288
sg12
g9
sa(dp2289
g6
VYeah.
p2290
sg8
g9
sg10
VC.J.
p2291
sg12
g9
sa(dp2292
g6
VThen let's move on.
p2293
sg8
g9
sg10
VBARTLET
p2294
sg12
g9
sa(dp2295
g6
VI do apologize, sir.
p2296
sg8
g19
sg10
VC.J.
p2297
sg12
g19
sa(dp2298
g6
VNo need to apologize, but I accept your apology and now I'm ready, if not eager, to move on.
p2299
sg8
g19
sg10
VBARTLET
p2300
sg12
g9
sa(dp2301
g6
VMr. President?
p2302
sg8
g9
sg10
VSAM
p2303
sg12
g9
sa(dp2304
g6
VHow you doin'?
p2305
sg8
g9
sg10
VBARTLET
p2306
sg12
g9
sa(dp2307
g6
VYou were sleeping?
p2308
sg8
g9
sg10
VSAM
p2309
sg12
g9
sa(dp2310
g6
VNot for a little while now.
p2311
sg8
g9
sg10
VBARTLET
p2312
sg12
g9
sa(dp2313
g6
VThis is... I say, this is great, Mr. President, because usually you have a hard time getting to sleep before one or two.
p2314
sg8
g9
sg10
VSAM
p2315
sg12
g9
sa(dp2316
g6
VNot tonight.
p2317
sg8
g9
sg10
VBARTLET
p2318
sg12
g9
sa(dp2319
g6
VThat's got to feel good.
p2320
sg8
g19
sg10
VSAM
p2321
sg12
g9
sa(dp2322
g6
VGuys, let me tell you what I would like to have happen, right now.
p2323
sg8
g9
sg10
VBARTLET
p2324
sg12
g9
sa(dp2325
g6
V[enters] Good evening, Mr. President.
p2326
sg8
g9
sg10
VJOSH
p2327
sg12
g9
sa(dp2328
g6
VJosh walking in the door wasn't even close.
p2329
sg8
g9
sg10
VBARTLET
p2330
sg12
g9
sa(dp2331
g6
VHow you doing, tonight?
p2332
sg8
g9
sg10
VJOSH
p2333
sg12
g9
sa(dp2334
g6
VI'm fine, thanks. How you doing?
p2335
sg8
g9
sg10
VBARTLET
p2336
sg12
g13
sa(dp2337
g6
VGood! I gave Joey Lucas a coffee mug. She doesn't know anybody here and she's already working hard. She's very committed. I think I did the right thing.
p2338
sg8
g19
sg10
VJOSH
p2339
sg12
g9
sa(dp2340
g6
VSee, the part I don't understand is, I got like, 24 armed guards right outside my bedroom door...
p2341
sg8
g9
sg10
VBARTLET
p2342
sg12
g9
sa(dp2343
g6
VMr. President, after a day of meetings, are you any closer to a decision on drugs?
p2344
sg8
g9
sg10
VSAM
p2345
sg12
g9
sa(dp2346
g6
VI'm a day closer. There'll be more meetings tomorrow. In the meantime, everybody calm down. Leo's got your engines fired like you're running Daytona. That's fine. Keep them there. Guess what? Mistakes are gonna be made. Minimize them, fix them, move on. Kiefer's numbers got you scared? Listen to me. I have never lost an election in my life. We do this right, people are going to respond. You all had a good day.
p2347
sg8
g19
sg10
VBARTLET
p2348
sg12
g9
sa(dp2349
g6
VWe should go and leave you now.
p2350
sg8
g13
sg10
VJOSH
p2351
sg12
g9
sa(dp2352
g6
VYou guys should feel free to do this when my wife is here.
p2353
sg8
g9
sg10
VBARTLET
p2354
sg12
g9
sa(dp2355
g6
VSir, something has come up and frankly, it's got me as hot as a pistol. Apparently....
p2356
sg8
g13
sg10
VSAM
p2357
sg12
g13
sa(dp2358
g6
VSam.
p2359
sg8
g9
sg10
VJOSH
p2360
sg12
g9
sa(dp2361
g6
VWe can talk about this tomorrow.
p2362
sg8
g19
sg10
VSAM
p2363
sg12
g9
sa(dp2364
g6
VEverybody. Mandy was doing her job. It's time to let her out of the doghouse.
p2365
sg8
g19
sg10
VBARTLET
p2366
sg12
g9
sa(dp2367
g6
VThat's me.
p2368
sg8
g9
sg10
VLEO
p2369
sg12
g13
sa(dp2370
g6
V[to Leo] She was doing her job. C.J.?
p2371
sg8
g19
sg10
VBARTLET
p2372
sg12
g9
sa(dp2373
g6
VYes, sir.
p2374
sg8
g19
sg10
VC.J.
p2375
sg12
g19
sa(dp2376
g6
VSo was Danny.
p2377
sg8
g9
sg10
VBARTLET
p2378
sg12
g13
sa(dp2379
g6
VYes, sir.
p2380
sg8
g19
sg10
VC.J.
p2381
sg12
g19
sa(dp2382
g6
VGood night.
p2383
sg8
g9
sg10
VBARTLET
p2384
sg12
g9
sa(dp2385
g6
VMr. President.
p2386
sg8
g9
sg10
VTOBY
p2387
sg12
g9
sa(dp2388
g6
VWe were almost done.
p2389
sg8
g9
sg10
VBARTLET
p2390
sg12
g13
sa(dp2391
g6
VI... met with Congresswoman Wyatt today.
p2392
sg8
g9
sg10
VTOBY
p2393
sg12
g19
sa(dp2394
g6
VWhen you were married to her, did you call her Congresswoman Wyatt?
p2395
sg8
g9
sg10
VBARTLET
p2396
sg12
g9
sa(dp2397
g6
VNo, sir.
p2398
sg8
g19
sg10
VTOBY
p2399
sg12
g9
sa(dp2400
g6
VSometimes I call my wife, Dr. Bartlet.
p2401
sg8
g9
sg10
VBARTLET
p2402
sg12
g9
sa(dp2403
g6
VI call her Andy or uh... Andrea.
p2404
sg8
g9
sg10
VTOBY
p2405
sg12
g9
sa(dp2406
g6
VOkay.
p2407
sg8
g9
sg10
VBARTLET
p2408
sg12
g9
sa(dp2409
g6
VMandatory Minimums.
p2410
sg8
g9
sg10
VTOBY
p2411
sg12
g9
sa(dp2412
g6
VYou're whupped, my friend.
p2413
sg8
g19
sg10
VBARTLET
p2414
sg12
g9
sa(dp2415
g6
VSir.
p2416
sg8
g9
sg10
VTOBY
p2417
sg12
g9
sa(dp2418
g6
VNo, she's been talking to your for a year about Mandatory Minimums. You've been saying no. Looks like we know who wears the pants in the Ziegler family.
p2419
sg8
g9
sg10
VBARTLET
p2420
sg12
g9
sa(dp2421
g6
VYou call your wife 'Dr. Bartlet'?
p2422
sg8
g9
sg10
VTOBY
p2423
sg12
g9
sa(dp2424
g6
VJust for the turn-on.
p2425
sg8
g9
sg10
VBARTLET
p2426
sg12
g13
sa(dp2427
g6
VUh... the thing is, she's right.
p2428
sg8
g9
sg10
VTOBY
p2429
sg12
g9
sa(dp2430
g6
VAndy.
p2431
sg8
g9
sg10
VBARTLET
p2432
sg12
g9
sa(dp2433
g6
VMandatory Minimums are considerably higher for crack than for powder cocaine.
p2434
sg8
g13
sg10
VTOBY
p2435
sg12
g13
sa(dp2436
g6
VYes.
p2437
sg8
g9
sg10
VBARTLET
p2438
sg12
g19
sa(dp2439
g6
VThe vast majority of crack users are black. The vast majority of drug users are white. The Mandatory Minimums are racist.
p2440
sg8
g19
sg10
VTOBY
p2441
sg12
g9
sa(dp2442
g6
VYes, they are.
p2443
sg8
g9
sg10
VBARTLET
p2444
sg12
g19
sa(dp2445
g6
VIt should be part of the discussion.
p2446
sg8
g19
sg10
VTOBY
p2447
sg12
g9
sa(dp2448
g6
VAnd it will be.
p2449
sg8
g9
sg10
VBARTLET
p2450
sg12
g19
sa(dp2451
g6
VGood... uh... good night.
p2452
sg8
g19
sg10
VTOBY
p2453
sg12
g9
sa(dp2454
g6
V[to Leo] I'm sleeping better. [beat] When I sleep, I dream about a great discussion with experts and ideas and diction and energy and honesty. And when I wake up, I think, "I can sell that."
p2455
sg8
g19
sg10
VBARTLET
p2456
sg12
g9
sa(dp2457
g6
VGood night, Mr. President.
p2458
sg8
g9
sg10
VLEO
p2459
sg12
g9
sa(dp2460
g6
VGood night.
p2461
sg8
g9
sg10
VBARTLET
p2462
sg12
g9
sas.