(dp0
S'season'
p1
I1
sS'episode'
p2
I9
sS'script'
p3
(lp4
(dp5
S'text'
p6
V[into phone] Yes... Yes... Yes... So are you prepared at this point to...
p7
sS'character'
p8
VJOSH
p9
sS'maxent_score'
p10
S'positive'
p11
sa(dp12
g6
V[into phone] Thank you. Thank you, sir. Uh, if you'll sit by the phone for a few minutes, you can expect a call from the president. Thank you again. [hangs up the phone slowly]
p13
sg8
VJOSH
p14
sg10
S'neutral'
p15
sa(dp16
g6
VYES!
p17
sg8
VC.J.
p18
sg10
g15
sa(dp19
g6
VIt's done.
p20
sg8
VJOSH
p21
sg10
g15
sa(dp22
g6
VWe did it!
p23
sg8
VC.J.
p24
sg10
g15
sa(dp25
g6
VIt is done!
p26
sg8
VJOSH
p27
sg10
g15
sa(dp28
g6
VIt's done!
p29
sg8
VC.J.
p30
sg10
g15
sa(dp31
g6
VWho did it?
p32
sg8
VDONNA
p33
sg10
g15
sa(dp34
g6
VWe did it!
p35
sg8
VC.J.
p36
sg10
g15
sa(dp37
g6
VI did it! C.J. was on the phone with her fingers crossed.
p38
sg8
VJOSH
p39
sg10
g15
sa(dp40
g6
VAll you did was just one phone call.
p41
sg8
VC.J.
p42
sg10
g11
sa(dp43
g6
VIt was a series of phone calls, which I masterminded, while I'm not one to be selfish about credit, I think it is important to know that it is done, and I DID IT! Donna, call Toby. Call Sam. Call Leo. Call the president. Tell them I'm on my way over.
p44
sg8
VJOSH
p45
sg10
g15
sa(dp46
g6
VCongratulations!
p47
sg8
VC.J.
p48
sg10
g15
sa(dp49
g6
VNothing to the press.
p50
sg8
VJOSH
p51
sg10
g15
sa(dp52
g6
VYes. [starts to walk away]
p53
sg8
VC.J.
p54
sg10
g15
sa(dp55
g6
VClaudia Jean?
p56
sg8
VJOSH
p57
sg10
g15
sa(dp58
g6
VYeah?
p59
sg8
VC.J.
p60
sg10
g15
sa(dp61
g6
VWe did it!
p62
sg8
VJOSH
p63
sg10
g15
sa(dp64
g6
VYeah!
p65
sg8
VC.J.
p66
sg10
g15
sa(dp67
g6
VWait!
p68
sg8
VDONNA
p69
sg10
g15
sa(dp70
g6
VWhat?
p71
sg8
VJOSH
p72
sg10
g15
sa(dp73
g6
VDon't you want to know about the banging in your office?
p74
sg8
VDONNA
p75
sg10
g15
sa(dp76
g6
VBanging in my office?
p77
sg8
VJOSH
p78
sg10
g15
sa(dp79
g6
VThey've been at it all morning.
p80
sg8
VDONNA
p81
sg10
g15
sa(dp82
g6
VBanging?
p83
sg8
VJOSH
p84
sg10
g15
sa(dp85
g6
VYeah.
p86
sg8
VDONNA
p87
sg10
g15
sa(dp88
g6
VI don't know what you're talking about.
p89
sg8
VJOSH
p90
sg10
g15
sa(dp91
g6
VJosh, there's a loud banging or thumping coming from the floor above your office.
p92
sg8
VDONNA
p93
sg10
g15
sa(dp94
g6
VI didn't notice.
p95
sg8
VJOSH
p96
sg10
g15
sa(dp97
g6
VHow could you not notice?
p98
sg8
VDONNA
p99
sg10
g15
sa(dp100
g6
VBecause I didn't, Donna. I've been on the phone for the last hour trying to seal the deal to fill a seat on the Supreme Court.
p101
sg8
VJOSH
p102
sg10
g15
sa(dp103
g6
VIt was a pretty loud banging, Josh.
p104
sg8
VDONNA
p105
sg10
g15
sa(dp106
g6
VYou got to understand I'm talking about the United States Supreme Court right?
p107
sg8
VJOSH
p108
sg10
g15
sa(dp109
g6
VYes.
p110
sg8
VDONNA
p111
sg10
g11
sa(dp112
g6
VOkay.
p113
sg8
VJOSH
p114
sg10
g15
sa(dp115
g6
VWho da man?
p116
sg8
VSAM
p117
sg10
g15
sa(dp118
g6
VYou da man!
p119
sg8
VTOBY
p120
sg10
g15
sa(dp121
g6
VThis is just gross.
p122
sg8
VDONNA
p123
sg10
g15
sa(dp124
g6
VWait there for me.
p125
sg8
VJOSH
p126
sg10
g15
sa(dp127
g6
VGood morning, Mrs. Landingham.
p128
sg8
VTOBY
p129
sg10
g15
sa(dp130
g6
VGood morning!
p131
sg8
VJOSH
p132
sg10
g15
sa(dp133
g6
VGood morning, indeed.
p134
sg8
VSAM
p135
sg10
g15
sa(dp136
g6
VYes, Mrs. Landingham?
p137
sg8
VJOSH
p138
sg10
g11
sa(dp139
g6
VWell, that depends on your answer to this question, Mrs. Landingham: Who da man?
p140
sg8
VJOSH
p141
sg10
g15
sa(dp142
g6
VHmmm... Who da man?
p143
sg8
VJOSH
p144
sg10
g15
sa(dp145
g6
VYou da men.
p146
sg8
VTOBY
p147
sg10
g15
sa(dp148
g6
VThank you.
p149
sg8
VJOSH
p150
sg10
g11
sa(dp151
g6
VI heard we may have...
p152
sg8
VBARTLET
p153
sg10
g15
sa(dp154
g6
VYes sir.
p155
sg8
VJOSH
p156
sg10
g11
sa(dp157
g6
VI can call him?
p158
sg8
VBARTLET
p159
sg10
g15
sa(dp160
g6
VHe's waiting for you sir.
p161
sg8
VJOSH
p162
sg10
g15
sa(dp163
g6
VIt's done?
p164
sg8
VBARTLET
p165
sg10
g15
sa(dp166
g6
VDone.
p167
sg8
VJOSH
p168
sg10
g15
sa(dp169
g6
VYou got yourself a Supreme Court nominee, Mr. President.
p170
sg8
VLEO
p171
sg10
g15
sa(dp172
g6
VThis is huge. Which one of you is the man?
p173
sg8
VBARTLET
p174
sg10
g15
sa(dp175
g6
VOn this one, we'd like to think of ourselves collectively as the men, sir.
p176
sg8
VTOBY
p177
sg10
g15
sa(dp178
g6
VMrs. Landingham, let's make the phone call!
p179
sg8
VBARTLET
p180
sg10
g15
sa(dp181
g6
VCongratulations.
p182
sg8
VJOSH
p183
sg10
g15
sa(dp184
g6
VThank you. You too. [They shake hands.]
p185
sg8
VBARTLET
p186
sg10
g15
sa(dp187
g6
VWell done, sir.
p188
sg8
VSAM
p189
sg10
g15
sa(dp190
g6
VThank you.
p191
sg8
VBARTLET
p192
sg10
g11
sa(dp193
g6
VYou guys rock.
p194
sg8
VMANDY
p195
sg10
g15
sa(dp196
g6
VOh, we really do.
p197
sg8
VSAM
p198
sg10
g15
sa(dp199
g6
VLet's bring in the chairman and the ranking member from judiciary, the leadership from both sides, and C.J. you should...where is C.J.?
p200
sg8
VLEO
p201
sg10
g15
sa(dp202
g6
V[comes in behind Leo] Right here.
p203
sg8
VC.J.
p204
sg10
g15
sa(dp205
g6
V[turns around] Oh.
p206
sg8
VLEO
p207
sg10
g15
sa(dp208
g6
VSorry.
p209
sg8
VC.J.
p210
sg10
g15
sa(dp211
g6
VYou should wear a bell around your neck, you know that?
p212
sg8
VLEO
p213
sg10
g15
sa(dp214
g6
VThank you.
p215
sg8
VC.J.
p216
sg10
g11
sa(dp217
g6
VSo what do we want to we do?
p218
sg8
VLEO
p219
sg10
g15
sa(dp220
g6
VC.J. will let the press know that the president will introduce his nominee in an east room press ceremony Thursday, 5 p.m.
p221
sg8
VTOBY
p222
sg10
g15
sa(dp223
g6
VCan we do it on Friday, and give ourselves more time?
p224
sg8
VJOSH
p225
sg10
g15
sa(dp226
g6
VThursday.
p227
sg8
VTOBY
p228
sg10
g15
sa(dp229
g6
VWhy?
p230
sg8
VJOSH
p231
sg10
g15
sa(dp232
g6
VBecause that's when people watch T.V.
p233
sg8
VSAM
p234
sg10
g15
sa(dp235
g6
VWe can do this in four days?
p236
sg8
VMANDY
p237
sg10
g15
sa(dp238
g6
VYep.
p239
sg8
VTOBY
p240
sg10
g15
sa(dp241
g6
VAre you sure?
p242
sg8
VLEO
p243
sg10
g15
sa(dp244
g6
VYep.
p245
sg8
VTOBY
p246
sg10
g15
sa(dp247
g6
VToby, you're running the show.
p248
sg8
VLEO
p249
sg10
g15
sa(dp250
g6
VI know.
p251
sg8
VTOBY
p252
sg10
g15
sa(dp253
g6
VPut the ball in the hole.
p254
sg8
VLEO
p255
sg10
g15
sa(dp256
g6
VIt's done.
p257
sg8
VTOBY
p258
sg10
g15
sa(dp259
g6
VNo, it's not. So get it done.
p260
sg8
VLEO
p261
sg10
g15
sa(dp262
g6
VYes sir.
p263
sg8
VTOBY
p264
sg10
g11
sa(dp265
g6
VJosh, get me everything.
p266
sg8
VTOBY
p267
sg10
g15
sa(dp268
g6
VWe vetted him two months.
p269
sg8
VJOSH
p270
sg10
g15
sa(dp271
g6
VI'm gonna vet him four more days. I want to know every parking ticket. I want to know every girlfriend he stood up for dinner in 1953. Mandy, you're gonna roll this guy out on a show that makes the queen's coronation look like dinner theater. Sam, you're gonna write the president's introduction. You're also gonna write the Harrison's remarks.
p272
sg8
VTOBY
p273
sg10
g15
sa(dp274
g6
VHarrison's not gonna like that.
p275
sg8
VSAM
p276
sg10
g15
sa(dp277
g6
VShow him the robe he gets. He'll like it fine.
p278
sg8
VTOBY
p279
sg10
g15
sa(dp280
g6
VC.J., no leaks. If the name of this nominee is leaked out before I want it to be leaked out, I'm gonna blame you, and you're gonna find that unpleasant.
p281
sg8
VTOBY
p282
sg10
g15
sa(dp283
g6
VI got to tell you something, Toby. You're hot when you're like this.
p284
sg8
VC.J.
p285
sg10
g15
sa(dp286
g6
V[yells] I am gonna put Harrison on the Court! I swear to God I am!
p287
sg8
VTOBY
p288
sg10
g15
sa(dp289
g6
VWe meet again three hours.
p290
sg8
VJOSH
p291
sg10
g15
sa(dp292
g6
VC.J., come talk to me.
p293
sg8
VMANDY
p294
sg10
g15
sa(dp295
g6
VDid you see his face?
p296
sg8
VSAM
p297
sg10
g15
sa(dp298
g6
VWe're home.
p299
sg8
VJOSH
p300
sg10
g15
sa(dp301
g6
VI'll see you later.
p302
sg8
VSAM
p303
sg10
g15
sa(dp304
g6
VIt's a maintenance crew.
p305
sg8
VDONNA
p306
sg10
g15
sa(dp307
g6
VThe banging?
p308
sg8
VJOSH
p309
sg10
g15
sa(dp310
g6
VThey're working upstairs.
p311
sg8
VDONNA
p312
sg10
g15
sa(dp313
g6
VPeyton Cabot Harrison III.
p314
sg8
VJOSH
p315
sg10
g15
sa(dp316
g6
VYes.
p317
sg8
VDONNA
p318
sg10
g11
sa(dp319
g6
VPeyton Cabot Harrison III. He sounds like he should be a Supreme Court justice.
p320
sg8
VJOSH
p321
sg10
g15
sa(dp322
g6
VIt's a good name.
p323
sg8
VDONNA
p324
sg10
g15
sa(dp325
g6
VPhillips Exeter, Princeton, Rhodes scholar, Harvard Law Review, for which he was, oh yeah, the editor. Did I mention that he was dean of Harvard Law School? Did I mention that his father was attorney general to Eisenhower?
p326
sg8
VJOSH
p327
sg10
g15
sa(dp328
g6
VPeyton Cabot Harrison III.
p329
sg8
VDONNA
p330
sg10
g15
sa(dp331
g6
VThat's right.
p332
sg8
VJOSH
p333
sg10
g15
sa(dp334
g6
VJewish fellow?
p335
sg8
VDONNA
p336
sg10
g15
sa(dp337
g6
VYou're not gonna ruin this moment for me, Donna.
p338
sg8
VJOSH
p339
sg10
g15
sa(dp340
g6
VI'm sharing this moment with you.
p341
sg8
VDONNA
p342
sg10
g15
sa(dp343
g6
VThis is a big day for us.
p344
sg8
VJOSH
p345
sg10
g15
sa(dp346
g6
VYou're the men.
p347
sg8
VDONNA
p348
sg10
g15
sa(dp349
g6
VYou know what we're finally gonna have?
p350
sg8
VJOSH
p351
sg10
g15
sa(dp352
g6
VA waspy old man in the Supreme Court?
p353
sg8
VDONNA
p354
sg10
g15
sa(dp355
g6
VA smooth confirmation process.
p356
sg8
VJOSH
p357
sg10
g15
sa(dp358
g6
VYou think?
p359
sg8
VDONNA
p360
sg10
g15
sa(dp361
g6
VIt's gonna sail.
p362
sg8
VJOSH
p363
sg10
g15
sa(dp364
g6
VI hope so.
p365
sg8
VDONNA
p366
sg10
g15
sa(dp367
g6
VIt's gonna sail, Donna.
p368
sg8
VJOSH
p369
sg10
g15
sa(dp370
g6
VThere's many a slip twixt the tongue and the wrist, Josh.
p371
sg8
VDONNA
p372
sg10
g15
sa(dp373
g6
VYes. Well, your fortune cookie wisdom notwithstanding, it's gonna sail.
p374
sg8
VJOSH
p375
sg10
g15
sa(dp376
g6
VPlease don't get your hopes up.
p377
sg8
VDONNA
p378
sg10
g15
sa(dp379
g6
VWhy shouldn't I get my hopes up?
p380
sg8
VJOSH
p381
sg10
g15
sa(dp382
g6
VBecause when it doesn't work out, you end up drunk in my apartment in the middle of the night and yell at my roommate's cats.
p383
sg8
VDONNA
p384
sg10
g15
sa(dp385
g6
VSmooth sailing, Donna.
p386
sg8
VJOSH
p387
sg10
g15
sa(dp388
g6
VCautious optimism, Josh.
p389
sg8
VDONNA
p390
sg10
g15
sa(dp391
g6
VNothing bad is gonna happen this week.
p392
sg8
VJOSH
p393
sg10
S'negative'
p394
sa(dp395
g6
VExercise cautious optimism.
p396
sg8
VDONNA
p397
sg10
g15
sa(dp398
g6
VLook, there is no reason...
p399
sg8
VJOSH
p400
sg10
g15
sa(dp401
g6
VWell... okay.
p402
sg8
VJOSH
p403
sg10
g15
sa(dp404
g6
VYou're too young to retire, Joseph.
p405
sg8
VBARTLET
p406
sg10
g15
sa(dp407
g6
V[laughs] You're an excellent liar, Mr. President.
p408
sg8
VCROUCH
p409
sg10
g15
sa(dp410
g6
V[chuckling] Yes sir.
p411
sg8
VBARTLET
p412
sg10
g11
sa(dp413
g6
VYou're gonna go with Harrison?
p414
sg8
VCROUCH
p415
sg10
g15
sa(dp416
g6
VHe's on the short list.
p417
sg8
VBARTLET
p418
sg10
g15
sa(dp419
g6
VYeah?
p420
sg8
VCROUCH
p421
sg10
g15
sa(dp422
g6
VYeah.
p423
sg8
VBARTLET
p424
sg10
g15
sa(dp425
g6
VWith how many other names?
p426
sg8
VCROUCH
p427
sg10
g15
sa(dp428
g6
VWe'll make our announcement on Thursday.
p429
sg8
VBARTLET
p430
sg10
g15
sa(dp431
g6
VYou've decided on Harrison.
p432
sg8
VCROUCH
p433
sg10
g15
sa(dp434
g6
VI haven't made a decision yet, Joseph.
p435
sg8
VBARTLET
p436
sg10
g15
sa(dp437
g6
VYou've made the call. [beat] Did you even consider Mendoza?
p438
sg8
VCROUCH
p439
sg10
g15
sa(dp440
g6
VMendoza was on the short list.
p441
sg8
VBARTLET
p442
sg10
g15
sa(dp443
g6
VMendoza was on the short list so you can show you had an Hispanic on the short list.
p444
sg8
VCROUCH
p445
sg10
g15
sa(dp446
g6
VThat's not true, Joseph.
p447
sg8
VBARTLET
p448
sg10
g15
sa(dp449
g6
VYou ran great guns in the campaign. It was an insurgency, boy, a sight to see. And then you drove to the middle of the road the moment after you took the oath. Just the middle of the road. Nothing but a long line painted yellow.
p450
sg8
VCROUCH
p451
sg10
g15
sa(dp452
g6
VExcuse me, sir...
p453
sg8
VBARTLET
p454
sg10
g15
sa(dp455
g6
VI wanted to retire five years ago. But I waited for a Democrat. I wanted a Democrat. Hmm! And instead I got you.
p456
sg8
VCROUCH
p457
sg10
g15
sa(dp458
g6
VHey.
p459
sg8
VDANNY
p460
sg10
g15
sa(dp461
g6
VHey.
p462
sg8
VC.J.
p463
sg10
g15
sa(dp464
g6
VHow you doing?
p465
sg8
VDANNY
p466
sg10
g11
sa(dp467
g6
VI'm doing fine, Danny.
p468
sg8
VC.J.
p469
sg10
g15
sa(dp470
g6
VIs it gonna be Harrison?
p471
sg8
VDANNY
p472
sg10
g15
sa(dp473
g6
VWhy, why, oh why do you ask me questions that you absolutely, positively know I'm not gonna answer?
p474
sg8
VC.J.
p475
sg10
g11
sa(dp476
g6
VIt's a good conversation starter.
p477
sg8
VDANNY
p478
sg10
g15
sa(dp479
g6
VI can't go out on a date with you, Danny.
p480
sg8
VC.J.
p481
sg10
g15
sa(dp482
g6
VWho asked you?
p483
sg8
VDANNY
p484
sg10
g11
sa(dp485
g6
VOkay.
p486
sg8
VC.J.
p487
sg10
g15
sa(dp488
g6
VYou think Harrison is gonna be a good Justice?
p489
sg8
VDANNY
p490
sg10
g15
sa(dp491
g6
VDanny?
p492
sg8
VC.J.
p493
sg10
g15
sa(dp494
g6
VYou see what I did there?
p495
sg8
VDANNY
p496
sg10
g15
sa(dp497
g6
VYeah.
p498
sg8
VC.J.
p499
sg10
g15
sa(dp500
g6
VI tried to trick you into confirming it was Harrison.
p501
sg8
VDANNY
p502
sg10
g15
sa(dp503
g6
VYes.
p504
sg8
VC.J.
p505
sg10
g11
sa(dp506
g6
VIt didn't work.
p507
sg8
VDANNY
p508
sg10
g15
sa(dp509
g6
VNo.
p510
sg8
VC.J.
p511
sg10
g15
sa(dp512
g6
VAnd you won't go out on a date with me, right?
p513
sg8
VDANNY
p514
sg10
g15
sa(dp515
g6
VRight.
p516
sg8
VC.J.
p517
sg10
g15
sa(dp518
g6
VOkay.
p519
sg8
VDANNY
p520
sg10
g15
sa(dp521
g6
VI suppose we should get out there.
p522
sg8
VBARTLET
p523
sg10
g15
sa(dp524
g6
VNot yet, sir.
p525
sg8
VCROUCH
p526
sg10
g11
sa(dp527
g6
VI'm sorry Joseph, but I am...
p528
sg8
VBARTLET
p529
sg10
g11
sa(dp530
g6
VI've served on this bench for 38 years. I took my seat the year you began college. I believe I've earned the right to say a word.
p531
sg8
VCROUCH
p532
sg10
g15
sa(dp533
g6
VYou've said quite a few words.
p534
sg8
VBARTLET
p535
sg10
g15
sa(dp536
g6
VNot enough.
p537
sg8
VCROUCH
p538
sg10
g394
sa(dp539
g6
VLet's get out there.
p540
sg8
VBARTLET
p541
sg10
g15
sa(dp542
g6
VTake the next few days with your staff, and give Mendoza the consideration he deserves.
p543
sg8
VCROUCH
p544
sg10
g15
sa(dp545
g6
VJoseph, when the next seat opens up, I promise you...
p546
sg8
VBARTLET
p547
sg10
g15
sa(dp548
g6
VWhen the next seat opens up, you'll be writing your memoirs.
p549
sg8
VCROUCH
p550
sg10
g15
sa(dp551
g6
VIn three years, I would hope to be running for reel...
p552
sg8
VBARTLET
p553
sg10
g15
sa(dp554
g6
VYou're gonna get beat in three years.
p555
sg8
VCROUCH
p556
sg10
g15
sa(dp557
g6
VThat's a little pessimistic, Joseph.
p558
sg8
VBARTLET
p559
sg10
g15
sa(dp560
g6
VAmerican voters like guts. And Republicans have got them. In the three years, one of them is gonna beat you.
p561
sg8
VCROUCH
p562
sg10
g15
sa(dp563
g6
VYou know I imagine the view from your largely unscrutinized place in history must be very different from mine. But I remind you sir, that I have the following things to negotiate: an opposition Congress, special interests with power beyond belief, and a bitchy media.
p564
sg8
VBARTLET
p565
sg10
g15
sa(dp566
g6
VSo did Harry Truman.
p567
sg8
VCROUCH
p568
sg10
g15
sa(dp569
g6
VWell, I am not Harry Truman.
p570
sg8
VBARTLET
p571
sg10
g15
sa(dp572
g6
VMr. Bartlet, you needn't point out that fact.
p573
sg8
VCROUCH
p574
sg10
g15
sa(dp575
g6
V[beat] It's 'Dr. Bartlet,' your honor. Now, let's go start your retirement.
p576
sg8
VBARTLET
p577
sg10
g15
sa(dp578
g6
VWant my gloves?
p579
sg8
VDANNY
p580
sg10
g15
sa(dp581
g6
VNo, thanks.
p582
sg8
VC.J.
p583
sg10
g15
sa(dp584
g6
VI asked because you look pretty cold.
p585
sg8
VDANNY
p586
sg10
g11
sa(dp587
g6
VI'm fine.
p588
sg8
VC.J.
p589
sg10
g15
sa(dp590
g6
VWhat do you suppose they're talking about in there?
p591
sg8
VDANNY
p592
sg10
g15
sa(dp593
g6
VThe president and Justice Crouch are old friends.
p594
sg8
VC.J.
p595
sg10
g15
sa(dp596
g6
VThe president and Justice Crouch can't stand each other.
p597
sg8
VDANNY
p598
sg10
g15
sa(dp599
g6
VThe man's retiring today. It's a courtesy call. What do you want from me?
p600
sg8
VC.J.
p601
sg10
g15
sa(dp602
g6
VDinner and a movie.
p603
sg8
VDANNY
p604
sg10
g15
sa(dp605
g6
VNo.
p606
sg8
VC.J.
p607
sg10
g15
sa(dp608
g6
VYou think Crouch is pissed because the president has already settled on Harrison?
p609
sg8
VDANNY
p610
sg10
g15
sa(dp611
g6
VDanny?
p612
sg8
VC.J.
p613
sg10
g15
sa(dp614
g6
VI did it again!
p615
sg8
VDANNY
p616
sg10
g15
sa(dp617
g6
VYeah.
p618
sg8
VC.J.
p619
sg10
g15
sa(dp620
g6
VBut you know what you did?
p621
sg8
VDANNY
p622
sg10
g15
sa(dp623
g6
VWhat?
p624
sg8
VC.J.
p625
sg10
g15
sa(dp626
g6
VYou outfoxed me.
p627
sg8
VDANNY
p628
sg10
g15
sa(dp629
g6
VYou're killing me. You know that, Danny.
p630
sg8
VC.J.
p631
sg10
g15
sa(dp632
g6
VHere we go.
p633
sg8
VWOMAN
p634
sg10
g15
sa(dp635
g6
VThat was inches from my head.
p636
sg8
VJOSH
p637
sg10
g15
sa(dp638
g6
VJosh.
p639
sg8
VDONNA
p640
sg10
g15
sa(dp641
g6
VInches.
p642
sg8
VJOSH
p643
sg10
g15
sa(dp644
g6
VIt was not inches.
p645
sg8
VDONNA
p646
sg10
g15
sa(dp647
g6
VIt was inches. A little bit this way, a little bit that way, bam! Massive head wound.
p648
sg8
VJOSH
p649
sg10
g15
sa(dp650
g6
VYou're fine.
p651
sg8
VDONNA
p652
sg10
g15
sa(dp653
g6
VYeah, but there for the grace of God, you know what I'm saying?
p654
sg8
VJOSH
p655
sg10
g15
sa(dp656
g6
VYes.
p657
sg8
VDONNA
p658
sg10
g11
sa(dp659
g6
VI really think if big chunks of ceiling are gonna fall on anyone... I don't know...
p660
sg8
VJOSH
p661
sg10
g15
sa(dp662
g6
VWhat?
p663
sg8
VDONNA
p664
sg10
g15
sa(dp665
g6
VIt should be you.
p666
sg8
VJOSH
p667
sg10
g15
sa(dp668
g6
VUgh. I knew you were gonna say that.
p669
sg8
VDONNA
p670
sg10
g15
sa(dp671
g6
VFrom now on, before I come in in the morning, I want you to test my office.
p672
sg8
VJOSH
p673
sg10
g15
sa(dp674
g6
V[comes up] Josh?
p675
sg8
VMANDY
p676
sg10
g394
sa(dp677
g6
VStaff in ten minutes. [leaves]
p678
sg8
VDONNA
p679
sg10
g15
sa(dp680
g6
VYou see this?
p681
sg8
VJOSH
p682
sg10
g15
sa(dp683
g6
VYeah.
p684
sg8
VMANDY
p685
sg10
g15
sa(dp686
g6
VInches from my head.
p687
sg8
VJOSH
p688
sg10
g15
sa(dp689
g6
VWhy is Peter Lillienfield holding a press conference?
p690
sg8
VMANDY
p691
sg10
g15
sa(dp692
g6
VWho cares?
p693
sg8
VJOSH
p694
sg10
g394
sa(dp695
g6
VI do. Why is Lillienfield holding a press conference?
p696
sg8
VMANDY
p697
sg10
g15
sa(dp698
g6
VI don't know.
p699
sg8
VJOSH
p700
sg10
g15
sa(dp701
g6
VIs he unhappy about something?
p702
sg8
VMANDY
p703
sg10
g15
sa(dp704
g6
VHe's always unhappy about something. [calls] Donna! Where's my east Asia memo?!
p705
sg8
VJOSH
p706
sg10
g15
sa(dp707
g6
VIt starts in two minutes.
p708
sg8
VMANDY
p709
sg10
g15
sa(dp710
g6
VWhat starts in two minutes?
p711
sg8
VJOSH
p712
sg10
g15
sa(dp713
g6
VLillienfield's press conference.
p714
sg8
VMANDY
p715
sg10
g15
sa(dp716
g6
V[shouts] It's okay, Donna. I'll just come and get it myself!
p717
sg8
VJOSH
p718
sg10
g15
sa(dp719
g6
VJosh?
p720
sg8
VMANDY
p721
sg10
g15
sa(dp722
g6
VMandy.
p723
sg8
VJOSH
p724
sg10
g15
sa(dp725
g6
VI'm just saying that we don't need any surprises today.
p726
sg8
VMANDY
p727
sg10
g15
sa(dp728
g6
VWe're not gonna have any surprises today.
p729
sg8
VJOSH
p730
sg10
g15
sa(dp731
g6
VI'm putting on a show. I don't want to get upstaged.
p732
sg8
VMANDY
p733
sg10
g15
sa(dp734
g6
VYou're not gonna get upstaged.
p735
sg8
VJOSH
p736
sg10
g15
sa(dp737
g6
VHere.
p738
sg8
VDONNA
p739
sg10
g15
sa(dp740
g6
VThank you.
p741
sg8
VJOSH
p742
sg10
g11
sa(dp743
g6
VYou're welcome.
p744
sg8
VDONNA
p745
sg10
g15
sa(dp746
g6
VYou should be nice to me. I could be dead you know.
p747
sg8
VJOSH
p748
sg10
g15
sa(dp749
g6
VI don't have that kind of luck. [leaves]
p750
sg8
VDONNA
p751
sg10
g15
sa(dp752
g6
VYeah?
p753
sg8
VSAM
p754
sg10
g15
sa(dp755
g6
VI would like you to play out that as a lifelong Democrat, he clerked for a Republican. I would like you to play DOWN that he'd never written a judicial opinion on abortion or revealed his thinking on Roe.
p756
sg8
VTOBY
p757
sg10
g15
sa(dp758
g6
VI'm already there.
p759
sg8
VSAM
p760
sg10
g15
sa(dp761
g6
VWell, thank you.
p762
sg8
VTOBY
p763
sg10
g11
sa(dp764
g6
VWhat's this?
p765
sg8
VSAM
p766
sg10
g15
sa(dp767
g6
VLillienfield's talking about something that's bothering him today.
p768
sg8
VTOBY
p769
sg10
g15
sa(dp770
g6
VWHAT could possibly be less interesting? I'll be in my office.
p771
sg8
VSAM
p772
sg10
g15
sa(dp773
g6
VOkay.
p774
sg8
VTOBY
p775
sg10
g15
sa(dp776
g6
V[into phone] Get her.
p777
sg8
VTOBY
p778
sg10
g15
sa(dp779
g6
VC.J.?
p780
sg8
VCAROL
p781
sg10
g15
sa(dp782
g6
VTell him I'm watching.
p783
sg8
VC.J.
p784
sg10
g15
sa(dp785
g6
VOne in three?
p786
sg8
VLEO
p787
sg10
g15
sa(dp788
g6
VYes.
p789
sg8
VC.J.
p790
sg10
g11
sa(dp791
g6
VHe said one in three White House staffers were on drugs?
p792
sg8
VLEO
p793
sg10
g15
sa(dp794
g6
VYes.
p795
sg8
VC.J.
p796
sg10
g11
sa(dp797
g6
VWhere does he get these stats?
p798
sg8
VLEO
p799
sg10
g15
sa(dp800
g6
VLeo...
p801
sg8
VC.J.
p802
sg10
g15
sa(dp803
g6
VI mean where does he pull them from?
p804
sg8
VLEO
p805
sg10
g15
sa(dp806
g6
VOut of the clear blue sky, but that doesn't matter.
p807
sg8
VC.J.
p808
sg10
g15
sa(dp809
g6
VIs somebody bringing me a tape of this?
p810
sg8
VLEO
p811
sg10
g15
sa(dp812
g6
VThey're getting it. [leaves]
p813
sg8
VMARGARET
p814
sg10
g15
sa(dp815
g6
VThis isn't happening to me.
p816
sg8
VMANDY
p817
sg10
g15
sa(dp818
g6
VNothing's happening. Stay cool.
p819
sg8
VLEO
p820
sg10
g15
sa(dp821
g6
V[pops his head and walks in] Is it possible for Peter Lillienfield to be a bigger jackass? You think if he tried hard, there's room for him to be a slightly bigger horse's ass than he's being right now?
p822
sg8
VSAM
p823
sg10
g15
sa(dp824
g6
VAt some point, you hit your head in the ceiling, don't you?
p825
sg8
VC.J.
p826
sg10
g15
sa(dp827
g6
VI think there's unexplored potential.
p828
sg8
VSAM
p829
sg10
g15
sa(dp830
g6
V[comes in] 'Sup?
p831
sg8
VJOSH
p832
sg10
g15
sa(dp833
g6
VJosh.
p834
sg8
VMANDY
p835
sg10
g15
sa(dp836
g6
VFive White House staffers in the room. I would like to say to the 1.6 of you who are stoned right now, that it's time to share.
p837
sg8
VJOSH
p838
sg10
g15
sa(dp839
g6
VThis isn't funny, Josh.
p840
sg8
VMANDY
p841
sg10
g15
sa(dp842
g6
VMandy, if you can't laugh at this, then you're just not having enough fun in show business.
p843
sg8
VJOSH
p844
sg10
g15
sa(dp845
g6
VJosh?
p846
sg8
VMANDY
p847
sg10
g15
sa(dp848
g6
VHe's a featherweight, Mandy. He's a hairdo.
p849
sg8
VJOSH
p850
sg10
g15
sa(dp851
g6
VI think if he put his shoulder into it, he could be a slightly bigger gasbag.
p852
sg8
VSAM
p853
sg10
g15
sa(dp854
g6
VYeah.
p855
sg8
VJOSH
p856
sg10
g15
sa(dp857
g6
VYou know, if he really reach for the stars.
p858
sg8
VSAM
p859
sg10
g15
sa(dp860
g6
V[quickly walks in] Good morning.
p861
sg8
VTOBY
p862
sg10
g15
sa(dp863
g6
VHey.
p864
sg8
VC.J.
p865
sg10
g15
sa(dp866
g6
VThere's no way you saw this coming?
p867
sg8
VTOBY
p868
sg10
g15
sa(dp869
g6
VToby...
p870
sg8
VLEO
p871
sg10
g15
sa(dp872
g6
VLeo, I know I'm in your office. Forgive me. [yells] But nobody saw this coming?!
p873
sg8
VTOBY
p874
sg10
g15
sa(dp875
g6
VYeah. I can't believe my psychic didn't tell me, Toby. Rest assured, I'm gonna get my twenty bucks back.
p876
sg8
VC.J.
p877
sg10
g15
sa(dp878
g6
VShort-term, long-term?
p879
sg8
VLEO
p880
sg10
g15
sa(dp881
g6
VShort-term nothing.
p882
sg8
VJOSH
p883
sg10
g15
sa(dp884
g6
VI can't go with nothing.
p885
sg8
VC.J.
p886
sg10
g15
sa(dp887
g6
VWhy not?
p888
sg8
VJOSH
p889
sg10
g15
sa(dp890
g6
VPretend we didn't see it?
p891
sg8
VC.J.
p892
sg10
g15
sa(dp893
g6
VHe's a liar. He's a fool. Categorically deny it and move on.
p894
sg8
VJOSH
p895
sg10
g15
sa(dp896
g6
VShe can't.
p897
sg8
VMANDY
p898
sg10
g15
sa(dp899
g6
VI can't.
p900
sg8
VC.J.
p901
sg10
g15
sa(dp902
g6
VWhy not?
p903
sg8
VJOSH
p904
sg10
g15
sa(dp905
g6
VBecause more than 1300 people work for the White House, Josh. I go to the Press Room and categorically deny that anyone uses drugs, and it turns out that three guys in the photo lab blew a joint over the weekend, which is not like out of the realm of possibility. And my next question is...
p906
sg8
VC.J.
p907
sg10
g15
sa(dp908
g6
VBut you categorically denied it, now you admit there are three.
p909
sg8
VMANDY
p910
sg10
g15
sa(dp911
g6
VYes. Well, I categorically deny that there are any more than three.
p912
sg8
VC.J.
p913
sg10
g15
sa(dp914
g6
VBut now it seems that the assistant to the deputy director of White House beverages--
p915
sg8
VMANDY
p916
sg10
g15
sa(dp917
g6
VAll right.
p918
sg8
VJOSH
p919
sg10
g15
sa(dp920
g6
V--is confessing to a life of a closet junkie.
p921
sg8
VMANDY
p922
sg10
g15
sa(dp923
g6
VYes, and I understand she's selling her story to Random House for a middle six-figure advance.
p924
sg8
VC.J.
p925
sg10
g15
sa(dp926
g6
V[now has his head against the wall] All right. Are we done with Masterpiece Theater?
p927
sg8
VTOBY
p928
sg10
g15
sa(dp929
g6
VC.J., we're looking into it, okay?
p930
sg8
VLEO
p931
sg10
g15
sa(dp932
g6
VYeah.
p933
sg8
VC.J.
p934
sg10
g15
sa(dp935
g6
VThat's what we're saying right now.
p936
sg8
VLEO
p937
sg10
g15
sa(dp938
g6
VI don't care if we say that, but... we're not actually looking into it, are we?
p939
sg8
VJOSH
p940
sg10
g15
sa(dp941
g6
VYes.
p942
sg8
VLEO
p943
sg10
g11
sa(dp944
g6
VThis is a joke, right?
p945
sg8
VJOSH
p946
sg10
g15
sa(dp947
g6
V[walks in] Leo?
p948
sg8
VMARGARET
p949
sg10
g15
sa(dp950
g6
VYeah? Toby. [points at the staff]
p951
sg8
VLEO
p952
sg10
g15
sa(dp953
g6
VYeah.
p954
sg8
VTOBY
p955
sg10
g15
sa(dp956
g6
VC.J., go do your briefing. The president paid a courtesy call on Crouch this morning. We got some exciting names. On the short list is Ed Harrison. We'll introduce the nominee Thursday, 5 o'clock. This business with Lillienfield...
p957
sg8
VTOBY
p958
sg10
g15
sa(dp959
g6
VI've heard about it, and I'd like the chance to see it first before I comment.
p960
sg8
VC.J.
p961
sg10
g15
sa(dp962
g6
VIs the president aware?
p963
sg8
VTOBY
p964
sg10
g15
sa(dp965
g6
VWe'd like to keep this things off the president's desk until we measure what, if any, credibility...
p966
sg8
VC.J.
p967
sg10
g15
sa(dp968
g6
VGood girl.
p969
sg8
VTOBY
p970
sg10
g15
sa(dp971
g6
VToby, if the alternative is getting Harrison bumped off the top story...
p972
sg8
VMANDY
p973
sg10
g15
sa(dp974
g6
VWe're not gonna postpone.
p975
sg8
VTOBY
p976
sg10
g15
sa(dp977
g6
VLet's end this fast.
p978
sg8
VMANDY
p979
sg10
g15
sa(dp980
g6
VHow?
p981
sg8
VJOSH
p982
sg10
g15
sa(dp983
g6
VYou know how.
p984
sg8
VMANDY
p985
sg10
g15
sa(dp986
g6
VNo, I don't.
p987
sg8
VJOSH
p988
sg10
g15
sa(dp989
g6
VMandy.
p990
sg8
VSAM
p991
sg10
g15
sa(dp992
g6
VWhat I'm saying...
p993
sg8
VMANDY
p994
sg10
g15
sa(dp995
g6
VGo back to work, Mandy.
p996
sg8
VTOBY
p997
sg10
g15
sa(dp998
g6
VNow, hang on a second. I'd like to hear what-
p999
sg8
VJOSH
p1000
sg10
g15
sa(dp1001
g6
VHey! Go back to work.
p1002
sg8
VTOBY
p1003
sg10
g15
sa(dp1004
g6
VLillienfield is walking on a stage, and he's not gonna get off until he gets off is what I'm saying.
p1005
sg8
VMANDY
p1006
sg10
g15
sa(dp1007
g6
VWe are not taking drug tests.
p1008
sg8
VJOSH
p1009
sg10
g15
sa(dp1010
g6
VWhy not?
p1011
sg8
VMANDY
p1012
sg10
g15
sa(dp1013
g6
VBecause we're not!
p1014
sg8
VJOSH
p1015
sg10
g15
sa(dp1016
g6
VToby, let's end this.
p1017
sg8
VMANDY
p1018
sg10
g15
sa(dp1019
g6
VToby, if you...
p1020
sg8
VJOSH
p1021
sg10
g15
sa(dp1022
g6
VShut up. [to Mandy] Go. [Mandy leaves.] Sam, go back to doing what you're doing.
p1023
sg8
VTOBY
p1024
sg10
g15
sa(dp1025
g6
VThey just delivered five cartons of Harrison's old papers.
p1026
sg8
VSAM
p1027
sg10
g15
sa(dp1028
g6
VThen go start reading.
p1029
sg8
VTOBY
p1030
sg10
g15
sa(dp1031
g6
VToby...
p1032
sg8
VJOSH
p1033
sg10
g15
sa(dp1034
g6
VWhat do we know? What do they know?
p1035
sg8
VTOBY
p1036
sg10
g15
sa(dp1037
g6
VNow, wait, hang on a second.
p1038
sg8
VJOSH
p1039
sg10
g15
sa(dp1040
g6
VJosh...
p1041
sg8
VTOBY
p1042
sg10
g15
sa(dp1043
g6
VYou're not making me--I'm not gonna be the internal affairs cop around here.
p1044
sg8
VJOSH
p1045
sg10
g15
sa(dp1046
g6
VYes, you are.
p1047
sg8
VTOBY
p1048
sg10
g15
sa(dp1049
g6
VYou want to know who's doing what around here, you ask them yourself!
p1050
sg8
VJOSH
p1051
sg10
g15
sa(dp1052
g6
VThis isn't the time, Josh. We taking water over the side...
p1053
sg8
VTOBY
p1054
sg10
g15
sa(dp1055
g6
VYes, and I'm not indifferent to that, but there's a principle here-
p1056
sg8
VJOSH
p1057
sg10
g15
sa(dp1058
g6
VNo, there's not. Not this week. We've been doing this for a year, and all we've gotten is a year older. Our job approval's 48%, and I think that number's soft, and I'm tired of being the field captain for the gang that couldn't shoot straight! We're getting this done! [beat] What do we know? What do they know? Start with me, if you want.
p1059
sg8
VTOBY
p1060
sg10
g15
sa(dp1061
g6
VHello? This is Sam Seaborn. [listens] What's your name? Uh, I'm not a cop. What's your name? [listens] Where are you right now? [listens] All right. I'm the only one in my office, but as soon as the secretary get--you know what? Hang on. I'm on my way. [hangs up the phone, wears his jacket, heads out, and trips over one of the cartons] Ow!
p1062
sg8
VSAM
p1063
sg10
g15
sa(dp1064
g6
VA quick confirmation's gonna be good for us.
p1065
sg8
VBARTLET
p1066
sg10
g15
sa(dp1067
g6
VRitter says we'll get unanimous approval out of committee and 90 votes in the Senate.
p1068
sg8
VLEO
p1069
sg10
g15
sa(dp1070
g6
VThat's a blowout, Leo.
p1071
sg8
VBARTLET
p1072
sg10
g15
sa(dp1073
g6
VMm-hmm.
p1074
sg8
VLEO
p1075
sg10
g15
sa(dp1076
g6
VJust what the doctor ordered. [An agent opens the door.] Thank you.
p1077
sg8
VBARTLET
p1078
sg10
g15
sa(dp1079
g6
VGood morning, Mrs. Landingham.
p1080
sg8
VBARTLET
p1081
sg10
g15
sa(dp1082
g6
VGood morning.
p1083
sg8
VLEO
p1084
sg10
g15
sa(dp1085
g6
VWhen is Harrison getting in?
p1086
sg8
VBARTLET
p1087
sg10
g15
sa(dp1088
g6
VLate tonight.
p1089
sg8
VLEO
p1090
sg10
g15
sa(dp1091
g6
VGood.
p1092
sg8
VBARTLET
p1093
sg10
g15
sa(dp1094
g6
VGood morning, Charlie.
p1095
sg8
VBARTLET
p1096
sg10
g15
sa(dp1097
g6
VGood morning, Mr. President.
p1098
sg8
VCHARLIE
p1099
sg10
g15
sa(dp1100
g6
VGood morning.
p1101
sg8
VLEO
p1102
sg10
g15
sa(dp1103
g6
VPeyton Cabot Harrison. Find out what kind of cigars he likes, what kind of perfume his wife likes, and have them sent over to their hotel, okay?
p1104
sg8
VBARTLET
p1105
sg10
g15
sa(dp1106
g6
VBack channels, sir?
p1107
sg8
VCHARLIE
p1108
sg10
g15
sa(dp1109
g6
VYeah.
p1110
sg8
VBARTLET
p1111
sg10
g15
sa(dp1112
g6
VThey're gonna stake the hotels. Gifts coming from the White House...
p1113
sg8
VLEO
p1114
sg10
g15
sa(dp1115
g6
VWe're using back channels. What is going on with Lillienfield?
p1116
sg8
VBARTLET
p1117
sg10
g15
sa(dp1118
g6
VYou're staying out of it.
p1119
sg8
VLEO
p1120
sg10
g15
sa(dp1121
g6
VFine.
p1122
sg8
VBARTLET
p1123
sg10
g15
sa(dp1124
g6
VAnything else?
p1125
sg8
VLEO
p1126
sg10
g15
sa(dp1127
g6
VWe're gonna get this done, right?
p1128
sg8
VBARTLET
p1129
sg10
g394
sa(dp1130
g6
VYes sir.
p1131
sg8
VLEO
p1132
sg10
g11
sa(dp1133
g6
VAll right.
p1134
sg8
VBARTLET
p1135
sg10
g15
sa(dp1136
g6
VI'm on my way.
p1137
sg8
VBARTLET
p1138
sg10
g15
sa(dp1139
g6
VThank you, Mr. President.
p1140
sg8
VLEO
p1141
sg10
g11
sa(dp1142
g6
VThank you.
p1143
sg8
VBARTLET
p1144
sg10
g11
sa(dp1145
g6
VLeo?
p1146
sg8
VBARTLET
p1147
sg10
g15
sa(dp1148
g6
VYes, sir?
p1149
sg8
VLEO
p1150
sg10
g11
sa(dp1151
g6
VWe looked at everybody, right?
p1152
sg8
VBARTLET
p1153
sg10
g15
sa(dp1154
g6
VSir?
p1155
sg8
VLEO
p1156
sg10
g15
sa(dp1157
g6
VThe short list. We looked at Mendoza?
p1158
sg8
VBARTLET
p1159
sg10
g15
sa(dp1160
g6
VWe looked at him.
p1161
sg8
VLEO
p1162
sg10
g15
sa(dp1163
g6
VLeo...
p1164
sg8
VBARTLET
p1165
sg10
g15
sa(dp1166
g6
VWe fixed on Harrison.
p1167
sg8
VLEO
p1168
sg10
g15
sa(dp1169
g6
VYeah, you're right. I'll see you later.
p1170
sg8
VBARTLET
p1171
sg10
g15
sa(dp1172
g6
VYes sir.
p1173
sg8
VLEO
p1174
sg10
g11
sa(dp1175
g6
VGood morning, gentlemen. Sorry to keep you waiting. Let's go.
p1176
sg8
VBARTLET
p1177
sg10
g15
sa(dp1178
g6
VGood morning. Good morning. Hang on a second.
p1179
sg8
VBARTLET
p1180
sg10
g15
sa(dp1181
g6
VGood morning. Keep your seats.
p1182
sg8
VBARTLET
p1183
sg10
g15
sa(dp1184
g6
VGood morning.
p1185
sg8
VBARTLET
p1186
sg10
g15
sa(dp1187
g6
VGood morning, Toby.
p1188
sg8
VBARTLET
p1189
sg10
g15
sa(dp1190
g6
VGood morning, sir.
p1191
sg8
VTOBY
p1192
sg10
g15
sa(dp1193
g6
VDo this for me. Put together some information on Roberto Mendoza.
p1194
sg8
VBARTLET
p1195
sg10
g15
sa(dp1196
g6
VSir... it's natural to have second thoughts, but...
p1197
sg8
VTOBY
p1198
sg10
g15
sa(dp1199
g6
VNo. I just want to be able to know something. There's gonna be a lot of questions. I don't want it to be 'we had a Hispanic on the short list.'
p1200
sg8
VBARTLET
p1201
sg10
g15
sa(dp1202
g6
VWhat is it you're looking for?
p1203
sg8
VTOBY
p1204
sg10
g15
sa(dp1205
g6
VThe reason we didn't go with him.
p1206
sg8
VBARTLET
p1207
sg10
g15
sa(dp1208
g6
VThe reason we didn't go with him is because Harrison said yes.
p1209
sg8
VTOBY
p1210
sg10
g15
sa(dp1211
g6
VLet's do better than that.
p1212
sg8
VBARTLET
p1213
sg10
g15
sa(dp1214
g6
VYes sir.
p1215
sg8
VTOBY
p1216
sg10
g11
sa(dp1217
g6
VUh, what's going on with this drug thing?
p1218
sg8
VBARTLET
p1219
sg10
g15
sa(dp1220
g6
VYou don't want a piece of that.
p1221
sg8
VTOBY
p1222
sg10
g15
sa(dp1223
g6
VAll right. I'll trust ya. Thank you.
p1224
sg8
VBARTLET
p1225
sg10
g11
sa(dp1226
g6
V[passes by] Good morning, sir.
p1227
sg8
VSAM
p1228
sg10
g15
sa(dp1229
g6
VGood morning, Sam.
p1230
sg8
VBARTLET
p1231
sg10
g15
sa(dp1232
g6
VToby.
p1233
sg8
VSAM
p1234
sg10
g15
sa(dp1235
g6
VHe wants me to look at Mendoza. What...?
p1236
sg8
VTOBY
p1237
sg10
g15
sa(dp1238
g6
V[slams an envelope on Toby's desk] I got a phone call before from a guy with some information. I just picked it up. I read it on the way back. It's not good.
p1239
sg8
VSAM
p1240
sg10
g15
sa(dp1241
g6
VIs it the drugs?
p1242
sg8
VTOBY
p1243
sg10
g15
sa(dp1244
g6
VNo.
p1245
sg8
VSAM
p1246
sg10
g15
sa(dp1247
g6
VWhat is it?
p1248
sg8
VTOBY
p1249
sg10
g15
sa(dp1250
g6
VIt's Harrison.
p1251
sg8
VSAM
p1252
sg10
g15
sa(dp1253
g6
VClose the door.
p1254
sg8
VTOBY
p1255
sg10
g15
sa(dp1256
g6
VIt's called an unsigned note. Every member of Law Review is required to prepare one. It's like an article.
p1257
sg8
VSAM
p1258
sg10
g15
sa(dp1259
g6
VI know what an unsigned note is.
p1260
sg8
VTOBY
p1261
sg10
g15
sa(dp1262
g6
VIt's 40 or so pages, well researched, footnoted, and revised with faculty supervision, and it's published.
p1263
sg8
VSAM
p1264
sg10
g15
sa(dp1265
g6
VWithout the names.
p1266
sg8
VTOBY
p1267
sg10
g15
sa(dp1268
g6
VWithout the names. It's scholarly work.
p1269
sg8
VSAM
p1270
sg10
g15
sa(dp1271
g6
VHow do we know Harrison...?
p1272
sg8
VTOBY
p1273
sg10
g15
sa(dp1274
g6
VToby...
p1275
sg8
VSAM
p1276
sg10
g15
sa(dp1277
g6
VWhat, I'm supposed to just trust 'the guy on the phone?'
p1278
sg8
VTOBY
p1279
sg10
g15
sa(dp1280
g6
VI spent the last three months reading everything Harrison's written, from decisions, to memos, to amacus briefs, Toby. He's the author of the unsigned note.
p1281
sg8
VSAM
p1282
sg10
g15
sa(dp1283
g6
V[pause, calls] Bonnie!
p1284
sg8
VTOBY
p1285
sg10
g15
sa(dp1286
g6
V[opens the door] Yeah?
p1287
sg8
VBONNIE
p1288
sg10
g15
sa(dp1289
g6
VI'm gonna need the next five minutes the president's got.
p1290
sg8
VTOBY
p1291
sg10
g15
sa(dp1292
g6
VYeah.
p1293
sg8
VBONNIE
p1294
sg10
g15
sa(dp1295
g6
VHow does Lillienfield get his information?
p1296
sg8
VDONNA
p1297
sg10
g15
sa(dp1298
g6
VAh, he's got a half government oversight committee. These are the people who literally decide if we get heat and electricity in the White House.
p1299
sg8
VJOSH
p1300
sg10
g15
sa(dp1301
g6
VSo they have access to background information?
p1302
sg8
VDONNA
p1303
sg10
g394
sa(dp1304
g6
VYeah.
p1305
sg8
VJOSH
p1306
sg10
g15
sa(dp1307
g6
VJosh?
p1308
sg8
VDONNA
p1309
sg10
g15
sa(dp1310
g6
VYeah?
p1311
sg8
VJOSH
p1312
sg10
g15
sa(dp1313
g6
VYou shouldn't feel uncomfortable about interviewing me.
p1314
sg8
VDONNA
p1315
sg10
g15
sa(dp1316
g6
VI met you. I talked to you. I hired you. You know anybody around here who uses drugs?
p1317
sg8
VJOSH
p1318
sg10
g15
sa(dp1319
g6
VYeah.
p1320
sg8
VDONNA
p1321
sg10
g15
sa(dp1322
g6
VYou want to tell me who they are?
p1323
sg8
VJOSH
p1324
sg10
g15
sa(dp1325
g6
VNo.
p1326
sg8
VDONNA
p1327
sg10
g15
sa(dp1328
g6
VGood for you. Consider yourself interviewed.
p1329
sg8
VJOSH
p1330
sg10
g15
sa(dp1331
g6
VYou're a good boy, Josh.
p1332
sg8
VDONNA
p1333
sg10
g15
sa(dp1334
g6
VDonna, I've seen your records.
p1335
sg8
VJOSH
p1336
sg10
g15
sa(dp1337
g6
VI know.
p1338
sg8
VDONNA
p1339
sg10
g15
sa(dp1340
g6
VYou need to learn that 'no parking' means no parking.
p1341
sg8
VJOSH
p1342
sg10
g15
sa(dp1343
g6
VThe thing is sometimes I can't find a space.
p1344
sg8
VDONNA
p1345
sg10
g15
sa(dp1346
g6
VGo to work.
p1347
sg8
VJOSH
p1348
sg10
g15
sa(dp1349
g6
VWe have everyone take a drug test and be done with it.
p1350
sg8
VMANDY
p1351
sg10
g15
sa(dp1352
g6
VWhat makes you think that everyone here can pass a drug test?
p1353
sg8
VJOSH
p1354
sg10
g15
sa(dp1355
g6
VThe ones who can't already know it and will quietly resign.
p1356
sg8
VMANDY
p1357
sg10
g15
sa(dp1358
g6
V[laughs] Oh, okay. Problem solved.
p1359
sg8
VJOSH
p1360
sg10
g15
sa(dp1361
g6
VWhat is wrong in this day and age with demonstrating that the White House is drug free? What is wrong with giving people that comfort?
p1362
sg8
VMANDY
p1363
sg10
g15
sa(dp1364
g6
VI would think that in this day and age, people would be more comfortable knowing that they will not now, nor will they ever be forced to turn over evidence against themselves. And please, do not try and paint your position as anything other than preservation of a spotlight.
p1365
sg8
VJOSH
p1366
sg10
g15
sa(dp1367
g6
VThis thing gets bungled, and we're not gonna have to struggle much to find the spotlight.
p1368
sg8
VMANDY
p1369
sg10
g15
sa(dp1370
g6
V[pause] So what do you think's really going on here?
p1371
sg8
VJOSH
p1372
sg10
g15
sa(dp1373
g6
VI don't know.
p1374
sg8
VMANDY
p1375
sg10
g15
sa(dp1376
g6
VI don't know either.
p1377
sg8
VJOSH
p1378
sg10
g15
sa(dp1379
g6
VThat's what makes me nervous.
p1380
sg8
VMANDY
p1381
sg10
g15
sa(dp1382
g6
VWhat do we do?
p1383
sg8
VJOSH
p1384
sg10
g15
sa(dp1385
g6
VIt's time to talk to whoever it is you talk to.
p1386
sg8
VMANDY
p1387
sg10
g15
sa(dp1388
g6
VYeah.
p1389
sg8
VJOSH
p1390
sg10
g15
sa(dp1391
g6
VIs there any reason to believe that White House staffers regularly use illegal drugs?
p1392
sg8
VREPORTER
p1393
sg10
g15
sa(dp1394
g6
VFor those who didn't understand me the first nine times, we are looking into this.
p1395
sg8
VC.J.
p1396
sg10
g15
sa(dp1397
g6
VC.J.?
p1398
sg8
VREPORTER
p1399
sg10
g15
sa(dp1400
g6
VC.J., would you forgive a blunt question?
p1401
sg8
VSTEVE
p1402
sg10
g15
sa(dp1403
g6
VThese questions haven't been blunt yet?
p1404
sg8
VC.J.
p1405
sg10
g15
sa(dp1406
g6
VDo you use drugs?
p1407
sg8
VSTEVE
p1408
sg10
g15
sa(dp1409
g6
VNo, and you're forgiven.
p1410
sg8
VC.J.
p1411
sg10
g15
sa(dp1412
g6
VIt's been 24 hours since Congressman Lillienfield made his accusations, C.J. When is the White House...?
p1413
sg8
VCHRIS
p1414
sg10
g15
sa(dp1415
g6
VWe have 1300 people on the payroll, Chris. That's a lot of information to gather, and it's not like we were loaded with free time before. And let me just add that as no one and nothing here has been subpoenaed, and Mr. Lillienfield has offered nothing to support his very bizarre claim, we're not feeling the real need to get this done in a hurry.
p1416
sg8
VC.J.
p1417
sg10
g15
sa(dp1418
g6
VC.J., one more question...
p1419
sg8
VCHRIS
p1420
sg10
g15
sa(dp1421
g6
VThank you. That's all. [walks away, to a staffer] Set fire to the room. Do it now.
p1422
sg8
VC.J.
p1423
sg10
g15
sa(dp1424
g6
VHow you doing?
p1425
sg8
VDANNY
p1426
sg10
g11
sa(dp1427
g6
VWhat do you want?
p1428
sg8
VC.J.
p1429
sg10
g15
sa(dp1430
g6
VIt was a bit of a blunder back there.
p1431
sg8
VDANNY
p1432
sg10
g15
sa(dp1433
g6
VIt was fine.
p1434
sg8
VC.J.
p1435
sg10
g15
sa(dp1436
g6
VYou challenged Lillienfield to present evidence. He knows his cue when he hears it.
p1437
sg8
VDANNY
p1438
sg10
g15
sa(dp1439
g6
V[looks around] I left my notebook somewhere.
p1440
sg8
VC.J.
p1441
sg10
g15
sa(dp1442
g6
VAlso, did you really want to be the first person to use the word 'subpoena'?
p1443
sg8
VDANNY
p1444
sg10
g15
sa(dp1445
g6
VIn the context?
p1446
sg8
VC.J.
p1447
sg10
g15
sa(dp1448
g6
VWhat the context was. It's the only word anybody's gonna read tomorrow.
p1449
sg8
VDANNY
p1450
sg10
g15
sa(dp1451
g6
VI really don't need your tips, Danny.
p1452
sg8
VC.J.
p1453
sg10
g15
sa(dp1454
g6
VAs a matter of fact, you do, C.J. but that's not why I'm here.
p1455
sg8
VDANNY
p1456
sg10
g15
sa(dp1457
g6
VWhy are you here?
p1458
sg8
VC.J.
p1459
sg10
g15
sa(dp1460
g6
VI'm here because there's a basketball team called the New York Knickerbockers who are playing in town tonight.
p1461
sg8
VDANNY
p1462
sg10
g15
sa(dp1463
g6
VI don't have time for a little basketball game!
p1464
sg8
VC.J.
p1465
sg10
g15
sa(dp1466
g6
VNeither do I. Which is why we I thought could watch it in your office while I explain it to you in a patronizing manner, 'cause I know it's something women usually like.
p1467
sg8
VDANNY
p1468
sg10
g15
sa(dp1469
g6
VThank you, anyway.
p1470
sg8
VC.J.
p1471
sg10
g15
sa(dp1472
g6
VYou understand I'll talk slow and explain it the way any girl would appreciate.
p1473
sg8
VDANNY
p1474
sg10
g15
sa(dp1475
g6
VDanny. You got a minute?
p1476
sg8
VJOSH
p1477
sg10
g15
sa(dp1478
g6
VWalk me to my car.
p1479
sg8
VDANNY
p1480
sg10
g15
sa(dp1481
g6
VJosh, the information I get I have to print.
p1482
sg8
VDANNY
p1483
sg10
g15
sa(dp1484
g6
VDo you have any information?
p1485
sg8
VJOSH
p1486
sg10
g15
sa(dp1487
g6
VNo.
p1488
sg8
VDANNY
p1489
sg10
g15
sa(dp1490
g6
VWould you tell me if you did?
p1491
sg8
VJOSH
p1492
sg10
g15
sa(dp1493
g6
VWhat kind of information?
p1494
sg8
VDANNY
p1495
sg10
g15
sa(dp1496
g6
VYou know what kind of information.
p1497
sg8
VJOSH
p1498
sg10
g15
sa(dp1499
g6
VHey.
p1500
sg8
VDANNY
p1501
sg10
g15
sa(dp1502
g6
VYou know no one knows where I got it.
p1503
sg8
VJOSH
p1504
sg10
g15
sa(dp1505
g6
VYou know in the highroad, I'm not supposed to hand out any information I get.
p1506
sg8
VDANNY
p1507
sg10
g15
sa(dp1508
g6
VYou're right.
p1509
sg8
VJOSH
p1510
sg10
g15
sa(dp1511
g6
VYou know I'm right. It's not my job to help you out. As a matter of fact, I get fired from my job for helping you out.
p1512
sg8
VDANNY
p1513
sg10
g15
sa(dp1514
g6
VI know that.
p1515
sg8
VJOSH
p1516
sg10
g15
sa(dp1517
g6
VLillienfield's a jackass, but he's not stupid. He's talking. He's got something.
p1518
sg8
VDANNY
p1519
sg10
g15
sa(dp1520
g6
VWhat?
p1521
sg8
VJOSH
p1522
sg10
g15
sa(dp1523
g6
VWhatever it is it's small potatoes. It's enough to get the rock rolling down the mountain.
p1524
sg8
VDANNY
p1525
sg10
g15
sa(dp1526
g6
VWhat's he trying to hit?
p1527
sg8
VJOSH
p1528
sg10
g15
sa(dp1529
g6
VI don't know.
p1530
sg8
VDANNY
p1531
sg10
g15
sa(dp1532
g6
VIs it the nomination?
p1533
sg8
VJOSH
p1534
sg10
g15
sa(dp1535
g6
VThat's what I thought too, but Harrison's gonna sail by no matter what.
p1536
sg8
VDANNY
p1537
sg10
g15
sa(dp1538
g6
VNobody said it's Harrison.
p1539
sg8
VJOSH
p1540
sg10
g15
sa(dp1541
g6
VYeah. Yeah. My point is this: He's not gonna waste it on a done deal. He's after something better.
p1542
sg8
VDANNY
p1543
sg10
g15
sa(dp1544
g6
VOkay. Thanks. [starts to walk the other way]
p1545
sg8
VJOSH
p1546
sg10
g15
sa(dp1547
g6
VJosh, it's one of those times, man. Don't screw this up.
p1548
sg8
VDANNY
p1549
sg10
g15
sa(dp1550
g6
VC.J. likes goldfish.
p1551
sg8
VJOSH
p1552
sg10
g15
sa(dp1553
g6
VWhat?
p1554
sg8
VDANNY
p1555
sg10
g15
sa(dp1556
g6
VShe likes goldfish. Can't get enough of them.
p1557
sg8
VJOSH
p1558
sg10
g15
sa(dp1559
g6
VThanks!
p1560
sg8
VDANNY
p1561
sg10
g15
sa(dp1562
g6
VHere's an interesting statement. [reads] 'I join Judge Black, insomuch as while enjoying my privacy, I am compelled to admit that government has a right to invade it unless specifically prohibited by some specific Constitutional provision.' Unquote.
p1563
sg8
VBARTLET
p1564
sg10
g15
sa(dp1565
g6
VMr. President, this paper, is, in no uncertain terms, an argument of privacy is not a right guaranteed by the Constitution.
p1566
sg8
VSAM
p1567
sg10
g15
sa(dp1568
g6
VWhy isn't this ever been brought up?
p1569
sg8
VBARTLET
p1570
sg10
g15
sa(dp1571
g6
VIt never came up, sir.
p1572
sg8
VTOBY
p1573
sg10
g15
sa(dp1574
g6
VWe spent two months vetting our homerun nominee, he doesn't believe in a privacy guarantee, and it never came up?
p1575
sg8
VBARTLET
p1576
sg10
g15
sa(dp1577
g6
VIt was simply never an issue in any order to be handed down, and if I may sir, we don't know for sure that he's the author of the document...
p1578
sg8
VTOBY
p1579
sg10
g15
sa(dp1580
g6
VWe do know.
p1581
sg8
VSAM
p1582
sg10
g15
sa(dp1583
g6
V...If he is, I don't think we can necessarily hold a 55 year old man responsible...
p1584
sg8
VTOBY
p1585
sg10
g15
sa(dp1586
g6
VToby?
p1587
sg8
VSAM
p1588
sg10
g15
sa(dp1589
g6
V...for something he wrote when he's 26.
p1590
sg8
VTOBY
p1591
sg10
g15
sa(dp1592
g6
VWe're not gonna be able to hold him responsible if we put him on the bench. And I promise you, this issue's gonna come up!
p1593
sg8
VSAM
p1594
sg10
g15
sa(dp1595
g6
V[pause, sighs] When does Harrison get in?
p1596
sg8
VBARTLET
p1597
sg10
g15
sa(dp1598
g6
VLater tonight.
p1599
sg8
VSAM
p1600
sg10
g15
sa(dp1601
g6
VI want him first thing in the morning.
p1602
sg8
VBARTLET
p1603
sg10
g15
sa(dp1604
g6
VYes sir.
p1605
sg8
VSAM
p1606
sg10
g11
sa(dp1607
g6
VWhen was the last time either of you slept, I don't care. Get ready for this.
p1608
sg8
VBARTLET
p1609
sg10
g15
sa(dp1610
g6
VYes sir.
p1611
sg8
VTOBY
p1612
sg10
g11
sa(dp1613
g6
VThank you, Mr. President.
p1614
sg8
VSAM
p1615
sg10
g11
sa(dp1616
g6
VThank you sir.
p1617
sg8
VTOBY
p1618
sg10
g11
sa(dp1619
g6
VSeventeen billion isn't gonna fly. They're gonna say it's too much at thirteen five.
p1620
sg8
VLEO
p1621
sg10
g15
sa(dp1622
g6
VExcuse me.
p1623
sg8
VBARTLET
p1624
sg10
g15
sa(dp1625
g6
VGive us the room. [The people leave at an instant.]
p1626
sg8
VLEO
p1627
sg10
g15
sa(dp1628
g6
VI want to meet Mendoza.
p1629
sg8
VBARTLET
p1630
sg10
g15
sa(dp1631
g6
VYes sir.
p1632
sg8
VLEO
p1633
sg10
g11
sa(dp1634
g6
VDoes Mendoza know why he's coming here?
p1635
sg8
VTOBY
p1636
sg10
g15
sa(dp1637
g6
VHe thinks he's interviewing for a place in the President's Commission for Hispanic Opportunity.
p1638
sg8
VMANDY
p1639
sg10
g15
sa(dp1640
g6
VIs there such a thing as the president's...?
p1641
sg8
VTOBY
p1642
sg10
g15
sa(dp1643
g6
VIt's the best I could do in short notice, Toby.
p1644
sg8
VMANDY
p1645
sg10
g15
sa(dp1646
g6
VFine.
p1647
sg8
VTOBY
p1648
sg10
g15
sa(dp1649
g6
VI had to make a letterhead.
p1650
sg8
VMANDY
p1651
sg10
g11
sa(dp1652
g6
VThat must have taxed your considerable creativity.
p1653
sg8
VTOBY
p1654
sg10
g15
sa(dp1655
g6
VToby?
p1656
sg8
VMANDY
p1657
sg10
g15
sa(dp1658
g6
VFine.
p1659
sg8
VTOBY
p1660
sg10
g15
sa(dp1661
g6
VJudge Harrison, first thing's first, are you the author of this unsigned note?
p1662
sg8
VBARTLET
p1663
sg10
g15
sa(dp1664
g6
V[chuckles] Yes sir.
p1665
sg8
VHARRISON
p1666
sg10
g11
sa(dp1667
g6
VWhen I was 26, I wrote a paper supporting the deregulation of Far East trade barriers. Nearly got thrown out of the London School of Economics. I was young and stupid, and trying to make some noise.
p1668
sg8
VBARTLET
p1669
sg10
g15
sa(dp1670
g6
VYes sir.
p1671
sg8
VHARRISON
p1672
sg10
g11
sa(dp1673
g6
VI'm gonna bring Toby Ziegler and Sam Seaborn in here and talk about this a little bit.
p1674
sg8
VBARTLET
p1675
sg10
g15
sa(dp1676
g6
VThat's fine sir.
p1677
sg8
VHARRISON
p1678
sg10
g15
sa(dp1679
g6
VOkay. Charlie, please?
p1680
sg8
VBARTLET
p1681
sg10
g15
sa(dp1682
g6
VToby, you got a minute?
p1683
sg8
VJOSH
p1684
sg10
g15
sa(dp1685
g6
VThey're about to call me in.
p1686
sg8
VTOBY
p1687
sg10
g15
sa(dp1688
g6
VPrivacy?
p1689
sg8
VJOSH
p1690
sg10
g15
sa(dp1691
g6
VI don't know.
p1692
sg8
VTOBY
p1693
sg10
g15
sa(dp1694
g6
VHe doesn't acknowledge the protection?
p1695
sg8
VJOSH
p1696
sg10
g15
sa(dp1697
g6
VHang on a second.
p1698
sg8
VTOBY
p1699
sg10
g15
sa(dp1700
g6
VWhen were you gonna tell me this?
p1701
sg8
VJOSH
p1702
sg10
g15
sa(dp1703
g6
VNumber one: I don't report to you.
p1704
sg8
VTOBY
p1705
sg10
g15
sa(dp1706
g6
VToby...
p1707
sg8
VJOSH
p1708
sg10
g15
sa(dp1709
g6
VNumber two: He wrote the paper a quarter century ago.
p1710
sg8
VTOBY
p1711
sg10
g15
sa(dp1712
g6
VHe hasn't changed his mind.
p1713
sg8
VJOSH
p1714
sg10
g15
sa(dp1715
g6
VWe don't know whether he changed his mind or not.
p1716
sg8
VTOBY
p1717
sg10
g15
sa(dp1718
g6
VWe don't care whether he changed his mind or not. You're painting a picture for the president.
p1719
sg8
VJOSH
p1720
sg10
g15
sa(dp1721
g6
VThe president can paint his own picture.
p1722
sg8
VTOBY
p1723
sg10
g15
sa(dp1724
g6
VYeah, but he listens to you. [beat] When did we get the idea that Harrison was our guy? When we used to talk it was never Harrison.
p1725
sg8
VJOSH
p1726
sg10
g15
sa(dp1727
g6
V[walks up] Toby?
p1728
sg8
VCHARLIE
p1729
sg10
g394
sa(dp1730
g6
VYeah?
p1731
sg8
VTOBY
p1732
sg10
g15
sa(dp1733
g6
VThey're ready for you.
p1734
sg8
VCHARLIE
p1735
sg10
g15
sa(dp1736
g6
VLeo?
p1737
sg8
VMARGARET
p1738
sg10
g15
sa(dp1739
g6
VYeah?
p1740
sg8
VLEO
p1741
sg10
g15
sa(dp1742
g6
VJosh was wondering if you had a moment.
p1743
sg8
VMARGARET
p1744
sg10
g15
sa(dp1745
g6
VYeah.
p1746
sg8
VLEO
p1747
sg10
g15
sa(dp1748
g6
VLeo.
p1749
sg8
VJOSH
p1750
sg10
g15
sa(dp1751
g6
VHey.
p1752
sg8
VLEO
p1753
sg10
g15
sa(dp1754
g6
VI guess you're the guy with the worst job in the building this week, huh?
p1755
sg8
VLEO
p1756
sg10
g15
sa(dp1757
g6
V[laughs] I was interrogating this intern from the Legislative Liaison's Office, and she broke down crying while telling me about the bong she had made out of an eggplant.
p1758
sg8
VJOSH
p1759
sg10
g15
sa(dp1760
g6
VYou can do that?
p1761
sg8
VLEO
p1762
sg10
g15
sa(dp1763
g6
VI used to use a potato.
p1764
sg8
VJOSH
p1765
sg10
g15
sa(dp1766
g6
VYou've always been industrious.
p1767
sg8
VLEO
p1768
sg10
g15
sa(dp1769
g6
V[goes around and sits across Leo] Lillienfield's not after that kid in the Liaison's Office, and he's not even after the Senior Staff.
p1770
sg8
VJOSH
p1771
sg10
g15
sa(dp1772
g6
VYeah.
p1773
sg8
VLEO
p1774
sg10
g15
sa(dp1775
g6
VLeo, you... know the worst kept secret in Washington... is that you're a recovering alcoholic, right?
p1776
sg8
VJOSH
p1777
sg10
g15
sa(dp1778
g6
VI had a hunch.
p1779
sg8
VLEO
p1780
sg10
g15
sa(dp1781
g6
VLeo, you're... Boston-Irish Catholic. Back there and back then, a drinking problem wasn't a problem. [beat] This isn't what he's after... Were you maybe into something that wasn't so acceptable?
p1782
sg8
VJOSH
p1783
sg10
g15
sa(dp1784
g6
V[pause] Pills.
p1785
sg8
VLEO
p1786
sg10
g15
sa(dp1787
g6
VWere you in treatment?
p1788
sg8
VJOSH
p1789
sg10
g15
sa(dp1790
g6
VSierra-Tucson. Six years ago.
p1791
sg8
VLEO
p1792
sg10
g15
sa(dp1793
g6
VLeo...
p1794
sg8
VJOSH
p1795
sg10
g15
sa(dp1796
g6
VRecords kept by these facilities are confidential, Josh.
p1797
sg8
VLEO
p1798
sg10
g15
sa(dp1799
g6
V[quietly] He's got 'em.
p1800
sg8
VJOSH
p1801
sg10
g15
sa(dp1802
g6
VYou're Leo McGarry. You're not gonna be taken down by this... small fraction of a man. [stands and opens the door] I won't permit it.
p1803
sg8
VJOSH
p1804
sg10
g15
sa(dp1805
g6
VJudges are bound to interpret the Constitution within the strict parameters of the text itself. The Constitution doesn't provide for a right of privacy. The right doesn't exist.
p1806
sg8
VHARRISON
p1807
sg10
g15
sa(dp1808
g6
VThe third amendment says soldiers can't be quartered in private homes. The fifth provides protection against self-incrimination, and the fourth against unreasonable searches. You deny the right to privacy lived in those passages?
p1809
sg8
VSAM
p1810
sg10
g15
sa(dp1811
g6
VNo. I do not deny it, but the fact that the framers enumerated those specific protections is all the more reason to believe that they had no intention of making privacy a de facto right.
p1812
sg8
VHARRISON
p1813
sg10
g15
sa(dp1814
g6
VThey just fought a revolution but they had no question of their freedom. The Bill of Rights wasn't meant to codify the most crucial of those rights not to limit the others.
p1815
sg8
VSAM
p1816
sg10
g15
sa(dp1817
g6
VI do this for a living, Mr. Seaborn.
p1818
sg8
VHARRISON
p1819
sg10
g15
sa(dp1820
g6
VSo do I, your honor.
p1821
sg8
VSAM
p1822
sg10
g15
sa(dp1823
g6
VPeyton, do I have the right to put on an ugly plaid jacket and a loud polka-dot tie and walk down Main Street?
p1824
sg8
VBARTLET
p1825
sg10
g15
sa(dp1826
g6
VYes.
p1827
sg8
VHARRISON
p1828
sg10
g11
sa(dp1829
g6
VWhere in the Constitution is that right guaranteed?
p1830
sg8
VBARTLET
p1831
sg10
g15
sa(dp1832
g6
VFirst Amendment. Freedom of expression.
p1833
sg8
VHARRISON
p1834
sg10
g15
sa(dp1835
g6
VWhat about the use of cream in my coffee? Surely, there can be no free speech argument to be made there?
p1836
sg8
VBARTLET
p1837
sg10
g15
sa(dp1838
g6
VNo.
p1839
sg8
VHARRISON
p1840
sg10
g15
sa(dp1841
g6
VSo you have no objection to the state of New Hampshire passing a law banning use of cream in coffee?
p1842
sg8
VBARTLET
p1843
sg10
g15
sa(dp1844
g6
VI would have strong objection, Mr. President, as I like cream as well, but I would have no Constitutional basis to strike down the law when you brought this case to the Supreme Court.
p1845
sg8
VHARRISON
p1846
sg10
g15
sa(dp1847
g6
VAs I lose the votes of coffee drinkers everywhere.
p1848
sg8
VBARTLET
p1849
sg10
g15
sa(dp1850
g6
VHey.
p1851
sg8
VDANNY
p1852
sg10
g15
sa(dp1853
g6
VHey.
p1854
sg8
VC.J.
p1855
sg10
g15
sa(dp1856
g6
VWhat you doing?
p1857
sg8
VDANNY
p1858
sg10
g15
sa(dp1859
g6
VYou were right.
p1860
sg8
VC.J.
p1861
sg10
g15
sa(dp1862
g6
VI know.
p1863
sg8
VDANNY
p1864
sg10
g15
sa(dp1865
g6
VThe word 'subpoena' appears in the lead in every story of this morning's papers.
p1866
sg8
VC.J.
p1867
sg10
g15
sa(dp1868
g6
VI know.
p1869
sg8
VDANNY
p1870
sg10
g15
sa(dp1871
g6
VNot yours.
p1872
sg8
VC.J.
p1873
sg10
g15
sa(dp1874
g6
VThat's just 'cause I couldn't spell it.
p1875
sg8
VDANNY
p1876
sg10
g15
sa(dp1877
g6
VWhat are you holding?
p1878
sg8
VC.J.
p1879
sg10
g15
sa(dp1880
g6
VIt's a goldfish.
p1881
sg8
VDANNY
p1882
sg10
g15
sa(dp1883
g6
VWhy?
p1884
sg8
VC.J.
p1885
sg10
g15
sa(dp1886
g6
VIt's for you.
p1887
sg8
VDANNY
p1888
sg10
g15
sa(dp1889
g6
VReally?
p1890
sg8
VC.J.
p1891
sg10
g15
sa(dp1892
g6
VJosh said you liked goldfish.
p1893
sg8
VDANNY
p1894
sg10
g15
sa(dp1895
g6
V[out of her laugh] The crackers, Danny. The cheese things that you have at a party?
p1896
sg8
VC.J.
p1897
sg10
g15
sa(dp1898
g6
VWell... You know what, I'm not a hundred percent sure I'm supposed to know that.
p1899
sg8
VDANNY
p1900
sg10
g15
sa(dp1901
g6
VThe crackers, Danny.
p1902
sg8
VC.J.
p1903
sg10
g15
sa(dp1904
g6
VFine. Now I got a goldfish.
p1905
sg8
VDANNY
p1906
sg10
g15
sa(dp1907
g6
V[laughs] Give it to me.
p1908
sg8
VC.J.
p1909
sg10
g15
sa(dp1910
g6
VNo.
p1911
sg8
VDANNY
p1912
sg10
g15
sa(dp1913
g6
VNo, you'll kill it.
p1914
sg8
VC.J.
p1915
sg10
g11
sa(dp1916
g6
VYou think I can't take care of a goldfish?
p1917
sg8
VDANNY
p1918
sg10
g15
sa(dp1919
g6
VI absolutely do not. [takes the fishbowl from Danny]
p1920
sg8
VC.J.
p1921
sg10
g15
sa(dp1922
g6
VThe name's Gail, by the way.
p1923
sg8
VDANNY
p1924
sg10
g15
sa(dp1925
g6
VThe fish?
p1926
sg8
VC.J.
p1927
sg10
g15
sa(dp1928
g6
VYeah.
p1929
sg8
VDANNY
p1930
sg10
g15
sa(dp1931
g6
VYou named it Gail?
p1932
sg8
VC.J.
p1933
sg10
g15
sa(dp1934
g6
VNo, the guy in the store.
p1935
sg8
VDANNY
p1936
sg10
g15
sa(dp1937
g6
V[laughs again] Oh... That's... Come here. [kisses Danny on the cheek] Thanks for the fish.
p1938
sg8
VC.J.
p1939
sg10
g15
sa(dp1940
g6
VKeep your head in the game.
p1941
sg8
VDANNY
p1942
sg10
g15
sa(dp1943
g6
VIn 1787, there was a sizable block of delegates who were initially opposed to the Bill of Rights. One member of the Georgia delegation had to stay by way of opposition: 'If we list the set of rights, some fools in the future are going to claim that people are entitled only to those rights enumerated and no longer. The framers knew...'
p1944
sg8
VSAM
p1945
sg10
g15
sa(dp1946
g6
VWere you just calling me a fool, Mr. Seaborn?
p1947
sg8
VHARRISON
p1948
sg10
g15
sa(dp1949
g6
VI wasn't calling you a fool, sir, the brand new state of Georgia was.
p1950
sg8
VSAM
p1951
sg10
g15
sa(dp1952
g6
VGentlemen, laws must emanate from the Constitution.
p1953
sg8
VHARRISON
p1954
sg10
g15
sa(dp1955
g6
VThere are natural laws, judge.
p1956
sg8
VTOBY
p1957
sg10
g15
sa(dp1958
g6
VI do not deny there are natural laws, Mr. Ziegler. I only deny that judges are empowered to enforce them.
p1959
sg8
VHARRISON
p1960
sg10
g15
sa(dp1961
g6
VThen who will?
p1962
sg8
VTOBY
p1963
sg10
g15
sa(dp1964
g6
VThat's not up to me. And this sideshow is over. With all due respect, Mr. President, I find this kind of questioning very rude.
p1965
sg8
VHARRISON
p1966
sg10
g15
sa(dp1967
g6
VWell then, you're really gonna enjoy meeting the U.S. Senate.
p1968
sg8
VSAM
p1969
sg10
g15
sa(dp1970
g6
VBe that as it may, it's disgusting. We all know you need me as much as I need you. I read the same polling information you do. Seven to ten point bump, 90 votes, unanimous out of committee, I was courted. Now, you have me taken to school by some kid.
p1971
sg8
VHARRISON
p1972
sg10
g15
sa(dp1973
g6
VThis Sam is young, drives me nuts too, but he took you off for a ride, sir, because that's what I told him to do.
p1974
sg8
VBARTLET
p1975
sg10
g15
sa(dp1976
g6
VI am an extremely well credentialed man, Mr. President, and I'm unaccustomed to this sort of questioning.
p1977
sg8
VHARRISON
p1978
sg10
g15
sa(dp1979
g6
VI understand, Peyton. Could you give us a little time, please? We'll make you comfortable while you're waiting.
p1980
sg8
VBARTLET
p1981
sg10
g15
sa(dp1982
g6
VCertainly.
p1983
sg8
VHARRISON
p1984
sg10
g15
sa(dp1985
g6
VThank you.
p1986
sg8
VBARTLET
p1987
sg10
g11
sa(dp1988
g6
VPut him on a bus.
p1989
sg8
VSAM
p1990
sg10
g15
sa(dp1991
g6
VWith a guaranteed confirmation we're sending out the door based on a 30-year-old paper, which by the way, no one will know about but us.
p1992
sg8
VTOBY
p1993
sg10
g15
sa(dp1994
g6
VYou don't think the guy who called Sam wouldn't know how to call a senator's office?
p1995
sg8
VBARTLET
p1996
sg10
g15
sa(dp1997
g6
VMr. President, if this is really about abortion, we already talked about...
p1998
sg8
VTOBY
p1999
sg10
g15
sa(dp2000
g6
VIt's not about abortion. It's about the next 20 years. Twenties and thirties, it was the role of government. Fifties and sixties, it was civil rights. The next two decades, it's gonna be privacy. I'm talking about the Internet. I'm talking about cellphones. I'm talking about health records, and who's gay and who's not. And moreover, in a country born on a will to be free, what could be more fundamental than this?
p2001
sg8
VSAM
p2002
sg10
g15
sa(dp2003
g6
VToby?
p2004
sg8
VBARTLET
p2005
sg10
g15
sa(dp2006
g6
V[beat] Let's meet Mendoza.
p2007
sg8
VTOBY
p2008
sg10
g15
sa(dp2009
g6
VThey're meeting with Mendoza.
p2010
sg8
VMANDY
p2011
sg10
g15
sa(dp2012
g6
VYeah.
p2013
sg8
VJOSH
p2014
sg10
g15
sa(dp2015
g6
VYeah, and I'm just gonna go kill myself now.
p2016
sg8
VMANDY
p2017
sg10
g15
sa(dp2018
g6
VYou think Mendoza would be a bad justice?
p2019
sg8
VJOSH
p2020
sg10
g15
sa(dp2021
g6
VI think Mendoza would make a great justice. I think he makes a lousy nominee.
p2022
sg8
VMANDY
p2023
sg10
g15
sa(dp2024
g6
VWhy?
p2025
sg8
VJOSH
p2026
sg10
g15
sa(dp2027
g6
VHe's ruled in favor of same sex marriages...
p2028
sg8
VMANDY
p2029
sg10
g15
sa(dp2030
g6
VHe didn't rule in favor of it, Mandy. He's not recommending it. He's ruled that the state has no right to interfere with it.
p2031
sg8
VJOSH
p2032
sg10
g15
sa(dp2033
g6
VHe's got the broadest possible interpretation for free speech.
p2034
sg8
VMANDY
p2035
sg10
g15
sa(dp2036
g6
VAnd listening to you sometimes, I honestly wish you'd narrow it, so...
p2037
sg8
VJOSH
p2038
sg10
g11
sa(dp2039
g6
VYou don't have to tell me how to be a good person, Josh. I'm the one who has to sell this. And he is not exactly America's idea of Supreme Court justice.
p2040
sg8
VMANDY
p2041
sg10
g15
sa(dp2042
g6
VMandy, I don't...
p2043
sg8
VJOSH
p2044
sg10
g15
sa(dp2045
g6
VLet's do a side-by-side comparison. [reads from piece of paper] Harrison went to Walnut Park Country Day, Phillips Exeter, and Princeton undergrad, and Harvard Law. Mendoza attended P.S. 138 in Brooklyn, City University of New York, and the New York Police Department. Harrison clerked for Warren Berger. Mendoza...
p2046
sg8
VMANDY
p2047
sg10
g15
sa(dp2048
g6
V[off of the top of his head] New York City Police Department '65 to '76, Assistant District Attorney Brooklyn '76 to '80, Assistant U.S. Attorney Eastern District, Federal District Judge, Eastern District -- Let me tell you something, Mendoza went to Law School the hard way. He got shot in the leg, and when they offered him a hundred percent dispensation, he took a desk job instead and went to law school at night. He's brilliant, decisive, compassionate, and experienced. And if you don't think that he's America's idea of a jurist, then you don't have enough faith in Americans.
p2049
sg8
VJOSH
p2050
sg10
g15
sa(dp2051
g6
VIt's not Americans I don't have faith in, Josh. It's the White House Senior Staff.
p2052
sg8
VMANDY
p2053
sg10
g15
sa(dp2054
g6
VThis is not gonna be an easy one, and if all hell breaks loose over Lillienfield, it could honestly cripple us for a year, maybe more.
p2055
sg8
VMANDY
p2056
sg10
g15
sa(dp2057
g6
V[sighs] Well, I mean, just the law of large numbers says We got to win one one of these days, right?
p2058
sg8
VJOSH
p2059
sg10
g15
sa(dp2060
g6
VYeah.
p2061
sg8
VMANDY
p2062
sg10
g15
sa(dp2063
g6
VSo let's make it a good one.
p2064
sg8
VJOSH
p2065
sg10
g15
sa(dp2066
g6
VI still hate you.
p2067
sg8
VMANDY
p2068
sg10
g11
sa(dp2069
g6
VWhatever.
p2070
sg8
VJOSH
p2071
sg10
g15
sa(dp2072
g6
VWho was that?
p2073
sg8
VED
p2074
sg10
g15
sa(dp2075
g6
VRoberto Mendoza.
p2076
sg8
VMARGARET
p2077
sg10
g15
sa(dp2078
g6
VIt's not necessary for you to stay here.
p2079
sg8
VHARRISON
p2080
sg10
g15
sa(dp2081
g6
VThe president asked me to stay with you in case you needed anything. I'd be glad to stay outside if you prefer.
p2082
sg8
VCHARLIE
p2083
sg10
g15
sa(dp2084
g6
VYes, please.
p2085
sg8
VHARRISON
p2086
sg10
g11
sa(dp2087
g6
VWould you like anything?
p2088
sg8
VCHARLIE
p2089
sg10
g11
sa(dp2090
g6
VCoffee, please.
p2091
sg8
VHARRISON
p2092
sg10
g15
sa(dp2093
g6
VYes sir. [about to head out]
p2094
sg8
VCHARLIE
p2095
sg10
g15
sa(dp2096
g6
VYou look very familiar. Is it possible we've met?
p2097
sg8
VHARRISON
p2098
sg10
g15
sa(dp2099
g6
VI caddied for two summers at Sandy Hooks, sir.
p2100
sg8
VCHARLIE
p2101
sg10
g15
sa(dp2102
g6
VAh. Yes, of course.
p2103
sg8
VHARRISON
p2104
sg10
g15
sa(dp2105
g6
VCharlie Young.
p2106
sg8
VCHARLIE
p2107
sg10
g15
sa(dp2108
g6
VCharlie, of course.
p2109
sg8
VHARRISON
p2110
sg10
g15
sa(dp2111
g6
VI'll get your coffee. [leaves and closes the door]
p2112
sg8
VCHARLIE
p2113
sg10
g15
sa(dp2114
g6
VI'm sure we're almost done. Sam, what else you got?
p2115
sg8
VBARTLET
p2116
sg10
g15
sa(dp2117
g6
VJudge Mendoza, I have a note that your rulings have been upheld by the Court of Appeals more than any other district judge in the country.
p2118
sg8
VSAM
p2119
sg10
g15
sa(dp2120
g6
VWell, that's what comes by being right most of the time, I guess.
p2121
sg8
VMENDOZA
p2122
sg10
g15
sa(dp2123
g6
VYou need me, Leo?
p2124
sg8
VBARTLET
p2125
sg10
g15
sa(dp2126
g6
VFor just a moment, sir.
p2127
sg8
VLEO
p2128
sg10
g15
sa(dp2129
g6
VWould you excuse me?
p2130
sg8
VBARTLET
p2131
sg10
g11
sa(dp2132
g6
VCertainly.
p2133
sg8
VMENDOZA
p2134
sg10
g15
sa(dp2135
g6
VMr. President...
p2136
sg8
VLEO
p2137
sg10
g15
sa(dp2138
g6
VWhat is it, Leo?
p2139
sg8
VBARTLET
p2140
sg10
g15
sa(dp2141
g6
VThere's gonna be trouble.
p2142
sg8
VLEO
p2143
sg10
g15
sa(dp2144
g6
VLillienfield?
p2145
sg8
VBARTLET
p2146
sg10
g15
sa(dp2147
g6
VYes sir.
p2148
sg8
VLEO
p2149
sg10
g11
sa(dp2150
g6
VHe knows?
p2151
sg8
VBARTLET
p2152
sg10
g15
sa(dp2153
g6
VWe think so.
p2154
sg8
VLEO
p2155
sg10
g15
sa(dp2156
g6
VWe?
p2157
sg8
VBARTLET
p2158
sg10
g15
sa(dp2159
g6
VJosh has it.
p2160
sg8
VLEO
p2161
sg10
g15
sa(dp2162
g6
VWhat does Josh say?
p2163
sg8
VBARTLET
p2164
sg10
g15
sa(dp2165
g6
VGet through it.
p2166
sg8
VLEO
p2167
sg10
g394
sa(dp2168
g6
VJosh is a smart guy.
p2169
sg8
VBARTLET
p2170
sg10
g15
sa(dp2171
g6
VNo sir. Josh is a young guy.
p2172
sg8
VLEO
p2173
sg10
g15
sa(dp2174
g6
VWe used to be too.
p2175
sg8
VBARTLET
p2176
sg10
g15
sa(dp2177
g6
VMr. President...
p2178
sg8
VLEO
p2179
sg10
g15
sa(dp2180
g6
VDid you have a drink yesterday?
p2181
sg8
VBARTLET
p2182
sg10
g15
sa(dp2183
g6
VNo sir.
p2184
sg8
VLEO
p2185
sg10
g15
sa(dp2186
g6
VAre you gonna have one today?
p2187
sg8
VBARTLET
p2188
sg10
g15
sa(dp2189
g6
VNo sir.
p2190
sg8
VLEO
p2191
sg10
g15
sa(dp2192
g6
VThat's all you ever have to say to me.
p2193
sg8
VBARTLET
p2194
sg10
g15
sa(dp2195
g6
VYou know it's gonna make things very hard for a while.
p2196
sg8
VLEO
p2197
sg10
g15
sa(dp2198
g6
VYou fought in a war, got me elected, and you run the country. I think we all owe you one, don't you?
p2199
sg8
VBARTLET
p2200
sg10
g15
sa(dp2201
g6
VMr. President...
p2202
sg8
VCHARLIE
p2203
sg10
g15
sa(dp2204
g6
VDid Harrison get off okay?
p2205
sg8
VBARTLET
p2206
sg10
g15
sa(dp2207
g6
VYes sir. There's a crowd building outside your office.
p2208
sg8
VCHARLIE
p2209
sg10
g15
sa(dp2210
g6
VWhy?
p2211
sg8
VBARTLET
p2212
sg10
g15
sa(dp2213
g6
VI think word's gotten out what's going on in here, sir.
p2214
sg8
VCHARLIE
p2215
sg10
g15
sa(dp2216
g6
VI'll bet it has. [turns to Sam] Do you have any more questions, Sam?
p2217
sg8
VBARTLET
p2218
sg10
g15
sa(dp2219
g6
VNo sir.
p2220
sg8
VSAM
p2221
sg10
g15
sa(dp2222
g6
VI have one, sir.
p2223
sg8
VTOBY
p2224
sg10
g15
sa(dp2225
g6
VLet me say that this is not an easy commission to get appointed to.
p2226
sg8
VMENDOZA
p2227
sg10
g15
sa(dp2228
g6
VJudge, without knowing details of special circumstance, what would you say of someone being fired from refusing to take a drug test at the order of the president?
p2229
sg8
VTOBY
p2230
sg10
g15
sa(dp2231
g6
VWithout details of special circumstances?
p2232
sg8
VMENDOZA
p2233
sg10
g15
sa(dp2234
g6
VYes sir.
p2235
sg8
VTOBY
p2236
sg10
g11
sa(dp2237
g6
VWithout showing cause, I would say that the order constitutes an illegal search, and I would order that the employee be reinstated.
p2238
sg8
VMENDOZA
p2239
sg10
g15
sa(dp2240
g6
VToby?
p2241
sg8
VBARTLET
p2242
sg10
g15
sa(dp2243
g6
VSold.
p2244
sg8
VTOBY
p2245
sg10
g15
sa(dp2246
g6
VJudge Mendoza, would it surprise you to learn that for the past few months, your name has been in the short list of candidates for the bench?
p2247
sg8
VBARTLET
p2248
sg10
g15
sa(dp2249
g6
VYes, Mr. President.
p2250
sg8
VMENDOZA
p2251
sg10
g11
sa(dp2252
g6
VWell, then this is gonna knock your socks off. Tomorrow evening at 5 o'clock, I am naming you as my nominee to be the next associate justice of the United States Supreme Court. You were not the first choice, but you are the last one, and the right one. [beat] Will you accept the nomination?
p2253
sg8
VBARTLET
p2254
sg10
g15
sa(dp2255
g6
V[beat] With honor.
p2256
sg8
VMENDOZA
p2257
sg10
g394
sa(dp2258
g6
VGood.
p2259
sg8
VBARTLET
p2260
sg10
g15
sa(dp2261
g6
VThank you. Sam and Toby will be in charge of your confirmation.
p2262
sg8
VBARTLET
p2263
sg10
g15
sa(dp2264
g6
VCongratulations, Judge.
p2265
sg8
VSAM
p2266
sg10
g15
sa(dp2267
g6
VThank you. [shake hands]
p2268
sg8
VMENDOZA
p2269
sg10
g11
sa(dp2270
g6
VIt's gonna be an excruciating battle, Mr. Justice, one I have no intention of losing.
p2271
sg8
VTOBY
p2272
sg10
g15
sa(dp2273
g6
VWhat do you say, Leo? You up for a good fight?
p2274
sg8
VBARTLET
p2275
sg10
g15
sa(dp2276
g6
VI believe I have one in me, yes sir.
p2277
sg8
VLEO
p2278
sg10
g15
sa(dp2279
g6
VGood. Let the good fight begin.
p2280
sg8
VBARTLET
p2281
sg10
g15
sa(dp2282
g6
VMr. Justice Mendoza!
p2283
sg8
VBARTLET
p2284
sg10
g15
sas.