(dp0
S'season'
p1
I1
sS'episode'
p2
I9
sS'script'
p3
(lp4
(dp5
S'text'
p6
V[into phone] Yes... Yes... Yes... So are you prepared at this point to...
p7
sS'bow_score'
p8
S'positive'
p9
sS'character'
p10
VJOSH
p11
sS'maxent_score'
p12
g9
sa(dp13
g6
V[into phone] Thank you. Thank you, sir. Uh, if you'll sit by the phone for a few minutes, you can expect a call from the president. Thank you again. [hangs up the phone slowly]
p14
sg8
g9
sg10
VJOSH
p15
sg12
S'neutral'
p16
sa(dp17
g6
VYES!
p18
sg8
g16
sg10
VC.J.
p19
sg12
g16
sa(dp20
g6
VIt's done.
p21
sg8
g16
sg10
VJOSH
p22
sg12
g16
sa(dp23
g6
VWe did it!
p24
sg8
g16
sg10
VC.J.
p25
sg12
g16
sa(dp26
g6
VIt is done!
p27
sg8
g16
sg10
VJOSH
p28
sg12
g16
sa(dp29
g6
VIt's done!
p30
sg8
g16
sg10
VC.J.
p31
sg12
g16
sa(dp32
g6
VWho did it?
p33
sg8
g16
sg10
VDONNA
p34
sg12
g16
sa(dp35
g6
VWe did it!
p36
sg8
g16
sg10
VC.J.
p37
sg12
g16
sa(dp38
g6
VI did it! C.J. was on the phone with her fingers crossed.
p39
sg8
g16
sg10
VJOSH
p40
sg12
g16
sa(dp41
g6
VAll you did was just one phone call.
p42
sg8
g16
sg10
VC.J.
p43
sg12
g9
sa(dp44
g6
VIt was a series of phone calls, which I masterminded, while I'm not one to be selfish about credit, I think it is important to know that it is done, and I DID IT! Donna, call Toby. Call Sam. Call Leo. Call the president. Tell them I'm on my way over.
p45
sg8
g9
sg10
VJOSH
p46
sg12
g16
sa(dp47
g6
VCongratulations!
p48
sg8
g16
sg10
VC.J.
p49
sg12
g16
sa(dp50
g6
VNothing to the press.
p51
sg8
g16
sg10
VJOSH
p52
sg12
g16
sa(dp53
g6
VYes. [starts to walk away]
p54
sg8
g16
sg10
VC.J.
p55
sg12
g16
sa(dp56
g6
VClaudia Jean?
p57
sg8
g16
sg10
VJOSH
p58
sg12
g16
sa(dp59
g6
VYeah?
p60
sg8
g16
sg10
VC.J.
p61
sg12
g16
sa(dp62
g6
VWe did it!
p63
sg8
g16
sg10
VJOSH
p64
sg12
g16
sa(dp65
g6
VYeah!
p66
sg8
g16
sg10
VC.J.
p67
sg12
g16
sa(dp68
g6
VWait!
p69
sg8
g16
sg10
VDONNA
p70
sg12
g16
sa(dp71
g6
VWhat?
p72
sg8
g16
sg10
VJOSH
p73
sg12
g16
sa(dp74
g6
VDon't you want to know about the banging in your office?
p75
sg8
g16
sg10
VDONNA
p76
sg12
g16
sa(dp77
g6
VBanging in my office?
p78
sg8
g16
sg10
VJOSH
p79
sg12
g16
sa(dp80
g6
VThey've been at it all morning.
p81
sg8
g16
sg10
VDONNA
p82
sg12
g16
sa(dp83
g6
VBanging?
p84
sg8
g16
sg10
VJOSH
p85
sg12
g16
sa(dp86
g6
VYeah.
p87
sg8
g16
sg10
VDONNA
p88
sg12
g16
sa(dp89
g6
VI don't know what you're talking about.
p90
sg8
g16
sg10
VJOSH
p91
sg12
g16
sa(dp92
g6
VJosh, there's a loud banging or thumping coming from the floor above your office.
p93
sg8
g16
sg10
VDONNA
p94
sg12
g16
sa(dp95
g6
VI didn't notice.
p96
sg8
g16
sg10
VJOSH
p97
sg12
g16
sa(dp98
g6
VHow could you not notice?
p99
sg8
g16
sg10
VDONNA
p100
sg12
g16
sa(dp101
g6
VBecause I didn't, Donna. I've been on the phone for the last hour trying to seal the deal to fill a seat on the Supreme Court.
p102
sg8
g9
sg10
VJOSH
p103
sg12
g16
sa(dp104
g6
VIt was a pretty loud banging, Josh.
p105
sg8
g9
sg10
VDONNA
p106
sg12
g16
sa(dp107
g6
VYou got to understand I'm talking about the United States Supreme Court right?
p108
sg8
g16
sg10
VJOSH
p109
sg12
g16
sa(dp110
g6
VYes.
p111
sg8
g16
sg10
VDONNA
p112
sg12
g9
sa(dp113
g6
VOkay.
p114
sg8
g16
sg10
VJOSH
p115
sg12
g16
sa(dp116
g6
VWho da man?
p117
sg8
g16
sg10
VSAM
p118
sg12
g16
sa(dp119
g6
VYou da man!
p120
sg8
g16
sg10
VTOBY
p121
sg12
g16
sa(dp122
g6
VThis is just gross.
p123
sg8
S'negative'
p124
sg10
VDONNA
p125
sg12
g16
sa(dp126
g6
VWait there for me.
p127
sg8
g16
sg10
VJOSH
p128
sg12
g16
sa(dp129
g6
VGood morning, Mrs. Landingham.
p130
sg8
g16
sg10
VTOBY
p131
sg12
g16
sa(dp132
g6
VGood morning!
p133
sg8
g16
sg10
VJOSH
p134
sg12
g16
sa(dp135
g6
VGood morning, indeed.
p136
sg8
g16
sg10
VSAM
p137
sg12
g16
sa(dp138
g6
VYes, Mrs. Landingham?
p139
sg8
g16
sg10
VJOSH
p140
sg12
g9
sa(dp141
g6
VWell, that depends on your answer to this question, Mrs. Landingham: Who da man?
p142
sg8
g9
sg10
VJOSH
p143
sg12
g16
sa(dp144
g6
VHmmm... Who da man?
p145
sg8
g16
sg10
VJOSH
p146
sg12
g16
sa(dp147
g6
VYou da men.
p148
sg8
g16
sg10
VTOBY
p149
sg12
g16
sa(dp150
g6
VThank you.
p151
sg8
g16
sg10
VJOSH
p152
sg12
g9
sa(dp153
g6
VI heard we may have...
p154
sg8
g16
sg10
VBARTLET
p155
sg12
g16
sa(dp156
g6
VYes sir.
p157
sg8
g9
sg10
VJOSH
p158
sg12
g9
sa(dp159
g6
VI can call him?
p160
sg8
g16
sg10
VBARTLET
p161
sg12
g16
sa(dp162
g6
VHe's waiting for you sir.
p163
sg8
g9
sg10
VJOSH
p164
sg12
g16
sa(dp165
g6
VIt's done?
p166
sg8
g16
sg10
VBARTLET
p167
sg12
g16
sa(dp168
g6
VDone.
p169
sg8
g16
sg10
VJOSH
p170
sg12
g16
sa(dp171
g6
VYou got yourself a Supreme Court nominee, Mr. President.
p172
sg8
g16
sg10
VLEO
p173
sg12
g16
sa(dp174
g6
VThis is huge. Which one of you is the man?
p175
sg8
g16
sg10
VBARTLET
p176
sg12
g16
sa(dp177
g6
VOn this one, we'd like to think of ourselves collectively as the men, sir.
p178
sg8
g9
sg10
VTOBY
p179
sg12
g16
sa(dp180
g6
VMrs. Landingham, let's make the phone call!
p181
sg8
g16
sg10
VBARTLET
p182
sg12
g16
sa(dp183
g6
VCongratulations.
p184
sg8
g16
sg10
VJOSH
p185
sg12
g16
sa(dp186
g6
VThank you. You too. [They shake hands.]
p187
sg8
g16
sg10
VBARTLET
p188
sg12
g16
sa(dp189
g6
VWell done, sir.
p190
sg8
g9
sg10
VSAM
p191
sg12
g16
sa(dp192
g6
VThank you.
p193
sg8
g16
sg10
VBARTLET
p194
sg12
g9
sa(dp195
g6
VYou guys rock.
p196
sg8
g9
sg10
VMANDY
p197
sg12
g16
sa(dp198
g6
VOh, we really do.
p199
sg8
g16
sg10
VSAM
p200
sg12
g16
sa(dp201
g6
VLet's bring in the chairman and the ranking member from judiciary, the leadership from both sides, and C.J. you should...where is C.J.?
p202
sg8
g9
sg10
VLEO
p203
sg12
g16
sa(dp204
g6
V[comes in behind Leo] Right here.
p205
sg8
g16
sg10
VC.J.
p206
sg12
g16
sa(dp207
g6
V[turns around] Oh.
p208
sg8
g16
sg10
VLEO
p209
sg12
g16
sa(dp210
g6
VSorry.
p211
sg8
g16
sg10
VC.J.
p212
sg12
g16
sa(dp213
g6
VYou should wear a bell around your neck, you know that?
p214
sg8
g124
sg10
VLEO
p215
sg12
g16
sa(dp216
g6
VThank you.
p217
sg8
g16
sg10
VC.J.
p218
sg12
g9
sa(dp219
g6
VSo what do we want to we do?
p220
sg8
g16
sg10
VLEO
p221
sg12
g16
sa(dp222
g6
VC.J. will let the press know that the president will introduce his nominee in an east room press ceremony Thursday, 5 p.m.
p223
sg8
g9
sg10
VTOBY
p224
sg12
g16
sa(dp225
g6
VCan we do it on Friday, and give ourselves more time?
p226
sg8
g16
sg10
VJOSH
p227
sg12
g16
sa(dp228
g6
VThursday.
p229
sg8
g16
sg10
VTOBY
p230
sg12
g16
sa(dp231
g6
VWhy?
p232
sg8
g16
sg10
VJOSH
p233
sg12
g16
sa(dp234
g6
VBecause that's when people watch T.V.
p235
sg8
g16
sg10
VSAM
p236
sg12
g16
sa(dp237
g6
VWe can do this in four days?
p238
sg8
g16
sg10
VMANDY
p239
sg12
g16
sa(dp240
g6
VYep.
p241
sg8
g16
sg10
VTOBY
p242
sg12
g16
sa(dp243
g6
VAre you sure?
p244
sg8
g16
sg10
VLEO
p245
sg12
g16
sa(dp246
g6
VYep.
p247
sg8
g16
sg10
VTOBY
p248
sg12
g16
sa(dp249
g6
VToby, you're running the show.
p250
sg8
g16
sg10
VLEO
p251
sg12
g16
sa(dp252
g6
VI know.
p253
sg8
g16
sg10
VTOBY
p254
sg12
g16
sa(dp255
g6
VPut the ball in the hole.
p256
sg8
g16
sg10
VLEO
p257
sg12
g16
sa(dp258
g6
VIt's done.
p259
sg8
g16
sg10
VTOBY
p260
sg12
g16
sa(dp261
g6
VNo, it's not. So get it done.
p262
sg8
g16
sg10
VLEO
p263
sg12
g16
sa(dp264
g6
VYes sir.
p265
sg8
g9
sg10
VTOBY
p266
sg12
g9
sa(dp267
g6
VJosh, get me everything.
p268
sg8
g16
sg10
VTOBY
p269
sg12
g16
sa(dp270
g6
VWe vetted him two months.
p271
sg8
g16
sg10
VJOSH
p272
sg12
g16
sa(dp273
g6
VI'm gonna vet him four more days. I want to know every parking ticket. I want to know every girlfriend he stood up for dinner in 1953. Mandy, you're gonna roll this guy out on a show that makes the queen's coronation look like dinner theater. Sam, you're gonna write the president's introduction. You're also gonna write the Harrison's remarks.
p274
sg8
g9
sg10
VTOBY
p275
sg12
g16
sa(dp276
g6
VHarrison's not gonna like that.
p277
sg8
g16
sg10
VSAM
p278
sg12
g16
sa(dp279
g6
VShow him the robe he gets. He'll like it fine.
p280
sg8
g16
sg10
VTOBY
p281
sg12
g16
sa(dp282
g6
VC.J., no leaks. If the name of this nominee is leaked out before I want it to be leaked out, I'm gonna blame you, and you're gonna find that unpleasant.
p283
sg8
g124
sg10
VTOBY
p284
sg12
g16
sa(dp285
g6
VI got to tell you something, Toby. You're hot when you're like this.
p286
sg8
g16
sg10
VC.J.
p287
sg12
g16
sa(dp288
g6
V[yells] I am gonna put Harrison on the Court! I swear to God I am!
p289
sg8
g9
sg10
VTOBY
p290
sg12
g16
sa(dp291
g6
VWe meet again three hours.
p292
sg8
g16
sg10
VJOSH
p293
sg12
g16
sa(dp294
g6
VC.J., come talk to me.
p295
sg8
g9
sg10
VMANDY
p296
sg12
g16
sa(dp297
g6
VDid you see his face?
p298
sg8
g16
sg10
VSAM
p299
sg12
g16
sa(dp300
g6
VWe're home.
p301
sg8
g16
sg10
VJOSH
p302
sg12
g16
sa(dp303
g6
VI'll see you later.
p304
sg8
g16
sg10
VSAM
p305
sg12
g16
sa(dp306
g6
VIt's a maintenance crew.
p307
sg8
g16
sg10
VDONNA
p308
sg12
g16
sa(dp309
g6
VThe banging?
p310
sg8
g16
sg10
VJOSH
p311
sg12
g16
sa(dp312
g6
VThey're working upstairs.
p313
sg8
g9
sg10
VDONNA
p314
sg12
g16
sa(dp315
g6
VPeyton Cabot Harrison III.
p316
sg8
g16
sg10
VJOSH
p317
sg12
g16
sa(dp318
g6
VYes.
p319
sg8
g16
sg10
VDONNA
p320
sg12
g9
sa(dp321
g6
VPeyton Cabot Harrison III. He sounds like he should be a Supreme Court justice.
p322
sg8
g9
sg10
VJOSH
p323
sg12
g16
sa(dp324
g6
VIt's a good name.
p325
sg8
g9
sg10
VDONNA
p326
sg12
g16
sa(dp327
g6
VPhillips Exeter, Princeton, Rhodes scholar, Harvard Law Review, for which he was, oh yeah, the editor. Did I mention that he was dean of Harvard Law School? Did I mention that his father was attorney general to Eisenhower?
p328
sg8
g9
sg10
VJOSH
p329
sg12
g16
sa(dp330
g6
VPeyton Cabot Harrison III.
p331
sg8
g16
sg10
VDONNA
p332
sg12
g16
sa(dp333
g6
VThat's right.
p334
sg8
g16
sg10
VJOSH
p335
sg12
g16
sa(dp336
g6
VJewish fellow?
p337
sg8
g9
sg10
VDONNA
p338
sg12
g16
sa(dp339
g6
VYou're not gonna ruin this moment for me, Donna.
p340
sg8
g124
sg10
VJOSH
p341
sg12
g16
sa(dp342
g6
VI'm sharing this moment with you.
p343
sg8
g16
sg10
VDONNA
p344
sg12
g16
sa(dp345
g6
VThis is a big day for us.
p346
sg8
g16
sg10
VJOSH
p347
sg12
g16
sa(dp348
g6
VYou're the men.
p349
sg8
g16
sg10
VDONNA
p350
sg12
g16
sa(dp351
g6
VYou know what we're finally gonna have?
p352
sg8
g9
sg10
VJOSH
p353
sg12
g16
sa(dp354
g6
VA waspy old man in the Supreme Court?
p355
sg8
g16
sg10
VDONNA
p356
sg12
g16
sa(dp357
g6
VA smooth confirmation process.
p358
sg8
g16
sg10
VJOSH
p359
sg12
g16
sa(dp360
g6
VYou think?
p361
sg8
g16
sg10
VDONNA
p362
sg12
g16
sa(dp363
g6
VIt's gonna sail.
p364
sg8
g16
sg10
VJOSH
p365
sg12
g16
sa(dp366
g6
VI hope so.
p367
sg8
g9
sg10
VDONNA
p368
sg12
g16
sa(dp369
g6
VIt's gonna sail, Donna.
p370
sg8
g16
sg10
VJOSH
p371
sg12
g16
sa(dp372
g6
VThere's many a slip twixt the tongue and the wrist, Josh.
p373
sg8
g124
sg10
VDONNA
p374
sg12
g16
sa(dp375
g6
VYes. Well, your fortune cookie wisdom notwithstanding, it's gonna sail.
p376
sg8
g9
sg10
VJOSH
p377
sg12
g16
sa(dp378
g6
VPlease don't get your hopes up.
p379
sg8
g16
sg10
VDONNA
p380
sg12
g16
sa(dp381
g6
VWhy shouldn't I get my hopes up?
p382
sg8
g16
sg10
VJOSH
p383
sg12
g16
sa(dp384
g6
VBecause when it doesn't work out, you end up drunk in my apartment in the middle of the night and yell at my roommate's cats.
p385
sg8
g124
sg10
VDONNA
p386
sg12
g16
sa(dp387
g6
VSmooth sailing, Donna.
p388
sg8
g16
sg10
VJOSH
p389
sg12
g16
sa(dp390
g6
VCautious optimism, Josh.
p391
sg8
g9
sg10
VDONNA
p392
sg12
g16
sa(dp393
g6
VNothing bad is gonna happen this week.
p394
sg8
g124
sg10
VJOSH
p395
sg12
g124
sa(dp396
g6
VExercise cautious optimism.
p397
sg8
g9
sg10
VDONNA
p398
sg12
g16
sa(dp399
g6
VLook, there is no reason...
p400
sg8
g9
sg10
VJOSH
p401
sg12
g16
sa(dp402
g6
VWell... okay.
p403
sg8
g16
sg10
VJOSH
p404
sg12
g16
sa(dp405
g6
VYou're too young to retire, Joseph.
p406
sg8
g9
sg10
VBARTLET
p407
sg12
g16
sa(dp408
g6
V[laughs] You're an excellent liar, Mr. President.
p409
sg8
g16
sg10
VCROUCH
p410
sg12
g16
sa(dp411
g6
V[chuckling] Yes sir.
p412
sg8
g9
sg10
VBARTLET
p413
sg12
g9
sa(dp414
g6
VYou're gonna go with Harrison?
p415
sg8
g16
sg10
VCROUCH
p416
sg12
g16
sa(dp417
g6
VHe's on the short list.
p418
sg8
g16
sg10
VBARTLET
p419
sg12
g16
sa(dp420
g6
VYeah?
p421
sg8
g16
sg10
VCROUCH
p422
sg12
g16
sa(dp423
g6
VYeah.
p424
sg8
g16
sg10
VBARTLET
p425
sg12
g16
sa(dp426
g6
VWith how many other names?
p427
sg8
g16
sg10
VCROUCH
p428
sg12
g16
sa(dp429
g6
VWe'll make our announcement on Thursday.
p430
sg8
g16
sg10
VBARTLET
p431
sg12
g16
sa(dp432
g6
VYou've decided on Harrison.
p433
sg8
g16
sg10
VCROUCH
p434
sg12
g16
sa(dp435
g6
VI haven't made a decision yet, Joseph.
p436
sg8
g16
sg10
VBARTLET
p437
sg12
g16
sa(dp438
g6
VYou've made the call. [beat] Did you even consider Mendoza?
p439
sg8
g16
sg10
VCROUCH
p440
sg12
g16
sa(dp441
g6
VMendoza was on the short list.
p442
sg8
g16
sg10
VBARTLET
p443
sg12
g16
sa(dp444
g6
VMendoza was on the short list so you can show you had an Hispanic on the short list.
p445
sg8
g16
sg10
VCROUCH
p446
sg12
g16
sa(dp447
g6
VThat's not true, Joseph.
p448
sg8
g9
sg10
VBARTLET
p449
sg12
g16
sa(dp450
g6
VYou ran great guns in the campaign. It was an insurgency, boy, a sight to see. And then you drove to the middle of the road the moment after you took the oath. Just the middle of the road. Nothing but a long line painted yellow.
p451
sg8
g16
sg10
VCROUCH
p452
sg12
g16
sa(dp453
g6
VExcuse me, sir...
p454
sg8
g9
sg10
VBARTLET
p455
sg12
g16
sa(dp456
g6
VI wanted to retire five years ago. But I waited for a Democrat. I wanted a Democrat. Hmm! And instead I got you.
p457
sg8
g16
sg10
VCROUCH
p458
sg12
g16
sa(dp459
g6
VHey.
p460
sg8
g16
sg10
VDANNY
p461
sg12
g16
sa(dp462
g6
VHey.
p463
sg8
g16
sg10
VC.J.
p464
sg12
g16
sa(dp465
g6
VHow you doing?
p466
sg8
g16
sg10
VDANNY
p467
sg12
g9
sa(dp468
g6
VI'm doing fine, Danny.
p469
sg8
g16
sg10
VC.J.
p470
sg12
g16
sa(dp471
g6
VIs it gonna be Harrison?
p472
sg8
g16
sg10
VDANNY
p473
sg12
g16
sa(dp474
g6
VWhy, why, oh why do you ask me questions that you absolutely, positively know I'm not gonna answer?
p475
sg8
g16
sg10
VC.J.
p476
sg12
g9
sa(dp477
g6
VIt's a good conversation starter.
p478
sg8
g9
sg10
VDANNY
p479
sg12
g16
sa(dp480
g6
VI can't go out on a date with you, Danny.
p481
sg8
g16
sg10
VC.J.
p482
sg12
g16
sa(dp483
g6
VWho asked you?
p484
sg8
g16
sg10
VDANNY
p485
sg12
g9
sa(dp486
g6
VOkay.
p487
sg8
g16
sg10
VC.J.
p488
sg12
g16
sa(dp489
g6
VYou think Harrison is gonna be a good Justice?
p490
sg8
g9
sg10
VDANNY
p491
sg12
g16
sa(dp492
g6
VDanny?
p493
sg8
g16
sg10
VC.J.
p494
sg12
g16
sa(dp495
g6
VYou see what I did there?
p496
sg8
g16
sg10
VDANNY
p497
sg12
g16
sa(dp498
g6
VYeah.
p499
sg8
g16
sg10
VC.J.
p500
sg12
g16
sa(dp501
g6
VI tried to trick you into confirming it was Harrison.
p502
sg8
g124
sg10
VDANNY
p503
sg12
g16
sa(dp504
g6
VYes.
p505
sg8
g16
sg10
VC.J.
p506
sg12
g9
sa(dp507
g6
VIt didn't work.
p508
sg8
g16
sg10
VDANNY
p509
sg12
g16
sa(dp510
g6
VNo.
p511
sg8
g16
sg10
VC.J.
p512
sg12
g16
sa(dp513
g6
VAnd you won't go out on a date with me, right?
p514
sg8
g16
sg10
VDANNY
p515
sg12
g16
sa(dp516
g6
VRight.
p517
sg8
g16
sg10
VC.J.
p518
sg12
g16
sa(dp519
g6
VOkay.
p520
sg8
g16
sg10
VDANNY
p521
sg12
g16
sa(dp522
g6
VI suppose we should get out there.
p523
sg8
g16
sg10
VBARTLET
p524
sg12
g16
sa(dp525
g6
VNot yet, sir.
p526
sg8
g9
sg10
VCROUCH
p527
sg12
g9
sa(dp528
g6
VI'm sorry Joseph, but I am...
p529
sg8
g16
sg10
VBARTLET
p530
sg12
g9
sa(dp531
g6
VI've served on this bench for 38 years. I took my seat the year you began college. I believe I've earned the right to say a word.
p532
sg8
g9
sg10
VCROUCH
p533
sg12
g16
sa(dp534
g6
VYou've said quite a few words.
p535
sg8
g124
sg10
VBARTLET
p536
sg12
g16
sa(dp537
g6
VNot enough.
p538
sg8
g16
sg10
VCROUCH
p539
sg12
g124
sa(dp540
g6
VLet's get out there.
p541
sg8
g16
sg10
VBARTLET
p542
sg12
g16
sa(dp543
g6
VTake the next few days with your staff, and give Mendoza the consideration he deserves.
p544
sg8
g16
sg10
VCROUCH
p545
sg12
g16
sa(dp546
g6
VJoseph, when the next seat opens up, I promise you...
p547
sg8
g9
sg10
VBARTLET
p548
sg12
g16
sa(dp549
g6
VWhen the next seat opens up, you'll be writing your memoirs.
p550
sg8
g16
sg10
VCROUCH
p551
sg12
g16
sa(dp552
g6
VIn three years, I would hope to be running for reel...
p553
sg8
g9
sg10
VBARTLET
p554
sg12
g16
sa(dp555
g6
VYou're gonna get beat in three years.
p556
sg8
g16
sg10
VCROUCH
p557
sg12
g16
sa(dp558
g6
VThat's a little pessimistic, Joseph.
p559
sg8
g16
sg10
VBARTLET
p560
sg12
g16
sa(dp561
g6
VAmerican voters like guts. And Republicans have got them. In the three years, one of them is gonna beat you.
p562
sg8
g9
sg10
VCROUCH
p563
sg12
g16
sa(dp564
g6
VYou know I imagine the view from your largely unscrutinized place in history must be very different from mine. But I remind you sir, that I have the following things to negotiate: an opposition Congress, special interests with power beyond belief, and a bitchy media.
p565
sg8
g9
sg10
VBARTLET
p566
sg12
g16
sa(dp567
g6
VSo did Harry Truman.
p568
sg8
g16
sg10
VCROUCH
p569
sg12
g16
sa(dp570
g6
VWell, I am not Harry Truman.
p571
sg8
g16
sg10
VBARTLET
p572
sg12
g16
sa(dp573
g6
VMr. Bartlet, you needn't point out that fact.
p574
sg8
g16
sg10
VCROUCH
p575
sg12
g16
sa(dp576
g6
V[beat] It's 'Dr. Bartlet,' your honor. Now, let's go start your retirement.
p577
sg8
g9
sg10
VBARTLET
p578
sg12
g16
sa(dp579
g6
VWant my gloves?
p580
sg8
g16
sg10
VDANNY
p581
sg12
g16
sa(dp582
g6
VNo, thanks.
p583
sg8
g16
sg10
VC.J.
p584
sg12
g16
sa(dp585
g6
VI asked because you look pretty cold.
p586
sg8
g16
sg10
VDANNY
p587
sg12
g9
sa(dp588
g6
VI'm fine.
p589
sg8
g16
sg10
VC.J.
p590
sg12
g16
sa(dp591
g6
VWhat do you suppose they're talking about in there?
p592
sg8
g16
sg10
VDANNY
p593
sg12
g16
sa(dp594
g6
VThe president and Justice Crouch are old friends.
p595
sg8
g9
sg10
VC.J.
p596
sg12
g16
sa(dp597
g6
VThe president and Justice Crouch can't stand each other.
p598
sg8
g9
sg10
VDANNY
p599
sg12
g16
sa(dp600
g6
VThe man's retiring today. It's a courtesy call. What do you want from me?
p601
sg8
g9
sg10
VC.J.
p602
sg12
g16
sa(dp603
g6
VDinner and a movie.
p604
sg8
g16
sg10
VDANNY
p605
sg12
g16
sa(dp606
g6
VNo.
p607
sg8
g16
sg10
VC.J.
p608
sg12
g16
sa(dp609
g6
VYou think Crouch is pissed because the president has already settled on Harrison?
p610
sg8
g9
sg10
VDANNY
p611
sg12
g16
sa(dp612
g6
VDanny?
p613
sg8
g16
sg10
VC.J.
p614
sg12
g16
sa(dp615
g6
VI did it again!
p616
sg8
g16
sg10
VDANNY
p617
sg12
g16
sa(dp618
g6
VYeah.
p619
sg8
g16
sg10
VC.J.
p620
sg12
g16
sa(dp621
g6
VBut you know what you did?
p622
sg8
g16
sg10
VDANNY
p623
sg12
g16
sa(dp624
g6
VWhat?
p625
sg8
g16
sg10
VC.J.
p626
sg12
g16
sa(dp627
g6
VYou outfoxed me.
p628
sg8
g16
sg10
VDANNY
p629
sg12
g16
sa(dp630
g6
VYou're killing me. You know that, Danny.
p631
sg8
g124
sg10
VC.J.
p632
sg12
g16
sa(dp633
g6
VHere we go.
p634
sg8
g16
sg10
VWOMAN
p635
sg12
g16
sa(dp636
g6
VThat was inches from my head.
p637
sg8
g16
sg10
VJOSH
p638
sg12
g16
sa(dp639
g6
VJosh.
p640
sg8
g16
sg10
VDONNA
p641
sg12
g16
sa(dp642
g6
VInches.
p643
sg8
g16
sg10
VJOSH
p644
sg12
g16
sa(dp645
g6
VIt was not inches.
p646
sg8
g16
sg10
VDONNA
p647
sg12
g16
sa(dp648
g6
VIt was inches. A little bit this way, a little bit that way, bam! Massive head wound.
p649
sg8
g124
sg10
VJOSH
p650
sg12
g16
sa(dp651
g6
VYou're fine.
p652
sg8
g16
sg10
VDONNA
p653
sg12
g16
sa(dp654
g6
VYeah, but there for the grace of God, you know what I'm saying?
p655
sg8
g9
sg10
VJOSH
p656
sg12
g16
sa(dp657
g6
VYes.
p658
sg8
g16
sg10
VDONNA
p659
sg12
g9
sa(dp660
g6
VI really think if big chunks of ceiling are gonna fall on anyone... I don't know...
p661
sg8
g124
sg10
VJOSH
p662
sg12
g16
sa(dp663
g6
VWhat?
p664
sg8
g16
sg10
VDONNA
p665
sg12
g16
sa(dp666
g6
VIt should be you.
p667
sg8
g16
sg10
VJOSH
p668
sg12
g16
sa(dp669
g6
VUgh. I knew you were gonna say that.
p670
sg8
g16
sg10
VDONNA
p671
sg12
g16
sa(dp672
g6
VFrom now on, before I come in in the morning, I want you to test my office.
p673
sg8
g16
sg10
VJOSH
p674
sg12
g16
sa(dp675
g6
V[comes up] Josh?
p676
sg8
g16
sg10
VMANDY
p677
sg12
g124
sa(dp678
g6
VStaff in ten minutes. [leaves]
p679
sg8
g16
sg10
VDONNA
p680
sg12
g16
sa(dp681
g6
VYou see this?
p682
sg8
g16
sg10
VJOSH
p683
sg12
g16
sa(dp684
g6
VYeah.
p685
sg8
g16
sg10
VMANDY
p686
sg12
g16
sa(dp687
g6
VInches from my head.
p688
sg8
g16
sg10
VJOSH
p689
sg12
g16
sa(dp690
g6
VWhy is Peter Lillienfield holding a press conference?
p691
sg8
g16
sg10
VMANDY
p692
sg12
g16
sa(dp693
g6
VWho cares?
p694
sg8
g16
sg10
VJOSH
p695
sg12
g124
sa(dp696
g6
VI do. Why is Lillienfield holding a press conference?
p697
sg8
g16
sg10
VMANDY
p698
sg12
g16
sa(dp699
g6
VI don't know.
p700
sg8
g16
sg10
VJOSH
p701
sg12
g16
sa(dp702
g6
VIs he unhappy about something?
p703
sg8
g124
sg10
VMANDY
p704
sg12
g16
sa(dp705
g6
VHe's always unhappy about something. [calls] Donna! Where's my east Asia memo?!
p706
sg8
g124
sg10
VJOSH
p707
sg12
g16
sa(dp708
g6
VIt starts in two minutes.
p709
sg8
g16
sg10
VMANDY
p710
sg12
g16
sa(dp711
g6
VWhat starts in two minutes?
p712
sg8
g16
sg10
VJOSH
p713
sg12
g16
sa(dp714
g6
VLillienfield's press conference.
p715
sg8
g16
sg10
VMANDY
p716
sg12
g16
sa(dp717
g6
V[shouts] It's okay, Donna. I'll just come and get it myself!
p718
sg8
g16
sg10
VJOSH
p719
sg12
g16
sa(dp720
g6
VJosh?
p721
sg8
g16
sg10
VMANDY
p722
sg12
g16
sa(dp723
g6
VMandy.
p724
sg8
g16
sg10
VJOSH
p725
sg12
g16
sa(dp726
g6
VI'm just saying that we don't need any surprises today.
p727
sg8
g16
sg10
VMANDY
p728
sg12
g16
sa(dp729
g6
VWe're not gonna have any surprises today.
p730
sg8
g16
sg10
VJOSH
p731
sg12
g16
sa(dp732
g6
VI'm putting on a show. I don't want to get upstaged.
p733
sg8
g16
sg10
VMANDY
p734
sg12
g16
sa(dp735
g6
VYou're not gonna get upstaged.
p736
sg8
g16
sg10
VJOSH
p737
sg12
g16
sa(dp738
g6
VHere.
p739
sg8
g16
sg10
VDONNA
p740
sg12
g16
sa(dp741
g6
VThank you.
p742
sg8
g16
sg10
VJOSH
p743
sg12
g9
sa(dp744
g6
VYou're welcome.
p745
sg8
g16
sg10
VDONNA
p746
sg12
g16
sa(dp747
g6
VYou should be nice to me. I could be dead you know.
p748
sg8
g16
sg10
VJOSH
p749
sg12
g16
sa(dp750
g6
VI don't have that kind of luck. [leaves]
p751
sg8
g9
sg10
VDONNA
p752
sg12
g16
sa(dp753
g6
VYeah?
p754
sg8
g16
sg10
VSAM
p755
sg12
g16
sa(dp756
g6
VI would like you to play out that as a lifelong Democrat, he clerked for a Republican. I would like you to play DOWN that he'd never written a judicial opinion on abortion or revealed his thinking on Roe.
p757
sg8
g16
sg10
VTOBY
p758
sg12
g16
sa(dp759
g6
VI'm already there.
p760
sg8
g16
sg10
VSAM
p761
sg12
g16
sa(dp762
g6
VWell, thank you.
p763
sg8
g16
sg10
VTOBY
p764
sg12
g9
sa(dp765
g6
VWhat's this?
p766
sg8
g16
sg10
VSAM
p767
sg12
g16
sa(dp768
g6
VLillienfield's talking about something that's bothering him today.
p769
sg8
g124
sg10
VTOBY
p770
sg12
g16
sa(dp771
g6
VWHAT could possibly be less interesting? I'll be in my office.
p772
sg8
g9
sg10
VSAM
p773
sg12
g16
sa(dp774
g6
VOkay.
p775
sg8
g16
sg10
VTOBY
p776
sg12
g16
sa(dp777
g6
V[into phone] Get her.
p778
sg8
g16
sg10
VTOBY
p779
sg12
g16
sa(dp780
g6
VC.J.?
p781
sg8
g16
sg10
VCAROL
p782
sg12
g16
sa(dp783
g6
VTell him I'm watching.
p784
sg8
g16
sg10
VC.J.
p785
sg12
g16
sa(dp786
g6
VOne in three?
p787
sg8
g16
sg10
VLEO
p788
sg12
g16
sa(dp789
g6
VYes.
p790
sg8
g16
sg10
VC.J.
p791
sg12
g9
sa(dp792
g6
VHe said one in three White House staffers were on drugs?
p793
sg8
g16
sg10
VLEO
p794
sg12
g16
sa(dp795
g6
VYes.
p796
sg8
g16
sg10
VC.J.
p797
sg12
g9
sa(dp798
g6
VWhere does he get these stats?
p799
sg8
g16
sg10
VLEO
p800
sg12
g16
sa(dp801
g6
VLeo...
p802
sg8
g16
sg10
VC.J.
p803
sg12
g16
sa(dp804
g6
VI mean where does he pull them from?
p805
sg8
g9
sg10
VLEO
p806
sg12
g16
sa(dp807
g6
VOut of the clear blue sky, but that doesn't matter.
p808
sg8
g9
sg10
VC.J.
p809
sg12
g16
sa(dp810
g6
VIs somebody bringing me a tape of this?
p811
sg8
g16
sg10
VLEO
p812
sg12
g16
sa(dp813
g6
VThey're getting it. [leaves]
p814
sg8
g16
sg10
VMARGARET
p815
sg12
g16
sa(dp816
g6
VThis isn't happening to me.
p817
sg8
g16
sg10
VMANDY
p818
sg12
g16
sa(dp819
g6
VNothing's happening. Stay cool.
p820
sg8
g9
sg10
VLEO
p821
sg12
g16
sa(dp822
g6
V[pops his head and walks in] Is it possible for Peter Lillienfield to be a bigger jackass? You think if he tried hard, there's room for him to be a slightly bigger horse's ass than he's being right now?
p823
sg8
g124
sg10
VSAM
p824
sg12
g16
sa(dp825
g6
VAt some point, you hit your head in the ceiling, don't you?
p826
sg8
g124
sg10
VC.J.
p827
sg12
g16
sa(dp828
g6
VI think there's unexplored potential.
p829
sg8
g16
sg10
VSAM
p830
sg12
g16
sa(dp831
g6
V[comes in] 'Sup?
p832
sg8
g16
sg10
VJOSH
p833
sg12
g16
sa(dp834
g6
VJosh.
p835
sg8
g16
sg10
VMANDY
p836
sg12
g16
sa(dp837
g6
VFive White House staffers in the room. I would like to say to the 1.6 of you who are stoned right now, that it's time to share.
p838
sg8
g16
sg10
VJOSH
p839
sg12
g16
sa(dp840
g6
VThis isn't funny, Josh.
p841
sg8
g16
sg10
VMANDY
p842
sg12
g16
sa(dp843
g6
VMandy, if you can't laugh at this, then you're just not having enough fun in show business.
p844
sg8
g9
sg10
VJOSH
p845
sg12
g16
sa(dp846
g6
VJosh?
p847
sg8
g16
sg10
VMANDY
p848
sg12
g16
sa(dp849
g6
VHe's a featherweight, Mandy. He's a hairdo.
p850
sg8
g16
sg10
VJOSH
p851
sg12
g16
sa(dp852
g6
VI think if he put his shoulder into it, he could be a slightly bigger gasbag.
p853
sg8
g9
sg10
VSAM
p854
sg12
g16
sa(dp855
g6
VYeah.
p856
sg8
g16
sg10
VJOSH
p857
sg12
g16
sa(dp858
g6
VYou know, if he really reach for the stars.
p859
sg8
g16
sg10
VSAM
p860
sg12
g16
sa(dp861
g6
V[quickly walks in] Good morning.
p862
sg8
g16
sg10
VTOBY
p863
sg12
g16
sa(dp864
g6
VHey.
p865
sg8
g16
sg10
VC.J.
p866
sg12
g16
sa(dp867
g6
VThere's no way you saw this coming?
p868
sg8
g16
sg10
VTOBY
p869
sg12
g16
sa(dp870
g6
VToby...
p871
sg8
g16
sg10
VLEO
p872
sg12
g16
sa(dp873
g6
VLeo, I know I'm in your office. Forgive me. [yells] But nobody saw this coming?!
p874
sg8
g16
sg10
VTOBY
p875
sg12
g16
sa(dp876
g6
VYeah. I can't believe my psychic didn't tell me, Toby. Rest assured, I'm gonna get my twenty bucks back.
p877
sg8
g9
sg10
VC.J.
p878
sg12
g16
sa(dp879
g6
VShort-term, long-term?
p880
sg8
g16
sg10
VLEO
p881
sg12
g16
sa(dp882
g6
VShort-term nothing.
p883
sg8
g16
sg10
VJOSH
p884
sg12
g16
sa(dp885
g6
VI can't go with nothing.
p886
sg8
g16
sg10
VC.J.
p887
sg12
g16
sa(dp888
g6
VWhy not?
p889
sg8
g16
sg10
VJOSH
p890
sg12
g16
sa(dp891
g6
VPretend we didn't see it?
p892
sg8
g16
sg10
VC.J.
p893
sg12
g16
sa(dp894
g6
VHe's a liar. He's a fool. Categorically deny it and move on.
p895
sg8
g124
sg10
VJOSH
p896
sg12
g16
sa(dp897
g6
VShe can't.
p898
sg8
g16
sg10
VMANDY
p899
sg12
g16
sa(dp900
g6
VI can't.
p901
sg8
g16
sg10
VC.J.
p902
sg12
g16
sa(dp903
g6
VWhy not?
p904
sg8
g16
sg10
VJOSH
p905
sg12
g16
sa(dp906
g6
VBecause more than 1300 people work for the White House, Josh. I go to the Press Room and categorically deny that anyone uses drugs, and it turns out that three guys in the photo lab blew a joint over the weekend, which is not like out of the realm of possibility. And my next question is...
p907
sg8
g16
sg10
VC.J.
p908
sg12
g16
sa(dp909
g6
VBut you categorically denied it, now you admit there are three.
p910
sg8
g124
sg10
VMANDY
p911
sg12
g16
sa(dp912
g6
VYes. Well, I categorically deny that there are any more than three.
p913
sg8
g124
sg10
VC.J.
p914
sg12
g16
sa(dp915
g6
VBut now it seems that the assistant to the deputy director of White House beverages--
p916
sg8
g9
sg10
VMANDY
p917
sg12
g16
sa(dp918
g6
VAll right.
p919
sg8
g16
sg10
VJOSH
p920
sg12
g16
sa(dp921
g6
V--is confessing to a life of a closet junkie.
p922
sg8
g16
sg10
VMANDY
p923
sg12
g16
sa(dp924
g6
VYes, and I understand she's selling her story to Random House for a middle six-figure advance.
p925
sg8
g9
sg10
VC.J.
p926
sg12
g16
sa(dp927
g6
V[now has his head against the wall] All right. Are we done with Masterpiece Theater?
p928
sg8
g16
sg10
VTOBY
p929
sg12
g16
sa(dp930
g6
VC.J., we're looking into it, okay?
p931
sg8
g16
sg10
VLEO
p932
sg12
g16
sa(dp933
g6
VYeah.
p934
sg8
g16
sg10
VC.J.
p935
sg12
g16
sa(dp936
g6
VThat's what we're saying right now.
p937
sg8
g16
sg10
VLEO
p938
sg12
g16
sa(dp939
g6
VI don't care if we say that, but... we're not actually looking into it, are we?
p940
sg8
g16
sg10
VJOSH
p941
sg12
g16
sa(dp942
g6
VYes.
p943
sg8
g16
sg10
VLEO
p944
sg12
g9
sa(dp945
g6
VThis is a joke, right?
p946
sg8
g124
sg10
VJOSH
p947
sg12
g16
sa(dp948
g6
V[walks in] Leo?
p949
sg8
g16
sg10
VMARGARET
p950
sg12
g16
sa(dp951
g6
VYeah? Toby. [points at the staff]
p952
sg8
g16
sg10
VLEO
p953
sg12
g16
sa(dp954
g6
VYeah.
p955
sg8
g16
sg10
VTOBY
p956
sg12
g16
sa(dp957
g6
VC.J., go do your briefing. The president paid a courtesy call on Crouch this morning. We got some exciting names. On the short list is Ed Harrison. We'll introduce the nominee Thursday, 5 o'clock. This business with Lillienfield...
p958
sg8
g9
sg10
VTOBY
p959
sg12
g16
sa(dp960
g6
VI've heard about it, and I'd like the chance to see it first before I comment.
p961
sg8
g16
sg10
VC.J.
p962
sg12
g16
sa(dp963
g6
VIs the president aware?
p964
sg8
g9
sg10
VTOBY
p965
sg12
g16
sa(dp966
g6
VWe'd like to keep this things off the president's desk until we measure what, if any, credibility...
p967
sg8
g9
sg10
VC.J.
p968
sg12
g16
sa(dp969
g6
VGood girl.
p970
sg8
g16
sg10
VTOBY
p971
sg12
g16
sa(dp972
g6
VToby, if the alternative is getting Harrison bumped off the top story...
p973
sg8
g9
sg10
VMANDY
p974
sg12
g16
sa(dp975
g6
VWe're not gonna postpone.
p976
sg8
g16
sg10
VTOBY
p977
sg12
g16
sa(dp978
g6
VLet's end this fast.
p979
sg8
g16
sg10
VMANDY
p980
sg12
g16
sa(dp981
g6
VHow?
p982
sg8
g16
sg10
VJOSH
p983
sg12
g16
sa(dp984
g6
VYou know how.
p985
sg8
g16
sg10
VMANDY
p986
sg12
g16
sa(dp987
g6
VNo, I don't.
p988
sg8
g16
sg10
VJOSH
p989
sg12
g16
sa(dp990
g6
VMandy.
p991
sg8
g16
sg10
VSAM
p992
sg12
g16
sa(dp993
g6
VWhat I'm saying...
p994
sg8
g16
sg10
VMANDY
p995
sg12
g16
sa(dp996
g6
VGo back to work, Mandy.
p997
sg8
g16
sg10
VTOBY
p998
sg12
g16
sa(dp999
g6
VNow, hang on a second. I'd like to hear what-
p1000
sg8
g16
sg10
VJOSH
p1001
sg12
g16
sa(dp1002
g6
VHey! Go back to work.
p1003
sg8
g16
sg10
VTOBY
p1004
sg12
g16
sa(dp1005
g6
VLillienfield is walking on a stage, and he's not gonna get off until he gets off is what I'm saying.
p1006
sg8
g16
sg10
VMANDY
p1007
sg12
g16
sa(dp1008
g6
VWe are not taking drug tests.
p1009
sg8
g16
sg10
VJOSH
p1010
sg12
g16
sa(dp1011
g6
VWhy not?
p1012
sg8
g16
sg10
VMANDY
p1013
sg12
g16
sa(dp1014
g6
VBecause we're not!
p1015
sg8
g16
sg10
VJOSH
p1016
sg12
g16
sa(dp1017
g6
VToby, let's end this.
p1018
sg8
g16
sg10
VMANDY
p1019
sg12
g16
sa(dp1020
g6
VToby, if you...
p1021
sg8
g16
sg10
VJOSH
p1022
sg12
g16
sa(dp1023
g6
VShut up. [to Mandy] Go. [Mandy leaves.] Sam, go back to doing what you're doing.
p1024
sg8
g16
sg10
VTOBY
p1025
sg12
g16
sa(dp1026
g6
VThey just delivered five cartons of Harrison's old papers.
p1027
sg8
g16
sg10
VSAM
p1028
sg12
g16
sa(dp1029
g6
VThen go start reading.
p1030
sg8
g9
sg10
VTOBY
p1031
sg12
g16
sa(dp1032
g6
VToby...
p1033
sg8
g16
sg10
VJOSH
p1034
sg12
g16
sa(dp1035
g6
VWhat do we know? What do they know?
p1036
sg8
g16
sg10
VTOBY
p1037
sg12
g16
sa(dp1038
g6
VNow, wait, hang on a second.
p1039
sg8
g124
sg10
VJOSH
p1040
sg12
g16
sa(dp1041
g6
VJosh...
p1042
sg8
g16
sg10
VTOBY
p1043
sg12
g16
sa(dp1044
g6
VYou're not making me--I'm not gonna be the internal affairs cop around here.
p1045
sg8
g16
sg10
VJOSH
p1046
sg12
g16
sa(dp1047
g6
VYes, you are.
p1048
sg8
g16
sg10
VTOBY
p1049
sg12
g16
sa(dp1050
g6
VYou want to know who's doing what around here, you ask them yourself!
p1051
sg8
g16
sg10
VJOSH
p1052
sg12
g16
sa(dp1053
g6
VThis isn't the time, Josh. We taking water over the side...
p1054
sg8
g16
sg10
VTOBY
p1055
sg12
g16
sa(dp1056
g6
VYes, and I'm not indifferent to that, but there's a principle here-
p1057
sg8
g16
sg10
VJOSH
p1058
sg12
g16
sa(dp1059
g6
VNo, there's not. Not this week. We've been doing this for a year, and all we've gotten is a year older. Our job approval's 48%, and I think that number's soft, and I'm tired of being the field captain for the gang that couldn't shoot straight! We're getting this done! [beat] What do we know? What do they know? Start with me, if you want.
p1060
sg8
g16
sg10
VTOBY
p1061
sg12
g16
sa(dp1062
g6
VHello? This is Sam Seaborn. [listens] What's your name? Uh, I'm not a cop. What's your name? [listens] Where are you right now? [listens] All right. I'm the only one in my office, but as soon as the secretary get--you know what? Hang on. I'm on my way. [hangs up the phone, wears his jacket, heads out, and trips over one of the cartons] Ow!
p1063
sg8
g16
sg10
VSAM
p1064
sg12
g16
sa(dp1065
g6
VA quick confirmation's gonna be good for us.
p1066
sg8
g9
sg10
VBARTLET
p1067
sg12
g16
sa(dp1068
g6
VRitter says we'll get unanimous approval out of committee and 90 votes in the Senate.
p1069
sg8
g9
sg10
VLEO
p1070
sg12
g16
sa(dp1071
g6
VThat's a blowout, Leo.
p1072
sg8
g124
sg10
VBARTLET
p1073
sg12
g16
sa(dp1074
g6
VMm-hmm.
p1075
sg8
g16
sg10
VLEO
p1076
sg12
g16
sa(dp1077
g6
VJust what the doctor ordered. [An agent opens the door.] Thank you.
p1078
sg8
g9
sg10
VBARTLET
p1079
sg12
g16
sa(dp1080
g6
VGood morning, Mrs. Landingham.
p1081
sg8
g16
sg10
VBARTLET
p1082
sg12
g16
sa(dp1083
g6
VGood morning.
p1084
sg8
g16
sg10
VLEO
p1085
sg12
g16
sa(dp1086
g6
VWhen is Harrison getting in?
p1087
sg8
g16
sg10
VBARTLET
p1088
sg12
g16
sa(dp1089
g6
VLate tonight.
p1090
sg8
g16
sg10
VLEO
p1091
sg12
g16
sa(dp1092
g6
VGood.
p1093
sg8
g16
sg10
VBARTLET
p1094
sg12
g16
sa(dp1095
g6
VGood morning, Charlie.
p1096
sg8
g16
sg10
VBARTLET
p1097
sg12
g16
sa(dp1098
g6
VGood morning, Mr. President.
p1099
sg8
g16
sg10
VCHARLIE
p1100
sg12
g16
sa(dp1101
g6
VGood morning.
p1102
sg8
g16
sg10
VLEO
p1103
sg12
g16
sa(dp1104
g6
VPeyton Cabot Harrison. Find out what kind of cigars he likes, what kind of perfume his wife likes, and have them sent over to their hotel, okay?
p1105
sg8
g9
sg10
VBARTLET
p1106
sg12
g16
sa(dp1107
g6
VBack channels, sir?
p1108
sg8
g9
sg10
VCHARLIE
p1109
sg12
g16
sa(dp1110
g6
VYeah.
p1111
sg8
g16
sg10
VBARTLET
p1112
sg12
g16
sa(dp1113
g6
VThey're gonna stake the hotels. Gifts coming from the White House...
p1114
sg8
g16
sg10
VLEO
p1115
sg12
g16
sa(dp1116
g6
VWe're using back channels. What is going on with Lillienfield?
p1117
sg8
g16
sg10
VBARTLET
p1118
sg12
g16
sa(dp1119
g6
VYou're staying out of it.
p1120
sg8
g16
sg10
VLEO
p1121
sg12
g16
sa(dp1122
g6
VFine.
p1123
sg8
g16
sg10
VBARTLET
p1124
sg12
g16
sa(dp1125
g6
VAnything else?
p1126
sg8
g16
sg10
VLEO
p1127
sg12
g16
sa(dp1128
g6
VWe're gonna get this done, right?
p1129
sg8
g16
sg10
VBARTLET
p1130
sg12
g124
sa(dp1131
g6
VYes sir.
p1132
sg8
g9
sg10
VLEO
p1133
sg12
g9
sa(dp1134
g6
VAll right.
p1135
sg8
g16
sg10
VBARTLET
p1136
sg12
g16
sa(dp1137
g6
VI'm on my way.
p1138
sg8
g16
sg10
VBARTLET
p1139
sg12
g16
sa(dp1140
g6
VThank you, Mr. President.
p1141
sg8
g16
sg10
VLEO
p1142
sg12
g9
sa(dp1143
g6
VThank you.
p1144
sg8
g16
sg10
VBARTLET
p1145
sg12
g9
sa(dp1146
g6
VLeo?
p1147
sg8
g16
sg10
VBARTLET
p1148
sg12
g16
sa(dp1149
g6
VYes, sir?
p1150
sg8
g9
sg10
VLEO
p1151
sg12
g9
sa(dp1152
g6
VWe looked at everybody, right?
p1153
sg8
g16
sg10
VBARTLET
p1154
sg12
g16
sa(dp1155
g6
VSir?
p1156
sg8
g16
sg10
VLEO
p1157
sg12
g16
sa(dp1158
g6
VThe short list. We looked at Mendoza?
p1159
sg8
g16
sg10
VBARTLET
p1160
sg12
g16
sa(dp1161
g6
VWe looked at him.
p1162
sg8
g16
sg10
VLEO
p1163
sg12
g16
sa(dp1164
g6
VLeo...
p1165
sg8
g16
sg10
VBARTLET
p1166
sg12
g16
sa(dp1167
g6
VWe fixed on Harrison.
p1168
sg8
g16
sg10
VLEO
p1169
sg12
g16
sa(dp1170
g6
VYeah, you're right. I'll see you later.
p1171
sg8
g16
sg10
VBARTLET
p1172
sg12
g16
sa(dp1173
g6
VYes sir.
p1174
sg8
g9
sg10
VLEO
p1175
sg12
g9
sa(dp1176
g6
VGood morning, gentlemen. Sorry to keep you waiting. Let's go.
p1177
sg8
g16
sg10
VBARTLET
p1178
sg12
g16
sa(dp1179
g6
VGood morning. Good morning. Hang on a second.
p1180
sg8
g16
sg10
VBARTLET
p1181
sg12
g16
sa(dp1182
g6
VGood morning. Keep your seats.
p1183
sg8
g16
sg10
VBARTLET
p1184
sg12
g16
sa(dp1185
g6
VGood morning.
p1186
sg8
g16
sg10
VBARTLET
p1187
sg12
g16
sa(dp1188
g6
VGood morning, Toby.
p1189
sg8
g16
sg10
VBARTLET
p1190
sg12
g16
sa(dp1191
g6
VGood morning, sir.
p1192
sg8
g9
sg10
VTOBY
p1193
sg12
g16
sa(dp1194
g6
VDo this for me. Put together some information on Roberto Mendoza.
p1195
sg8
g9
sg10
VBARTLET
p1196
sg12
g16
sa(dp1197
g6
VSir... it's natural to have second thoughts, but...
p1198
sg8
g16
sg10
VTOBY
p1199
sg12
g16
sa(dp1200
g6
VNo. I just want to be able to know something. There's gonna be a lot of questions. I don't want it to be 'we had a Hispanic on the short list.'
p1201
sg8
g16
sg10
VBARTLET
p1202
sg12
g16
sa(dp1203
g6
VWhat is it you're looking for?
p1204
sg8
g16
sg10
VTOBY
p1205
sg12
g16
sa(dp1206
g6
VThe reason we didn't go with him.
p1207
sg8
g9
sg10
VBARTLET
p1208
sg12
g16
sa(dp1209
g6
VThe reason we didn't go with him is because Harrison said yes.
p1210
sg8
g9
sg10
VTOBY
p1211
sg12
g16
sa(dp1212
g6
VLet's do better than that.
p1213
sg8
g16
sg10
VBARTLET
p1214
sg12
g16
sa(dp1215
g6
VYes sir.
p1216
sg8
g9
sg10
VTOBY
p1217
sg12
g9
sa(dp1218
g6
VUh, what's going on with this drug thing?
p1219
sg8
g16
sg10
VBARTLET
p1220
sg12
g16
sa(dp1221
g6
VYou don't want a piece of that.
p1222
sg8
g16
sg10
VTOBY
p1223
sg12
g16
sa(dp1224
g6
VAll right. I'll trust ya. Thank you.
p1225
sg8
g16
sg10
VBARTLET
p1226
sg12
g9
sa(dp1227
g6
V[passes by] Good morning, sir.
p1228
sg8
g9
sg10
VSAM
p1229
sg12
g16
sa(dp1230
g6
VGood morning, Sam.
p1231
sg8
g16
sg10
VBARTLET
p1232
sg12
g16
sa(dp1233
g6
VToby.
p1234
sg8
g16
sg10
VSAM
p1235
sg12
g16
sa(dp1236
g6
VHe wants me to look at Mendoza. What...?
p1237
sg8
g16
sg10
VTOBY
p1238
sg12
g16
sa(dp1239
g6
V[slams an envelope on Toby's desk] I got a phone call before from a guy with some information. I just picked it up. I read it on the way back. It's not good.
p1240
sg8
g9
sg10
VSAM
p1241
sg12
g16
sa(dp1242
g6
VIs it the drugs?
p1243
sg8
g16
sg10
VTOBY
p1244
sg12
g16
sa(dp1245
g6
VNo.
p1246
sg8
g16
sg10
VSAM
p1247
sg12
g16
sa(dp1248
g6
VWhat is it?
p1249
sg8
g16
sg10
VTOBY
p1250
sg12
g16
sa(dp1251
g6
VIt's Harrison.
p1252
sg8
g16
sg10
VSAM
p1253
sg12
g16
sa(dp1254
g6
VClose the door.
p1255
sg8
g16
sg10
VTOBY
p1256
sg12
g16
sa(dp1257
g6
VIt's called an unsigned note. Every member of Law Review is required to prepare one. It's like an article.
p1258
sg8
g9
sg10
VSAM
p1259
sg12
g16
sa(dp1260
g6
VI know what an unsigned note is.
p1261
sg8
g16
sg10
VTOBY
p1262
sg12
g16
sa(dp1263
g6
VIt's 40 or so pages, well researched, footnoted, and revised with faculty supervision, and it's published.
p1264
sg8
g9
sg10
VSAM
p1265
sg12
g16
sa(dp1266
g6
VWithout the names.
p1267
sg8
g16
sg10
VTOBY
p1268
sg12
g16
sa(dp1269
g6
VWithout the names. It's scholarly work.
p1270
sg8
g16
sg10
VSAM
p1271
sg12
g16
sa(dp1272
g6
VHow do we know Harrison...?
p1273
sg8
g16
sg10
VTOBY
p1274
sg12
g16
sa(dp1275
g6
VToby...
p1276
sg8
g16
sg10
VSAM
p1277
sg12
g16
sa(dp1278
g6
VWhat, I'm supposed to just trust 'the guy on the phone?'
p1279
sg8
g16
sg10
VTOBY
p1280
sg12
g16
sa(dp1281
g6
VI spent the last three months reading everything Harrison's written, from decisions, to memos, to amacus briefs, Toby. He's the author of the unsigned note.
p1282
sg8
g9
sg10
VSAM
p1283
sg12
g16
sa(dp1284
g6
V[pause, calls] Bonnie!
p1285
sg8
g124
sg10
VTOBY
p1286
sg12
g16
sa(dp1287
g6
V[opens the door] Yeah?
p1288
sg8
g16
sg10
VBONNIE
p1289
sg12
g16
sa(dp1290
g6
VI'm gonna need the next five minutes the president's got.
p1291
sg8
g9
sg10
VTOBY
p1292
sg12
g16
sa(dp1293
g6
VYeah.
p1294
sg8
g16
sg10
VBONNIE
p1295
sg12
g16
sa(dp1296
g6
VHow does Lillienfield get his information?
p1297
sg8
g9
sg10
VDONNA
p1298
sg12
g16
sa(dp1299
g6
VAh, he's got a half government oversight committee. These are the people who literally decide if we get heat and electricity in the White House.
p1300
sg8
g124
sg10
VJOSH
p1301
sg12
g16
sa(dp1302
g6
VSo they have access to background information?
p1303
sg8
g9
sg10
VDONNA
p1304
sg12
g124
sa(dp1305
g6
VYeah.
p1306
sg8
g16
sg10
VJOSH
p1307
sg12
g16
sa(dp1308
g6
VJosh?
p1309
sg8
g16
sg10
VDONNA
p1310
sg12
g16
sa(dp1311
g6
VYeah?
p1312
sg8
g16
sg10
VJOSH
p1313
sg12
g16
sa(dp1314
g6
VYou shouldn't feel uncomfortable about interviewing me.
p1315
sg8
g124
sg10
VDONNA
p1316
sg12
g16
sa(dp1317
g6
VI met you. I talked to you. I hired you. You know anybody around here who uses drugs?
p1318
sg8
g16
sg10
VJOSH
p1319
sg12
g16
sa(dp1320
g6
VYeah.
p1321
sg8
g16
sg10
VDONNA
p1322
sg12
g16
sa(dp1323
g6
VYou want to tell me who they are?
p1324
sg8
g16
sg10
VJOSH
p1325
sg12
g16
sa(dp1326
g6
VNo.
p1327
sg8
g16
sg10
VDONNA
p1328
sg12
g16
sa(dp1329
g6
VGood for you. Consider yourself interviewed.
p1330
sg8
g16
sg10
VJOSH
p1331
sg12
g16
sa(dp1332
g6
VYou're a good boy, Josh.
p1333
sg8
g16
sg10
VDONNA
p1334
sg12
g16
sa(dp1335
g6
VDonna, I've seen your records.
p1336
sg8
g16
sg10
VJOSH
p1337
sg12
g16
sa(dp1338
g6
VI know.
p1339
sg8
g16
sg10
VDONNA
p1340
sg12
g16
sa(dp1341
g6
VYou need to learn that 'no parking' means no parking.
p1342
sg8
g9
sg10
VJOSH
p1343
sg12
g16
sa(dp1344
g6
VThe thing is sometimes I can't find a space.
p1345
sg8
g16
sg10
VDONNA
p1346
sg12
g16
sa(dp1347
g6
VGo to work.
p1348
sg8
g16
sg10
VJOSH
p1349
sg12
g16
sa(dp1350
g6
VWe have everyone take a drug test and be done with it.
p1351
sg8
g16
sg10
VMANDY
p1352
sg12
g16
sa(dp1353
g6
VWhat makes you think that everyone here can pass a drug test?
p1354
sg8
g16
sg10
VJOSH
p1355
sg12
g16
sa(dp1356
g6
VThe ones who can't already know it and will quietly resign.
p1357
sg8
g124
sg10
VMANDY
p1358
sg12
g16
sa(dp1359
g6
V[laughs] Oh, okay. Problem solved.
p1360
sg8
g16
sg10
VJOSH
p1361
sg12
g16
sa(dp1362
g6
VWhat is wrong in this day and age with demonstrating that the White House is drug free? What is wrong with giving people that comfort?
p1363
sg8
g16
sg10
VMANDY
p1364
sg12
g16
sa(dp1365
g6
VI would think that in this day and age, people would be more comfortable knowing that they will not now, nor will they ever be forced to turn over evidence against themselves. And please, do not try and paint your position as anything other than preservation of a spotlight.
p1366
sg8
g16
sg10
VJOSH
p1367
sg12
g16
sa(dp1368
g6
VThis thing gets bungled, and we're not gonna have to struggle much to find the spotlight.
p1369
sg8
g124
sg10
VMANDY
p1370
sg12
g16
sa(dp1371
g6
V[pause] So what do you think's really going on here?
p1372
sg8
g16
sg10
VJOSH
p1373
sg12
g16
sa(dp1374
g6
VI don't know.
p1375
sg8
g16
sg10
VMANDY
p1376
sg12
g16
sa(dp1377
g6
VI don't know either.
p1378
sg8
g16
sg10
VJOSH
p1379
sg12
g16
sa(dp1380
g6
VThat's what makes me nervous.
p1381
sg8
g124
sg10
VMANDY
p1382
sg12
g16
sa(dp1383
g6
VWhat do we do?
p1384
sg8
g16
sg10
VJOSH
p1385
sg12
g16
sa(dp1386
g6
VIt's time to talk to whoever it is you talk to.
p1387
sg8
g9
sg10
VMANDY
p1388
sg12
g16
sa(dp1389
g6
VYeah.
p1390
sg8
g16
sg10
VJOSH
p1391
sg12
g16
sa(dp1392
g6
VIs there any reason to believe that White House staffers regularly use illegal drugs?
p1393
sg8
g16
sg10
VREPORTER
p1394
sg12
g16
sa(dp1395
g6
VFor those who didn't understand me the first nine times, we are looking into this.
p1396
sg8
g16
sg10
VC.J.
p1397
sg12
g16
sa(dp1398
g6
VC.J.?
p1399
sg8
g16
sg10
VREPORTER
p1400
sg12
g16
sa(dp1401
g6
VC.J., would you forgive a blunt question?
p1402
sg8
g9
sg10
VSTEVE
p1403
sg12
g16
sa(dp1404
g6
VThese questions haven't been blunt yet?
p1405
sg8
g16
sg10
VC.J.
p1406
sg12
g16
sa(dp1407
g6
VDo you use drugs?
p1408
sg8
g16
sg10
VSTEVE
p1409
sg12
g16
sa(dp1410
g6
VNo, and you're forgiven.
p1411
sg8
g9
sg10
VC.J.
p1412
sg12
g16
sa(dp1413
g6
VIt's been 24 hours since Congressman Lillienfield made his accusations, C.J. When is the White House...?
p1414
sg8
g16
sg10
VCHRIS
p1415
sg12
g16
sa(dp1416
g6
VWe have 1300 people on the payroll, Chris. That's a lot of information to gather, and it's not like we were loaded with free time before. And let me just add that as no one and nothing here has been subpoenaed, and Mr. Lillienfield has offered nothing to support his very bizarre claim, we're not feeling the real need to get this done in a hurry.
p1417
sg8
g9
sg10
VC.J.
p1418
sg12
g16
sa(dp1419
g6
VC.J., one more question...
p1420
sg8
g9
sg10
VCHRIS
p1421
sg12
g16
sa(dp1422
g6
VThank you. That's all. [walks away, to a staffer] Set fire to the room. Do it now.
p1423
sg8
g16
sg10
VC.J.
p1424
sg12
g16
sa(dp1425
g6
VHow you doing?
p1426
sg8
g16
sg10
VDANNY
p1427
sg12
g9
sa(dp1428
g6
VWhat do you want?
p1429
sg8
g16
sg10
VC.J.
p1430
sg12
g16
sa(dp1431
g6
VIt was a bit of a blunder back there.
p1432
sg8
g124
sg10
VDANNY
p1433
sg12
g16
sa(dp1434
g6
VIt was fine.
p1435
sg8
g16
sg10
VC.J.
p1436
sg12
g16
sa(dp1437
g6
VYou challenged Lillienfield to present evidence. He knows his cue when he hears it.
p1438
sg8
g9
sg10
VDANNY
p1439
sg12
g16
sa(dp1440
g6
V[looks around] I left my notebook somewhere.
p1441
sg8
g16
sg10
VC.J.
p1442
sg12
g16
sa(dp1443
g6
VAlso, did you really want to be the first person to use the word 'subpoena'?
p1444
sg8
g9
sg10
VDANNY
p1445
sg12
g16
sa(dp1446
g6
VIn the context?
p1447
sg8
g16
sg10
VC.J.
p1448
sg12
g16
sa(dp1449
g6
VWhat the context was. It's the only word anybody's gonna read tomorrow.
p1450
sg8
g9
sg10
VDANNY
p1451
sg12
g16
sa(dp1452
g6
VI really don't need your tips, Danny.
p1453
sg8
g16
sg10
VC.J.
p1454
sg12
g16
sa(dp1455
g6
VAs a matter of fact, you do, C.J. but that's not why I'm here.
p1456
sg8
g16
sg10
VDANNY
p1457
sg12
g16
sa(dp1458
g6
VWhy are you here?
p1459
sg8
g16
sg10
VC.J.
p1460
sg12
g16
sa(dp1461
g6
VI'm here because there's a basketball team called the New York Knickerbockers who are playing in town tonight.
p1462
sg8
g9
sg10
VDANNY
p1463
sg12
g16
sa(dp1464
g6
VI don't have time for a little basketball game!
p1465
sg8
g9
sg10
VC.J.
p1466
sg12
g16
sa(dp1467
g6
VNeither do I. Which is why we I thought could watch it in your office while I explain it to you in a patronizing manner, 'cause I know it's something women usually like.
p1468
sg8
g16
sg10
VDANNY
p1469
sg12
g16
sa(dp1470
g6
VThank you, anyway.
p1471
sg8
g16
sg10
VC.J.
p1472
sg12
g16
sa(dp1473
g6
VYou understand I'll talk slow and explain it the way any girl would appreciate.
p1474
sg8
g9
sg10
VDANNY
p1475
sg12
g16
sa(dp1476
g6
VDanny. You got a minute?
p1477
sg8
g16
sg10
VJOSH
p1478
sg12
g16
sa(dp1479
g6
VWalk me to my car.
p1480
sg8
g16
sg10
VDANNY
p1481
sg12
g16
sa(dp1482
g6
VJosh, the information I get I have to print.
p1483
sg8
g9
sg10
VDANNY
p1484
sg12
g16
sa(dp1485
g6
VDo you have any information?
p1486
sg8
g9
sg10
VJOSH
p1487
sg12
g16
sa(dp1488
g6
VNo.
p1489
sg8
g16
sg10
VDANNY
p1490
sg12
g16
sa(dp1491
g6
VWould you tell me if you did?
p1492
sg8
g16
sg10
VJOSH
p1493
sg12
g16
sa(dp1494
g6
VWhat kind of information?
p1495
sg8
g9
sg10
VDANNY
p1496
sg12
g16
sa(dp1497
g6
VYou know what kind of information.
p1498
sg8
g9
sg10
VJOSH
p1499
sg12
g16
sa(dp1500
g6
VHey.
p1501
sg8
g16
sg10
VDANNY
p1502
sg12
g16
sa(dp1503
g6
VYou know no one knows where I got it.
p1504
sg8
g16
sg10
VJOSH
p1505
sg12
g16
sa(dp1506
g6
VYou know in the highroad, I'm not supposed to hand out any information I get.
p1507
sg8
g9
sg10
VDANNY
p1508
sg12
g16
sa(dp1509
g6
VYou're right.
p1510
sg8
g16
sg10
VJOSH
p1511
sg12
g16
sa(dp1512
g6
VYou know I'm right. It's not my job to help you out. As a matter of fact, I get fired from my job for helping you out.
p1513
sg8
g9
sg10
VDANNY
p1514
sg12
g16
sa(dp1515
g6
VI know that.
p1516
sg8
g16
sg10
VJOSH
p1517
sg12
g16
sa(dp1518
g6
VLillienfield's a jackass, but he's not stupid. He's talking. He's got something.
p1519
sg8
g124
sg10
VDANNY
p1520
sg12
g16
sa(dp1521
g6
VWhat?
p1522
sg8
g16
sg10
VJOSH
p1523
sg12
g16
sa(dp1524
g6
VWhatever it is it's small potatoes. It's enough to get the rock rolling down the mountain.
p1525
sg8
g16
sg10
VDANNY
p1526
sg12
g16
sa(dp1527
g6
VWhat's he trying to hit?
p1528
sg8
g124
sg10
VJOSH
p1529
sg12
g16
sa(dp1530
g6
VI don't know.
p1531
sg8
g16
sg10
VDANNY
p1532
sg12
g16
sa(dp1533
g6
VIs it the nomination?
p1534
sg8
g9
sg10
VJOSH
p1535
sg12
g16
sa(dp1536
g6
VThat's what I thought too, but Harrison's gonna sail by no matter what.
p1537
sg8
g16
sg10
VDANNY
p1538
sg12
g16
sa(dp1539
g6
VNobody said it's Harrison.
p1540
sg8
g16
sg10
VJOSH
p1541
sg12
g16
sa(dp1542
g6
VYeah. Yeah. My point is this: He's not gonna waste it on a done deal. He's after something better.
p1543
sg8
g16
sg10
VDANNY
p1544
sg12
g16
sa(dp1545
g6
VOkay. Thanks. [starts to walk the other way]
p1546
sg8
g16
sg10
VJOSH
p1547
sg12
g16
sa(dp1548
g6
VJosh, it's one of those times, man. Don't screw this up.
p1549
sg8
g16
sg10
VDANNY
p1550
sg12
g16
sa(dp1551
g6
VC.J. likes goldfish.
p1552
sg8
g16
sg10
VJOSH
p1553
sg12
g16
sa(dp1554
g6
VWhat?
p1555
sg8
g16
sg10
VDANNY
p1556
sg12
g16
sa(dp1557
g6
VShe likes goldfish. Can't get enough of them.
p1558
sg8
g16
sg10
VJOSH
p1559
sg12
g16
sa(dp1560
g6
VThanks!
p1561
sg8
g16
sg10
VDANNY
p1562
sg12
g16
sa(dp1563
g6
VHere's an interesting statement. [reads] 'I join Judge Black, insomuch as while enjoying my privacy, I am compelled to admit that government has a right to invade it unless specifically prohibited by some specific Constitutional provision.' Unquote.
p1564
sg8
g9
sg10
VBARTLET
p1565
sg12
g16
sa(dp1566
g6
VMr. President, this paper, is, in no uncertain terms, an argument of privacy is not a right guaranteed by the Constitution.
p1567
sg8
g124
sg10
VSAM
p1568
sg12
g16
sa(dp1569
g6
VWhy isn't this ever been brought up?
p1570
sg8
g16
sg10
VBARTLET
p1571
sg12
g16
sa(dp1572
g6
VIt never came up, sir.
p1573
sg8
g9
sg10
VTOBY
p1574
sg12
g16
sa(dp1575
g6
VWe spent two months vetting our homerun nominee, he doesn't believe in a privacy guarantee, and it never came up?
p1576
sg8
g16
sg10
VBARTLET
p1577
sg12
g16
sa(dp1578
g6
VIt was simply never an issue in any order to be handed down, and if I may sir, we don't know for sure that he's the author of the document...
p1579
sg8
g9
sg10
VTOBY
p1580
sg12
g16
sa(dp1581
g6
VWe do know.
p1582
sg8
g16
sg10
VSAM
p1583
sg12
g16
sa(dp1584
g6
V...If he is, I don't think we can necessarily hold a 55 year old man responsible...
p1585
sg8
g9
sg10
VTOBY
p1586
sg12
g16
sa(dp1587
g6
VToby?
p1588
sg8
g16
sg10
VSAM
p1589
sg12
g16
sa(dp1590
g6
V...for something he wrote when he's 26.
p1591
sg8
g16
sg10
VTOBY
p1592
sg12
g16
sa(dp1593
g6
VWe're not gonna be able to hold him responsible if we put him on the bench. And I promise you, this issue's gonna come up!
p1594
sg8
g9
sg10
VSAM
p1595
sg12
g16
sa(dp1596
g6
V[pause, sighs] When does Harrison get in?
p1597
sg8
g16
sg10
VBARTLET
p1598
sg12
g16
sa(dp1599
g6
VLater tonight.
p1600
sg8
g16
sg10
VSAM
p1601
sg12
g16
sa(dp1602
g6
VI want him first thing in the morning.
p1603
sg8
g16
sg10
VBARTLET
p1604
sg12
g16
sa(dp1605
g6
VYes sir.
p1606
sg8
g9
sg10
VSAM
p1607
sg12
g9
sa(dp1608
g6
VWhen was the last time either of you slept, I don't care. Get ready for this.
p1609
sg8
g16
sg10
VBARTLET
p1610
sg12
g16
sa(dp1611
g6
VYes sir.
p1612
sg8
g9
sg10
VTOBY
p1613
sg12
g9
sa(dp1614
g6
VThank you, Mr. President.
p1615
sg8
g16
sg10
VSAM
p1616
sg12
g9
sa(dp1617
g6
VThank you sir.
p1618
sg8
g9
sg10
VTOBY
p1619
sg12
g9
sa(dp1620
g6
VSeventeen billion isn't gonna fly. They're gonna say it's too much at thirteen five.
p1621
sg8
g16
sg10
VLEO
p1622
sg12
g16
sa(dp1623
g6
VExcuse me.
p1624
sg8
g16
sg10
VBARTLET
p1625
sg12
g16
sa(dp1626
g6
VGive us the room. [The people leave at an instant.]
p1627
sg8
g124
sg10
VLEO
p1628
sg12
g16
sa(dp1629
g6
VI want to meet Mendoza.
p1630
sg8
g16
sg10
VBARTLET
p1631
sg12
g16
sa(dp1632
g6
VYes sir.
p1633
sg8
g9
sg10
VLEO
p1634
sg12
g9
sa(dp1635
g6
VDoes Mendoza know why he's coming here?
p1636
sg8
g16
sg10
VTOBY
p1637
sg12
g16
sa(dp1638
g6
VHe thinks he's interviewing for a place in the President's Commission for Hispanic Opportunity.
p1639
sg8
g16
sg10
VMANDY
p1640
sg12
g16
sa(dp1641
g6
VIs there such a thing as the president's...?
p1642
sg8
g9
sg10
VTOBY
p1643
sg12
g16
sa(dp1644
g6
VIt's the best I could do in short notice, Toby.
p1645
sg8
g16
sg10
VMANDY
p1646
sg12
g16
sa(dp1647
g6
VFine.
p1648
sg8
g16
sg10
VTOBY
p1649
sg12
g16
sa(dp1650
g6
VI had to make a letterhead.
p1651
sg8
g16
sg10
VMANDY
p1652
sg12
g9
sa(dp1653
g6
VThat must have taxed your considerable creativity.
p1654
sg8
g9
sg10
VTOBY
p1655
sg12
g16
sa(dp1656
g6
VToby?
p1657
sg8
g16
sg10
VMANDY
p1658
sg12
g16
sa(dp1659
g6
VFine.
p1660
sg8
g16
sg10
VTOBY
p1661
sg12
g16
sa(dp1662
g6
VJudge Harrison, first thing's first, are you the author of this unsigned note?
p1663
sg8
g9
sg10
VBARTLET
p1664
sg12
g16
sa(dp1665
g6
V[chuckles] Yes sir.
p1666
sg8
g9
sg10
VHARRISON
p1667
sg12
g9
sa(dp1668
g6
VWhen I was 26, I wrote a paper supporting the deregulation of Far East trade barriers. Nearly got thrown out of the London School of Economics. I was young and stupid, and trying to make some noise.
p1669
sg8
g16
sg10
VBARTLET
p1670
sg12
g16
sa(dp1671
g6
VYes sir.
p1672
sg8
g9
sg10
VHARRISON
p1673
sg12
g9
sa(dp1674
g6
VI'm gonna bring Toby Ziegler and Sam Seaborn in here and talk about this a little bit.
p1675
sg8
g9
sg10
VBARTLET
p1676
sg12
g16
sa(dp1677
g6
VThat's fine sir.
p1678
sg8
g9
sg10
VHARRISON
p1679
sg12
g16
sa(dp1680
g6
VOkay. Charlie, please?
p1681
sg8
g16
sg10
VBARTLET
p1682
sg12
g16
sa(dp1683
g6
VToby, you got a minute?
p1684
sg8
g16
sg10
VJOSH
p1685
sg12
g16
sa(dp1686
g6
VThey're about to call me in.
p1687
sg8
g16
sg10
VTOBY
p1688
sg12
g16
sa(dp1689
g6
VPrivacy?
p1690
sg8
g16
sg10
VJOSH
p1691
sg12
g16
sa(dp1692
g6
VI don't know.
p1693
sg8
g16
sg10
VTOBY
p1694
sg12
g16
sa(dp1695
g6
VHe doesn't acknowledge the protection?
p1696
sg8
g16
sg10
VJOSH
p1697
sg12
g16
sa(dp1698
g6
VHang on a second.
p1699
sg8
g16
sg10
VTOBY
p1700
sg12
g16
sa(dp1701
g6
VWhen were you gonna tell me this?
p1702
sg8
g16
sg10
VJOSH
p1703
sg12
g16
sa(dp1704
g6
VNumber one: I don't report to you.
p1705
sg8
g16
sg10
VTOBY
p1706
sg12
g16
sa(dp1707
g6
VToby...
p1708
sg8
g16
sg10
VJOSH
p1709
sg12
g16
sa(dp1710
g6
VNumber two: He wrote the paper a quarter century ago.
p1711
sg8
g16
sg10
VTOBY
p1712
sg12
g16
sa(dp1713
g6
VHe hasn't changed his mind.
p1714
sg8
g16
sg10
VJOSH
p1715
sg12
g16
sa(dp1716
g6
VWe don't know whether he changed his mind or not.
p1717
sg8
g16
sg10
VTOBY
p1718
sg12
g16
sa(dp1719
g6
VWe don't care whether he changed his mind or not. You're painting a picture for the president.
p1720
sg8
g9
sg10
VJOSH
p1721
sg12
g16
sa(dp1722
g6
VThe president can paint his own picture.
p1723
sg8
g9
sg10
VTOBY
p1724
sg12
g16
sa(dp1725
g6
VYeah, but he listens to you. [beat] When did we get the idea that Harrison was our guy? When we used to talk it was never Harrison.
p1726
sg8
g9
sg10
VJOSH
p1727
sg12
g16
sa(dp1728
g6
V[walks up] Toby?
p1729
sg8
g16
sg10
VCHARLIE
p1730
sg12
g124
sa(dp1731
g6
VYeah?
p1732
sg8
g16
sg10
VTOBY
p1733
sg12
g16
sa(dp1734
g6
VThey're ready for you.
p1735
sg8
g16
sg10
VCHARLIE
p1736
sg12
g16
sa(dp1737
g6
VLeo?
p1738
sg8
g16
sg10
VMARGARET
p1739
sg12
g16
sa(dp1740
g6
VYeah?
p1741
sg8
g16
sg10
VLEO
p1742
sg12
g16
sa(dp1743
g6
VJosh was wondering if you had a moment.
p1744
sg8
g16
sg10
VMARGARET
p1745
sg12
g16
sa(dp1746
g6
VYeah.
p1747
sg8
g16
sg10
VLEO
p1748
sg12
g16
sa(dp1749
g6
VLeo.
p1750
sg8
g16
sg10
VJOSH
p1751
sg12
g16
sa(dp1752
g6
VHey.
p1753
sg8
g16
sg10
VLEO
p1754
sg12
g16
sa(dp1755
g6
VI guess you're the guy with the worst job in the building this week, huh?
p1756
sg8
g9
sg10
VLEO
p1757
sg12
g16
sa(dp1758
g6
V[laughs] I was interrogating this intern from the Legislative Liaison's Office, and she broke down crying while telling me about the bong she had made out of an eggplant.
p1759
sg8
g124
sg10
VJOSH
p1760
sg12
g16
sa(dp1761
g6
VYou can do that?
p1762
sg8
g16
sg10
VLEO
p1763
sg12
g16
sa(dp1764
g6
VI used to use a potato.
p1765
sg8
g16
sg10
VJOSH
p1766
sg12
g16
sa(dp1767
g6
VYou've always been industrious.
p1768
sg8
g16
sg10
VLEO
p1769
sg12
g16
sa(dp1770
g6
V[goes around and sits across Leo] Lillienfield's not after that kid in the Liaison's Office, and he's not even after the Senior Staff.
p1771
sg8
g16
sg10
VJOSH
p1772
sg12
g16
sa(dp1773
g6
VYeah.
p1774
sg8
g16
sg10
VLEO
p1775
sg12
g16
sa(dp1776
g6
VLeo, you... know the worst kept secret in Washington... is that you're a recovering alcoholic, right?
p1777
sg8
g16
sg10
VJOSH
p1778
sg12
g16
sa(dp1779
g6
VI had a hunch.
p1780
sg8
g124
sg10
VLEO
p1781
sg12
g16
sa(dp1782
g6
VLeo, you're... Boston-Irish Catholic. Back there and back then, a drinking problem wasn't a problem. [beat] This isn't what he's after... Were you maybe into something that wasn't so acceptable?
p1783
sg8
g124
sg10
VJOSH
p1784
sg12
g16
sa(dp1785
g6
V[pause] Pills.
p1786
sg8
g16
sg10
VLEO
p1787
sg12
g16
sa(dp1788
g6
VWere you in treatment?
p1789
sg8
g16
sg10
VJOSH
p1790
sg12
g16
sa(dp1791
g6
VSierra-Tucson. Six years ago.
p1792
sg8
g16
sg10
VLEO
p1793
sg12
g16
sa(dp1794
g6
VLeo...
p1795
sg8
g16
sg10
VJOSH
p1796
sg12
g16
sa(dp1797
g6
VRecords kept by these facilities are confidential, Josh.
p1798
sg8
g16
sg10
VLEO
p1799
sg12
g16
sa(dp1800
g6
V[quietly] He's got 'em.
p1801
sg8
g16
sg10
VJOSH
p1802
sg12
g16
sa(dp1803
g6
VYou're Leo McGarry. You're not gonna be taken down by this... small fraction of a man. [stands and opens the door] I won't permit it.
p1804
sg8
g124
sg10
VJOSH
p1805
sg12
g16
sa(dp1806
g6
VJudges are bound to interpret the Constitution within the strict parameters of the text itself. The Constitution doesn't provide for a right of privacy. The right doesn't exist.
p1807
sg8
g16
sg10
VHARRISON
p1808
sg12
g16
sa(dp1809
g6
VThe third amendment says soldiers can't be quartered in private homes. The fifth provides protection against self-incrimination, and the fourth against unreasonable searches. You deny the right to privacy lived in those passages?
p1810
sg8
g124
sg10
VSAM
p1811
sg12
g16
sa(dp1812
g6
VNo. I do not deny it, but the fact that the framers enumerated those specific protections is all the more reason to believe that they had no intention of making privacy a de facto right.
p1813
sg8
g16
sg10
VHARRISON
p1814
sg12
g16
sa(dp1815
g6
VThey just fought a revolution but they had no question of their freedom. The Bill of Rights wasn't meant to codify the most crucial of those rights not to limit the others.
p1816
sg8
g9
sg10
VSAM
p1817
sg12
g16
sa(dp1818
g6
VI do this for a living, Mr. Seaborn.
p1819
sg8
g16
sg10
VHARRISON
p1820
sg12
g16
sa(dp1821
g6
VSo do I, your honor.
p1822
sg8
g9
sg10
VSAM
p1823
sg12
g16
sa(dp1824
g6
VPeyton, do I have the right to put on an ugly plaid jacket and a loud polka-dot tie and walk down Main Street?
p1825
sg8
g124
sg10
VBARTLET
p1826
sg12
g16
sa(dp1827
g6
VYes.
p1828
sg8
g16
sg10
VHARRISON
p1829
sg12
g9
sa(dp1830
g6
VWhere in the Constitution is that right guaranteed?
p1831
sg8
g16
sg10
VBARTLET
p1832
sg12
g16
sa(dp1833
g6
VFirst Amendment. Freedom of expression.
p1834
sg8
g16
sg10
VHARRISON
p1835
sg12
g16
sa(dp1836
g6
VWhat about the use of cream in my coffee? Surely, there can be no free speech argument to be made there?
p1837
sg8
g9
sg10
VBARTLET
p1838
sg12
g16
sa(dp1839
g6
VNo.
p1840
sg8
g16
sg10
VHARRISON
p1841
sg12
g16
sa(dp1842
g6
VSo you have no objection to the state of New Hampshire passing a law banning use of cream in coffee?
p1843
sg8
g16
sg10
VBARTLET
p1844
sg12
g16
sa(dp1845
g6
VI would have strong objection, Mr. President, as I like cream as well, but I would have no Constitutional basis to strike down the law when you brought this case to the Supreme Court.
p1846
sg8
g124
sg10
VHARRISON
p1847
sg12
g16
sa(dp1848
g6
VAs I lose the votes of coffee drinkers everywhere.
p1849
sg8
g124
sg10
VBARTLET
p1850
sg12
g16
sa(dp1851
g6
VHey.
p1852
sg8
g16
sg10
VDANNY
p1853
sg12
g16
sa(dp1854
g6
VHey.
p1855
sg8
g16
sg10
VC.J.
p1856
sg12
g16
sa(dp1857
g6
VWhat you doing?
p1858
sg8
g16
sg10
VDANNY
p1859
sg12
g16
sa(dp1860
g6
VYou were right.
p1861
sg8
g16
sg10
VC.J.
p1862
sg12
g16
sa(dp1863
g6
VI know.
p1864
sg8
g16
sg10
VDANNY
p1865
sg12
g16
sa(dp1866
g6
VThe word 'subpoena' appears in the lead in every story of this morning's papers.
p1867
sg8
g9
sg10
VC.J.
p1868
sg12
g16
sa(dp1869
g6
VI know.
p1870
sg8
g16
sg10
VDANNY
p1871
sg12
g16
sa(dp1872
g6
VNot yours.
p1873
sg8
g16
sg10
VC.J.
p1874
sg12
g16
sa(dp1875
g6
VThat's just 'cause I couldn't spell it.
p1876
sg8
g16
sg10
VDANNY
p1877
sg12
g16
sa(dp1878
g6
VWhat are you holding?
p1879
sg8
g16
sg10
VC.J.
p1880
sg12
g16
sa(dp1881
g6
VIt's a goldfish.
p1882
sg8
g16
sg10
VDANNY
p1883
sg12
g16
sa(dp1884
g6
VWhy?
p1885
sg8
g16
sg10
VC.J.
p1886
sg12
g16
sa(dp1887
g6
VIt's for you.
p1888
sg8
g16
sg10
VDANNY
p1889
sg12
g16
sa(dp1890
g6
VReally?
p1891
sg8
g16
sg10
VC.J.
p1892
sg12
g16
sa(dp1893
g6
VJosh said you liked goldfish.
p1894
sg8
g16
sg10
VDANNY
p1895
sg12
g16
sa(dp1896
g6
V[out of her laugh] The crackers, Danny. The cheese things that you have at a party?
p1897
sg8
g9
sg10
VC.J.
p1898
sg12
g16
sa(dp1899
g6
VWell... You know what, I'm not a hundred percent sure I'm supposed to know that.
p1900
sg8
g16
sg10
VDANNY
p1901
sg12
g16
sa(dp1902
g6
VThe crackers, Danny.
p1903
sg8
g16
sg10
VC.J.
p1904
sg12
g16
sa(dp1905
g6
VFine. Now I got a goldfish.
p1906
sg8
g16
sg10
VDANNY
p1907
sg12
g16
sa(dp1908
g6
V[laughs] Give it to me.
p1909
sg8
g16
sg10
VC.J.
p1910
sg12
g16
sa(dp1911
g6
VNo.
p1912
sg8
g16
sg10
VDANNY
p1913
sg12
g16
sa(dp1914
g6
VNo, you'll kill it.
p1915
sg8
g124
sg10
VC.J.
p1916
sg12
g9
sa(dp1917
g6
VYou think I can't take care of a goldfish?
p1918
sg8
g16
sg10
VDANNY
p1919
sg12
g16
sa(dp1920
g6
VI absolutely do not. [takes the fishbowl from Danny]
p1921
sg8
g16
sg10
VC.J.
p1922
sg12
g16
sa(dp1923
g6
VThe name's Gail, by the way.
p1924
sg8
g16
sg10
VDANNY
p1925
sg12
g16
sa(dp1926
g6
VThe fish?
p1927
sg8
g16
sg10
VC.J.
p1928
sg12
g16
sa(dp1929
g6
VYeah.
p1930
sg8
g16
sg10
VDANNY
p1931
sg12
g16
sa(dp1932
g6
VYou named it Gail?
p1933
sg8
g16
sg10
VC.J.
p1934
sg12
g16
sa(dp1935
g6
VNo, the guy in the store.
p1936
sg8
g9
sg10
VDANNY
p1937
sg12
g16
sa(dp1938
g6
V[laughs again] Oh... That's... Come here. [kisses Danny on the cheek] Thanks for the fish.
p1939
sg8
g16
sg10
VC.J.
p1940
sg12
g16
sa(dp1941
g6
VKeep your head in the game.
p1942
sg8
g16
sg10
VDANNY
p1943
sg12
g16
sa(dp1944
g6
VIn 1787, there was a sizable block of delegates who were initially opposed to the Bill of Rights. One member of the Georgia delegation had to stay by way of opposition: 'If we list the set of rights, some fools in the future are going to claim that people are entitled only to those rights enumerated and no longer. The framers knew...'
p1945
sg8
g124
sg10
VSAM
p1946
sg12
g16
sa(dp1947
g6
VWere you just calling me a fool, Mr. Seaborn?
p1948
sg8
g124
sg10
VHARRISON
p1949
sg12
g16
sa(dp1950
g6
VI wasn't calling you a fool, sir, the brand new state of Georgia was.
p1951
sg8
g16
sg10
VSAM
p1952
sg12
g16
sa(dp1953
g6
VGentlemen, laws must emanate from the Constitution.
p1954
sg8
g16
sg10
VHARRISON
p1955
sg12
g16
sa(dp1956
g6
VThere are natural laws, judge.
p1957
sg8
g16
sg10
VTOBY
p1958
sg12
g16
sa(dp1959
g6
VI do not deny there are natural laws, Mr. Ziegler. I only deny that judges are empowered to enforce them.
p1960
sg8
g124
sg10
VHARRISON
p1961
sg12
g16
sa(dp1962
g6
VThen who will?
p1963
sg8
g16
sg10
VTOBY
p1964
sg12
g16
sa(dp1965
g6
VThat's not up to me. And this sideshow is over. With all due respect, Mr. President, I find this kind of questioning very rude.
p1966
sg8
g9
sg10
VHARRISON
p1967
sg12
g16
sa(dp1968
g6
VWell then, you're really gonna enjoy meeting the U.S. Senate.
p1969
sg8
g9
sg10
VSAM
p1970
sg12
g16
sa(dp1971
g6
VBe that as it may, it's disgusting. We all know you need me as much as I need you. I read the same polling information you do. Seven to ten point bump, 90 votes, unanimous out of committee, I was courted. Now, you have me taken to school by some kid.
p1972
sg8
g9
sg10
VHARRISON
p1973
sg12
g16
sa(dp1974
g6
VThis Sam is young, drives me nuts too, but he took you off for a ride, sir, because that's what I told him to do.
p1975
sg8
g9
sg10
VBARTLET
p1976
sg12
g16
sa(dp1977
g6
VI am an extremely well credentialed man, Mr. President, and I'm unaccustomed to this sort of questioning.
p1978
sg8
g16
sg10
VHARRISON
p1979
sg12
g16
sa(dp1980
g6
VI understand, Peyton. Could you give us a little time, please? We'll make you comfortable while you're waiting.
p1981
sg8
g16
sg10
VBARTLET
p1982
sg12
g16
sa(dp1983
g6
VCertainly.
p1984
sg8
g16
sg10
VHARRISON
p1985
sg12
g16
sa(dp1986
g6
VThank you.
p1987
sg8
g16
sg10
VBARTLET
p1988
sg12
g9
sa(dp1989
g6
VPut him on a bus.
p1990
sg8
g16
sg10
VSAM
p1991
sg12
g16
sa(dp1992
g6
VWith a guaranteed confirmation we're sending out the door based on a 30-year-old paper, which by the way, no one will know about but us.
p1993
sg8
g16
sg10
VTOBY
p1994
sg12
g16
sa(dp1995
g6
VYou don't think the guy who called Sam wouldn't know how to call a senator's office?
p1996
sg8
g16
sg10
VBARTLET
p1997
sg12
g16
sa(dp1998
g6
VMr. President, if this is really about abortion, we already talked about...
p1999
sg8
g124
sg10
VTOBY
p2000
sg12
g16
sa(dp2001
g6
VIt's not about abortion. It's about the next 20 years. Twenties and thirties, it was the role of government. Fifties and sixties, it was civil rights. The next two decades, it's gonna be privacy. I'm talking about the Internet. I'm talking about cellphones. I'm talking about health records, and who's gay and who's not. And moreover, in a country born on a will to be free, what could be more fundamental than this?
p2002
sg8
g16
sg10
VSAM
p2003
sg12
g16
sa(dp2004
g6
VToby?
p2005
sg8
g16
sg10
VBARTLET
p2006
sg12
g16
sa(dp2007
g6
V[beat] Let's meet Mendoza.
p2008
sg8
g16
sg10
VTOBY
p2009
sg12
g16
sa(dp2010
g6
VThey're meeting with Mendoza.
p2011
sg8
g16
sg10
VMANDY
p2012
sg12
g16
sa(dp2013
g6
VYeah.
p2014
sg8
g16
sg10
VJOSH
p2015
sg12
g16
sa(dp2016
g6
VYeah, and I'm just gonna go kill myself now.
p2017
sg8
g124
sg10
VMANDY
p2018
sg12
g16
sa(dp2019
g6
VYou think Mendoza would be a bad justice?
p2020
sg8
g16
sg10
VJOSH
p2021
sg12
g16
sa(dp2022
g6
VI think Mendoza would make a great justice. I think he makes a lousy nominee.
p2023
sg8
g9
sg10
VMANDY
p2024
sg12
g16
sa(dp2025
g6
VWhy?
p2026
sg8
g16
sg10
VJOSH
p2027
sg12
g16
sa(dp2028
g6
VHe's ruled in favor of same sex marriages...
p2029
sg8
g9
sg10
VMANDY
p2030
sg12
g16
sa(dp2031
g6
VHe didn't rule in favor of it, Mandy. He's not recommending it. He's ruled that the state has no right to interfere with it.
p2032
sg8
g16
sg10
VJOSH
p2033
sg12
g16
sa(dp2034
g6
VHe's got the broadest possible interpretation for free speech.
p2035
sg8
g9
sg10
VMANDY
p2036
sg12
g16
sa(dp2037
g6
VAnd listening to you sometimes, I honestly wish you'd narrow it, so...
p2038
sg8
g16
sg10
VJOSH
p2039
sg12
g9
sa(dp2040
g6
VYou don't have to tell me how to be a good person, Josh. I'm the one who has to sell this. And he is not exactly America's idea of Supreme Court justice.
p2041
sg8
g9
sg10
VMANDY
p2042
sg12
g16
sa(dp2043
g6
VMandy, I don't...
p2044
sg8
g16
sg10
VJOSH
p2045
sg12
g16
sa(dp2046
g6
VLet's do a side-by-side comparison. [reads from piece of paper] Harrison went to Walnut Park Country Day, Phillips Exeter, and Princeton undergrad, and Harvard Law. Mendoza attended P.S. 138 in Brooklyn, City University of New York, and the New York Police Department. Harrison clerked for Warren Berger. Mendoza...
p2047
sg8
g16
sg10
VMANDY
p2048
sg12
g16
sa(dp2049
g6
V[off of the top of his head] New York City Police Department '65 to '76, Assistant District Attorney Brooklyn '76 to '80, Assistant U.S. Attorney Eastern District, Federal District Judge, Eastern District -- Let me tell you something, Mendoza went to Law School the hard way. He got shot in the leg, and when they offered him a hundred percent dispensation, he took a desk job instead and went to law school at night. He's brilliant, decisive, compassionate, and experienced. And if you don't think that he's America's idea of a jurist, then you don't have enough faith in Americans.
p2050
sg8
g9
sg10
VJOSH
p2051
sg12
g16
sa(dp2052
g6
VIt's not Americans I don't have faith in, Josh. It's the White House Senior Staff.
p2053
sg8
g9
sg10
VMANDY
p2054
sg12
g16
sa(dp2055
g6
VThis is not gonna be an easy one, and if all hell breaks loose over Lillienfield, it could honestly cripple us for a year, maybe more.
p2056
sg8
g124
sg10
VMANDY
p2057
sg12
g16
sa(dp2058
g6
V[sighs] Well, I mean, just the law of large numbers says We got to win one one of these days, right?
p2059
sg8
g9
sg10
VJOSH
p2060
sg12
g16
sa(dp2061
g6
VYeah.
p2062
sg8
g16
sg10
VMANDY
p2063
sg12
g16
sa(dp2064
g6
VSo let's make it a good one.
p2065
sg8
g9
sg10
VJOSH
p2066
sg12
g16
sa(dp2067
g6
VI still hate you.
p2068
sg8
g124
sg10
VMANDY
p2069
sg12
g9
sa(dp2070
g6
VWhatever.
p2071
sg8
g16
sg10
VJOSH
p2072
sg12
g16
sa(dp2073
g6
VWho was that?
p2074
sg8
g16
sg10
VED
p2075
sg12
g16
sa(dp2076
g6
VRoberto Mendoza.
p2077
sg8
g16
sg10
VMARGARET
p2078
sg12
g16
sa(dp2079
g6
VIt's not necessary for you to stay here.
p2080
sg8
g16
sg10
VHARRISON
p2081
sg12
g16
sa(dp2082
g6
VThe president asked me to stay with you in case you needed anything. I'd be glad to stay outside if you prefer.
p2083
sg8
g9
sg10
VCHARLIE
p2084
sg12
g16
sa(dp2085
g6
VYes, please.
p2086
sg8
g16
sg10
VHARRISON
p2087
sg12
g9
sa(dp2088
g6
VWould you like anything?
p2089
sg8
g16
sg10
VCHARLIE
p2090
sg12
g9
sa(dp2091
g6
VCoffee, please.
p2092
sg8
g16
sg10
VHARRISON
p2093
sg12
g16
sa(dp2094
g6
VYes sir. [about to head out]
p2095
sg8
g9
sg10
VCHARLIE
p2096
sg12
g16
sa(dp2097
g6
VYou look very familiar. Is it possible we've met?
p2098
sg8
g9
sg10
VHARRISON
p2099
sg12
g16
sa(dp2100
g6
VI caddied for two summers at Sandy Hooks, sir.
p2101
sg8
g9
sg10
VCHARLIE
p2102
sg12
g16
sa(dp2103
g6
VAh. Yes, of course.
p2104
sg8
g16
sg10
VHARRISON
p2105
sg12
g16
sa(dp2106
g6
VCharlie Young.
p2107
sg8
g16
sg10
VCHARLIE
p2108
sg12
g16
sa(dp2109
g6
VCharlie, of course.
p2110
sg8
g16
sg10
VHARRISON
p2111
sg12
g16
sa(dp2112
g6
VI'll get your coffee. [leaves and closes the door]
p2113
sg8
g16
sg10
VCHARLIE
p2114
sg12
g16
sa(dp2115
g6
VI'm sure we're almost done. Sam, what else you got?
p2116
sg8
g16
sg10
VBARTLET
p2117
sg12
g16
sa(dp2118
g6
VJudge Mendoza, I have a note that your rulings have been upheld by the Court of Appeals more than any other district judge in the country.
p2119
sg8
g16
sg10
VSAM
p2120
sg12
g16
sa(dp2121
g6
VWell, that's what comes by being right most of the time, I guess.
p2122
sg8
g16
sg10
VMENDOZA
p2123
sg12
g16
sa(dp2124
g6
VYou need me, Leo?
p2125
sg8
g16
sg10
VBARTLET
p2126
sg12
g16
sa(dp2127
g6
VFor just a moment, sir.
p2128
sg8
g9
sg10
VLEO
p2129
sg12
g16
sa(dp2130
g6
VWould you excuse me?
p2131
sg8
g124
sg10
VBARTLET
p2132
sg12
g9
sa(dp2133
g6
VCertainly.
p2134
sg8
g16
sg10
VMENDOZA
p2135
sg12
g16
sa(dp2136
g6
VMr. President...
p2137
sg8
g16
sg10
VLEO
p2138
sg12
g16
sa(dp2139
g6
VWhat is it, Leo?
p2140
sg8
g16
sg10
VBARTLET
p2141
sg12
g16
sa(dp2142
g6
VThere's gonna be trouble.
p2143
sg8
g16
sg10
VLEO
p2144
sg12
g16
sa(dp2145
g6
VLillienfield?
p2146
sg8
g16
sg10
VBARTLET
p2147
sg12
g16
sa(dp2148
g6
VYes sir.
p2149
sg8
g9
sg10
VLEO
p2150
sg12
g9
sa(dp2151
g6
VHe knows?
p2152
sg8
g16
sg10
VBARTLET
p2153
sg12
g16
sa(dp2154
g6
VWe think so.
p2155
sg8
g16
sg10
VLEO
p2156
sg12
g16
sa(dp2157
g6
VWe?
p2158
sg8
g16
sg10
VBARTLET
p2159
sg12
g16
sa(dp2160
g6
VJosh has it.
p2161
sg8
g16
sg10
VLEO
p2162
sg12
g16
sa(dp2163
g6
VWhat does Josh say?
p2164
sg8
g16
sg10
VBARTLET
p2165
sg12
g16
sa(dp2166
g6
VGet through it.
p2167
sg8
g16
sg10
VLEO
p2168
sg12
g124
sa(dp2169
g6
VJosh is a smart guy.
p2170
sg8
g16
sg10
VBARTLET
p2171
sg12
g16
sa(dp2172
g6
VNo sir. Josh is a young guy.
p2173
sg8
g9
sg10
VLEO
p2174
sg12
g16
sa(dp2175
g6
VWe used to be too.
p2176
sg8
g16
sg10
VBARTLET
p2177
sg12
g16
sa(dp2178
g6
VMr. President...
p2179
sg8
g16
sg10
VLEO
p2180
sg12
g16
sa(dp2181
g6
VDid you have a drink yesterday?
p2182
sg8
g16
sg10
VBARTLET
p2183
sg12
g16
sa(dp2184
g6
VNo sir.
p2185
sg8
g9
sg10
VLEO
p2186
sg12
g16
sa(dp2187
g6
VAre you gonna have one today?
p2188
sg8
g16
sg10
VBARTLET
p2189
sg12
g16
sa(dp2190
g6
VNo sir.
p2191
sg8
g9
sg10
VLEO
p2192
sg12
g16
sa(dp2193
g6
VThat's all you ever have to say to me.
p2194
sg8
g16
sg10
VBARTLET
p2195
sg12
g16
sa(dp2196
g6
VYou know it's gonna make things very hard for a while.
p2197
sg8
g16
sg10
VLEO
p2198
sg12
g16
sa(dp2199
g6
VYou fought in a war, got me elected, and you run the country. I think we all owe you one, don't you?
p2200
sg8
g124
sg10
VBARTLET
p2201
sg12
g16
sa(dp2202
g6
VMr. President...
p2203
sg8
g16
sg10
VCHARLIE
p2204
sg12
g16
sa(dp2205
g6
VDid Harrison get off okay?
p2206
sg8
g16
sg10
VBARTLET
p2207
sg12
g16
sa(dp2208
g6
VYes sir. There's a crowd building outside your office.
p2209
sg8
g9
sg10
VCHARLIE
p2210
sg12
g16
sa(dp2211
g6
VWhy?
p2212
sg8
g16
sg10
VBARTLET
p2213
sg12
g16
sa(dp2214
g6
VI think word's gotten out what's going on in here, sir.
p2215
sg8
g9
sg10
VCHARLIE
p2216
sg12
g16
sa(dp2217
g6
VI'll bet it has. [turns to Sam] Do you have any more questions, Sam?
p2218
sg8
g16
sg10
VBARTLET
p2219
sg12
g16
sa(dp2220
g6
VNo sir.
p2221
sg8
g9
sg10
VSAM
p2222
sg12
g16
sa(dp2223
g6
VI have one, sir.
p2224
sg8
g9
sg10
VTOBY
p2225
sg12
g16
sa(dp2226
g6
VLet me say that this is not an easy commission to get appointed to.
p2227
sg8
g16
sg10
VMENDOZA
p2228
sg12
g16
sa(dp2229
g6
VJudge, without knowing details of special circumstance, what would you say of someone being fired from refusing to take a drug test at the order of the president?
p2230
sg8
g9
sg10
VTOBY
p2231
sg12
g16
sa(dp2232
g6
VWithout details of special circumstances?
p2233
sg8
g9
sg10
VMENDOZA
p2234
sg12
g16
sa(dp2235
g6
VYes sir.
p2236
sg8
g9
sg10
VTOBY
p2237
sg12
g9
sa(dp2238
g6
VWithout showing cause, I would say that the order constitutes an illegal search, and I would order that the employee be reinstated.
p2239
sg8
g124
sg10
VMENDOZA
p2240
sg12
g16
sa(dp2241
g6
VToby?
p2242
sg8
g16
sg10
VBARTLET
p2243
sg12
g16
sa(dp2244
g6
VSold.
p2245
sg8
g16
sg10
VTOBY
p2246
sg12
g16
sa(dp2247
g6
VJudge Mendoza, would it surprise you to learn that for the past few months, your name has been in the short list of candidates for the bench?
p2248
sg8
g9
sg10
VBARTLET
p2249
sg12
g16
sa(dp2250
g6
VYes, Mr. President.
p2251
sg8
g16
sg10
VMENDOZA
p2252
sg12
g9
sa(dp2253
g6
VWell, then this is gonna knock your socks off. Tomorrow evening at 5 o'clock, I am naming you as my nominee to be the next associate justice of the United States Supreme Court. You were not the first choice, but you are the last one, and the right one. [beat] Will you accept the nomination?
p2254
sg8
g9
sg10
VBARTLET
p2255
sg12
g16
sa(dp2256
g6
V[beat] With honor.
p2257
sg8
g9
sg10
VMENDOZA
p2258
sg12
g124
sa(dp2259
g6
VGood.
p2260
sg8
g16
sg10
VBARTLET
p2261
sg12
g16
sa(dp2262
g6
VThank you. Sam and Toby will be in charge of your confirmation.
p2263
sg8
g16
sg10
VBARTLET
p2264
sg12
g16
sa(dp2265
g6
VCongratulations, Judge.
p2266
sg8
g16
sg10
VSAM
p2267
sg12
g16
sa(dp2268
g6
VThank you. [shake hands]
p2269
sg8
g16
sg10
VMENDOZA
p2270
sg12
g9
sa(dp2271
g6
VIt's gonna be an excruciating battle, Mr. Justice, one I have no intention of losing.
p2272
sg8
g124
sg10
VTOBY
p2273
sg12
g16
sa(dp2274
g6
VWhat do you say, Leo? You up for a good fight?
p2275
sg8
g16
sg10
VBARTLET
p2276
sg12
g16
sa(dp2277
g6
VI believe I have one in me, yes sir.
p2278
sg8
g9
sg10
VLEO
p2279
sg12
g16
sa(dp2280
g6
VGood. Let the good fight begin.
p2281
sg8
g16
sg10
VBARTLET
p2282
sg12
g16
sa(dp2283
g6
VMr. Justice Mendoza!
p2284
sg8
g16
sg10
VBARTLET
p2285
sg12
g16
sas.