(dp0
S'season'
p1
I2
sS'episode'
p2
I12
sS'script'
p3
(lp4
(dp5
S'text'
p6
VAre we patched into the Pentagon?
p7
sS'bow_score'
p8
S'neutral'
p9
sS'character'
p10
VLEO
p11
sS'maxent_score'
p12
g9
sa(dp13
g6
VCan we hear them?
p14
sg8
g9
sg10
VLEO
p15
sg12
g9
sa(dp16
g6
VWe can hear what they're saying at command?
p17
sg8
g9
sg10
VLEO
p18
sg12
g9
sa(dp19
g6
VWhy can't I hear anything?
p20
sg8
g9
sg10
VLEO
p21
sg12
g9
sa(dp22
g6
VGuys, why aren't we hearing anything?
p23
sg8
S'negative'
p24
sg10
VLEO
p25
sg12
g9
sa(dp26
g6
V[on radio] 1.2 seconds to target launch...
p27
sg8
S'positive'
p28
sg10
VMAN
p29
sg12
g9
sa(dp30
g6
VOkay, why don't you just tell me to shut up?
p31
sg8
g9
sg10
VLEO
p32
sg12
g9
sa(dp33
g6
VHere we go.
p34
sg8
g9
sg10
VLEO
p35
sg12
g9
sa(dp36
g6
VHow long do we have?
p37
sg8
g9
sg10
VLEO
p38
sg12
g9
sa(dp39
g6
V[looks at his watch] I'm going to see if I can get the President to watch this. [leaves]
p40
sg8
g9
sg10
VLEO
p41
sg12
g9
sa(dp42
g6
VMr. Sumatra, I understand you're a sports fan.
p43
sg8
g9
sg10
VBARTLET
p44
sg12
g9
sa(dp45
g6
VYes, sir, Mr. President. Golf.
p46
sg8
g28
sg10
VSUMATRA
p47
sg12
g28
sa(dp48
g6
VOkay. Well, golf's not a sport. It's fine. Don't get me wrong but let's not you and I confuse it with things that men do.
p49
sg8
g24
sg10
VBARTLET
p50
sg12
g9
sa(dp51
g6
V[smiling] Yes, sir.
p52
sg8
g28
sg10
VSUMATRA
p53
sg12
g28
sa(dp54
g6
VYou know, we're going to Bangkok in June, I think. [to Charlie] June, Charlie?
p55
sg8
g9
sg10
VBARTLET
p56
sg12
g9
sa(dp57
g6
V[checks his palm pilot] Yes, sir.
p58
sg8
g28
sg10
VCHARLIE
p59
sg12
g9
sa(dp60
g6
VYou're staying at the Oriental?
p61
sg8
g9
sg10
VSUMATRA
p62
sg12
g9
sa(dp63
g6
VBest hotel in the world, right?
p64
sg8
g9
sg10
VBARTLET
p65
sg12
g9
sa(dp66
g6
VYour own James Michener wrote many of his books at the Oriental and one of his typewriters remains in the suite they named for him.
p67
sg8
g9
sg10
VSUMATRA
p68
sg12
g9
sa(dp69
g6
VIs that right?
p70
sg8
g9
sg10
VBARTLET
p71
sg12
g9
sa(dp72
g6
VYes, sir.
p73
sg8
g28
sg10
VSUMATRA
p74
sg12
g28
sa(dp75
g6
V[to Charlie] Make sure I see that.
p76
sg8
g9
sg10
VBARTLET
p77
sg12
g9
sa(dp78
g6
VYes, sir.
p79
sg8
g28
sg10
VCHARLIE
p80
sg12
g28
sa(dp81
g6
V[to diplomatic aide] Tom?
p82
sg8
g28
sg10
VBARTLET
p83
sg12
g9
sa(dp84
g6
VMr. President, it is with great pleasure that I present his excellency, Tada Sumatra of Thailand and by request of the secretary of state ask that you accept his credentials from King Rhumibol Adulyadej [Bartlet accepts the papers from Sumatra.] as Thailand's ambassador to the United States.
p85
sg8
g28
sg10
VTOM
p86
sg12
g9
sa(dp87
g6
VMr. Sumatra, I accept your letter of credence from King Adulyadej and by affixing my signature and seal, [signs the paper] do hereby declare you to be an ambassador extraordinary and plenipotentiary. [Sumatra bows and accepts the credentials back.] May our people know peace and prosperity. [They shake hands.] Congratulations.
p88
sg8
g28
sg10
VBARTLET
p89
sg12
g9
sa(dp90
g6
VThank you, Mr. President.
p91
sg8
g9
sg10
VSUMATRA
p92
sg12
g28
sa(dp93
g6
VWe've some gifts here and we're going to stand for pictures.
p94
sg8
g9
sg10
VBARTLET
p95
sg12
g9
sa(dp96
g6
V[directing Sumatra] Ambassador, right here.
p97
sg8
g9
sg10
VTOM
p98
sg12
g9
sa(dp99
g6
V[to Mrs. Sumatra] Madam, congratulations.
p100
sg8
g9
sg10
VBARTLET
p101
sg12
g9
sa(dp102
g6
VHe's got another two minutes and then I've got to pull him.
p103
sg8
g28
sg10
VCHARLIE
p104
sg12
g9
sa(dp105
g6
V[enters] Hey, Charlie, is he done?
p106
sg8
g9
sg10
VLEO
p107
sg12
g9
sa(dp108
g6
VHe's got about another two minutes.
p109
sg8
g9
sg10
VCHARLIE
p110
sg12
g9
sa(dp111
g6
VI'd like him in the situation room. Can I pull him?
p112
sg8
g28
sg10
VLEO
p113
sg12
g9
sa(dp114
g6
VShould I tell him it's an emergency?
p115
sg8
g24
sg10
VCHARLIE
p116
sg12
g9
sa(dp117
g6
VIt's not an emergency, just time sensitive.
p118
sg8
g24
sg10
VLEO
p119
sg12
g9
sa(dp120
g6
VOkay. [walks into the Oval Office]
p121
sg8
g9
sg10
VCHARLIE
p122
sg12
g9
sa(dp123
g6
V[to Mrs. Landingham] What are you looking at?
p124
sg8
g9
sg10
VLEO
p125
sg12
g9
sa(dp126
g6
VIt's not preposterous. It's not a contraption and mind your own business.
p127
sg8
g9
sg10
VLEO
p128
sg12
g9
sa(dp129
g6
VWell, in your day, you could pretty much turn back the Indians with a Daniel Boone musket, couldn't you?
p130
sg8
g28
sg10
VLEO
p131
sg12
g9
sa(dp132
g6
VSharpen a pencil, would ya?
p133
sg8
g9
sg10
VLEO
p134
sg12
g9
sa(dp135
g6
V[enters from Oval Office] What's up?
p136
sg8
g9
sg10
VBARTLET
p137
sg12
g9
sa(dp138
g6
VThe target's in the air. They're going to launch the intercept any moment.
p139
sg8
g28
sg10
VLEO
p140
sg12
g9
sa(dp141
g6
VAnd I'm sure someone will come along soon thereafter and tell it didn't work.
p142
sg8
g9
sg10
VBARTLET
p143
sg12
g9
sa(dp144
g6
VWhy do you gotta take that attitude?
p145
sg8
g9
sg10
VLEO
p146
sg12
g28
sa(dp147
g6
VCause it's not going to work.
p148
sg8
g9
sg10
VBARTLET
p149
sg12
g9
sa(dp150
g6
VWhat do I get if it works?
p151
sg8
g9
sg10
VLEO
p152
sg12
g9
sa(dp153
g6
VWhat do you get?
p154
sg8
g9
sg10
VBARTLET
p155
sg12
g9
sa(dp156
g6
VYes.
p157
sg8
g9
sg10
VLEO
p158
sg12
g28
sa(dp159
g6
VWell, I can't make you Thailand's ambassador to the United States because I just signed that guy's letter. [points to Oval Office]
p160
sg8
g28
sg10
VBARTLET
p161
sg12
g9
sa(dp162
g6
VCome with me to the situation room.
p163
sg8
g9
sg10
VLEO
p164
sg12
g9
sa(dp165
g6
VYou know what you are? You are the Charlie Brown of missile defense. The Pentagon is Lucy.
p166
sg8
g28
sg10
VBARTLET
p167
sg12
g9
sa(dp168
g6
VI'm not familiar with the reference.
p169
sg8
g28
sg10
VLEO
p170
sg12
g9
sa(dp171
g6
VPeanuts. Charlie Brown.
p172
sg8
g9
sg10
VBARTLET
p173
sg12
g28
sa(dp174
g6
VI've heard of them. I'm just not conversant in them.
p175
sg8
g28
sg10
VLEO
p176
sg12
g9
sa(dp177
g6
VWhy?
p178
sg8
g9
sg10
VBARTLET
p179
sg12
g9
sa(dp180
g6
VI've never read the comics.
p181
sg8
g9
sg10
VLEO
p182
sg12
g9
sa(dp183
g6
VLeo, were you born at age 55?
p184
sg8
g9
sg10
VBARTLET
p185
sg12
g9
sa(dp186
g6
VI know there's a dog.
p187
sg8
g9
sg10
VLEO
p188
sg12
g9
sa(dp189
g6
VCharlie Brown wanted to kick a football and Lucy would hold it, except she'd pull it away at the last minute and Charlie Brown would fall on his butt.
p190
sg8
g24
sg10
VBARTLET
p191
sg12
g9
sa(dp192
g6
VThat's funny?
p193
sg8
g9
sg10
VLEO
p194
sg12
g9
sa(dp195
g6
VNo, but each time Lucy would find a way to convince Charlie Brown that this time she wouldn't pull the ball away. But she would and, once again, Charlie Brown would fall on his butt.
p196
sg8
g9
sg10
VBARTLET
p197
sg12
g9
sa(dp198
g6
VAnd that's funny?
p199
sg8
g9
sg10
VLEO
p200
sg12
g9
sa(dp201
g6
VIts' satirical.
p202
sg8
g9
sg10
VBARTLET
p203
sg12
g9
sa(dp204
g6
VWhat's it satirizing?
p205
sg8
g9
sg10
VLEO
p206
sg12
g9
sa(dp207
g6
VThe DOD bringing you to the Situation Room every time they run a new missile test so that you come to me and tell me how great it works so I'll put money in the NMD system.
p208
sg8
g28
sg10
VBARTLET
p209
sg12
g9
sa(dp210
g6
VYou should put money in the NMD system.
p211
sg8
g28
sg10
VLEO
p212
sg12
g9
sa(dp213
g6
VIt doesn't work.
p214
sg8
g9
sg10
VBARTLET
p215
sg12
g9
sa(dp216
g6
VIt will work. One day soon.
p217
sg8
g9
sg10
VLEO
p218
sg12
g9
sa(dp219
g6
VThere're a couple of three star generals in there. Call any of 'em Lucy and you're on your own.
p220
sg8
g28
sg10
VLEO
p221
sg12
g9
sa(dp222
g6
VHey, where are we?
p223
sg8
g9
sg10
VBARTLET
p224
sg12
g9
sa(dp225
g6
VWhat's the time to the target.
p226
sg8
g9
sg10
VLEO
p227
sg12
g9
sa(dp228
g6
VAnd it's going to hit my garage in New Hampshire when?
p229
sg8
g24
sg10
VBARTLET
p230
sg12
g9
sa(dp231
g6
VSRB separation is solid rocket boosters separation. That means a high-resolution radar on the ground has gotten a lock on signal from the kill vehicle.
p232
sg8
g9
sg10
VOFFICER
p233
sg12
g9
sa(dp234
g6
VSo what happens now?
p235
sg8
g9
sg10
VBARTLET
p236
sg12
g9
sa(dp237
g6
VIn 20 seconds, it collides with the nuclear warhead.
p238
sg8
g9
sg10
VLEO
p239
sg12
g9
sa(dp240
g6
VWhere?
p241
sg8
g9
sg10
VBARTLET
p242
sg12
g9
sa(dp243
g6
VOuter space.
p244
sg8
g9
sg10
VLEO
p245
sg12
g9
sa(dp246
g6
V17 miles above the earth's atmosphere.
p247
sg8
g9
sg10
VCOLONEL
p248
sg12
g9
sa(dp249
g6
VOkay, but we don't have anybody out there right now do we?
p250
sg8
g9
sg10
VBARTLET
p251
sg12
g9
sa(dp252
g6
VSir...
p253
sg8
g9
sg10
VLEO
p254
sg12
g9
sa(dp255
g6
VWhen we stay at the Oriental in Bangkok, we have to check out Michener's typewriter.
p256
sg8
g9
sg10
VBARTLET
p257
sg12
g9
sa(dp258
g6
VHere we go.
p259
sg8
g9
sg10
VOFFICER
p260
sg12
g9
sa(dp261
g6
VIs that silence a pretty good sign?
p262
sg8
g28
sg10
VBARTLET
p263
sg12
g9
sa(dp264
g6
VNo.
p265
sg8
g9
sg10
VLEO
p266
sg12
g9
sa(dp267
g6
VHave we got sensor readings yet?
p268
sg8
g9
sg10
VGENERAL
p269
sg12
g28
sa(dp270
g6
VIt was just enthusiastic.
p271
sg8
g9
sg10
VBARTLET
p272
sg12
g9
sa(dp273
g6
VBy how much?
p274
sg8
g9
sg10
VLEO
p275
sg12
g9
sa(dp276
g6
VUh, Leo...
p277
sg8
g9
sg10
VGENERAL
p278
sg12
g9
sa(dp279
g6
V[sternly] By how much did it miss the target?
p280
sg8
g9
sg10
VLEO
p281
sg12
g9
sa(dp282
g6
VColonel?
p283
sg8
g9
sg10
VGENERAL
p284
sg12
g9
sa(dp285
g6
V137.
p286
sg8
g9
sg10
VCOLONEL
p287
sg12
g9
sa(dp288
g6
VWe missed the target by 137 feet?
p289
sg8
g9
sg10
VLEO
p290
sg12
g9
sa(dp291
g6
VMiles.
p292
sg8
g9
sg10
VCOLONEL
p293
sg12
g9
sa(dp294
g6
V[looks at him, incredulous] We missed it by 137 miles?!
p295
sg8
g24
sg10
VLEO
p296
sg12
g9
sa(dp297
g6
VWhen you consider the size of outer space, Leo, that's not so bad.
p298
sg8
g24
sg10
VBARTLET
p299
sg12
g9
sa(dp300
g6
VSir?
p301
sg8
g9
sg10
VCOLONEL
p302
sg12
g9
sa(dp303
g6
VBy the way, the words you're looking for are "Oh good grief." [walks out]
p304
sg8
g24
sg10
VBARTLET
p305
sg12
g9
sa(dp306
g6
VFor those of you who haven't seen it, it's a very lovely ceremony. It's relatively informal, the ambassadors are led into the Oval Office, probably with a few friends and family. They chat for a few moments with President, maybe exchange some gifts, and they're officially presented by the State Department's Chief of Protocol, who asks the President to accept the ambassador's credentials and the President signs a letter to that effect. [points to a reporter] Yes?
p307
sg8
g28
sg10
VC.J.
p308
sg12
g9
sa(dp309
g6
VThere is! It's the order in which they arrived in Washington. This morning the President saw Ambassador Sumatra of Thailand, then will be Peter Hans of Sweden, followed by her Excellency Renee Ernesto of Argentina, Noah Jolla of Burkina Faso and the newly named British Ambassador to the United States will be arriving in the United States just as soon as he's been newly named.
p310
sg8
g9
sg10
VC.J.
p311
sg12
g9
sa(dp312
g6
VAnthony Brass.
p313
sg8
g9
sg10
VC.J.
p314
sg12
g9
sa(dp315
g6
VAnthony Brass cited family obligations at home, and withdrew his name over the weekend.
p316
sg8
g9
sg10
VC.J.
p317
sg12
g9
sa(dp318
g6
VSir Christopher Nealingroach, yes. Sir Christopher has been diagnosed with a rare form of encephalitis, contracted during his recent posting to Kenya.
p319
sg8
g24
sg10
VC.J.
p320
sg12
g9
sa(dp321
g6
VI don't know. As soon as the State Department tells me, I'll know. In the meantime, it's pool photographs only until tomorrow night when there'll be a cocktail reception for the new ambassadors. That's all. [Reporters get up and leave] Does anybody wanna know who's been here the longest? The Dean of the Diplomatic Corps...anybody? Guys, you know I study these things just for you! It's Prince Vandaar Ben Sultan of Saudi Arabia.
p322
sg8
g9
sg10
VC.J.
p323
sg12
g9
sa(dp324
g6
VI could have also told them that Burkina Faso has a population of eleven million and in even years they host Africa's largest crops market.
p325
sg8
g28
sg10
VC.J.
p326
sg12
g9
sa(dp327
g6
VI need a chance to use that knowledge.
p328
sg8
g28
sg10
VC.J.
p329
sg12
g9
sa(dp330
g6
V[comes up from behind] C.J.!
p331
sg8
g9
sg10
VSAM
p332
sg12
g9
sa(dp333
g6
VYou know the chief crops of Burkina Faso?
p334
sg8
g9
sg10
VC.J.
p335
sg12
g9
sa(dp336
g6
VNo.
p337
sg8
g9
sg10
VSAM
p338
sg12
g9
sa(dp339
g6
VMillet, sorghum, rice, peanuts and cotton.
p340
sg8
g9
sg10
VC.J.
p341
sg12
g9
sa(dp342
g6
V[beat] You should mention in your afternoon briefing that we've accepted a last minute invitation for the President to address the Global Defense Council tomorrow night at the Sheraton.
p343
sg8
g28
sg10
VSAM
p344
sg12
g9
sa(dp345
g6
VI thought we passed on the GDC.
p346
sg8
g9
sg10
VC.J.
p347
sg12
g9
sa(dp348
g6
VWell we passed on it three months ago when we thought the President was going to be in South America. But the trip got canceled and they lost their keynote speaker, so we're gonna use this to launch CARE, and that's what I want you to announce at the afternoon briefing.
p349
sg8
g28
sg10
VSAM
p350
sg12
g9
sa(dp351
g6
VCARE?
p352
sg8
g9
sg10
VC.J.
p353
sg12
g9
sa(dp354
g6
VYeah.
p355
sg8
g9
sg10
VSAM
p356
sg12
g9
sa(dp357
g6
VOk...
p358
sg8
g9
sg10
VC.J.
p359
sg12
g9
sa(dp360
g6
VClean Air Rehabilitation Effort.
p361
sg8
g9
sg10
VSAM
p362
sg12
g9
sa(dp363
g6
VYeah.
p364
sg8
g9
sg10
VC.J.
p365
sg12
g9
sa(dp366
g6
VYou don't know what it is.
p367
sg8
g9
sg10
VSAM
p368
sg12
g9
sa(dp369
g6
VIt's an effort by which we clean the air and rehabilitate it.
p370
sg8
g28
sg10
VC.J.
p371
sg12
g9
sa(dp372
g6
VOkay, how could you...
p373
sg8
g9
sg10
VSAM
p374
sg12
g9
sa(dp375
g6
VI'm not involved in the nuances of environmental policy!
p376
sg8
g9
sg10
VC.J.
p377
sg12
g9
sa(dp378
g6
VWhich will come as a relief to environmentalists.
p379
sg8
g28
sg10
VSAM
p380
sg12
g24
sa(dp381
g6
VSam!
p382
sg8
g9
sg10
VC.J.
p383
sg12
g9
sa(dp384
g6
VI'll brief you later.
p385
sg8
g9
sg10
VSAM
p386
sg12
g9
sa(dp387
g6
VI knew the crops of Burkina Faso!
p388
sg8
g9
sg10
VC.J.
p389
sg12
g9
sa(dp390
g6
VI'll brief you later.
p391
sg8
g9
sg10
VSAM
p392
sg12
g9
sa(dp393
g6
VHave we heard from Toby?
p394
sg8
g9
sg10
VSAM
p395
sg12
g9
sa(dp396
g6
VNo.
p397
sg8
g9
sg10
VBONNIE
p398
sg12
g9
sa(dp399
g6
VDo we know if he's landed?
p400
sg8
g28
sg10
VSAM
p401
sg12
g9
sa(dp402
g6
VNo.
p403
sg8
g9
sg10
VBONNIE
p404
sg12
g9
sa(dp405
g6
VHow is everyone doing in here?
p406
sg8
g9
sg10
VSAM
p407
sg12
g9
sa(dp408
g6
VThey're doing fine.
p409
sg8
g9
sg10
VBONNIE
p410
sg12
g9
sa(dp411
g6
VIs global warming a real environmental condition, or merely a temporary anomaly? Is it a global threat, or the exaggerated claim of alarmists? The time for such debate is over. As of today, it shall be the unequivocal position of the United States government that global warming constitutes a clear and present danger to the health and future well-being of this planet and all its inhabitants. Did somebody get that?
p412
sg8
g24
sg10
VSAM
p413
sg12
g9
sa(dp414
g6
VYes.
p415
sg8
g9
sg10
VGINGER
p416
sg12
g28
sa(dp417
g6
VI didn't see anyone writing.
p418
sg8
g9
sg10
VSAM
p419
sg12
g9
sa(dp420
g6
VWe already wrote it.
p421
sg8
g9
sg10
VBONNIE
p422
sg12
g9
sa(dp423
g6
VI just added a thing!
p424
sg8
g9
sg10
VSAM
p425
sg12
g9
sa(dp426
g6
VWe got it.
p427
sg8
g9
sg10
VGINGER
p428
sg12
g28
sa(dp429
g6
VI just added "the time for such debate is over."
p430
sg8
g28
sg10
VSAM
p431
sg12
g9
sa(dp432
g6
VWe got it!
p433
sg8
g9
sg10
VGINGER
p434
sg12
g9
sa(dp435
g6
VIt sets up the whole reveal.
p436
sg8
g9
sg10
VSAM
p437
sg12
g9
sa(dp438
g6
VYes.
p439
sg8
g9
sg10
VGINGER
p440
sg12
g28
sa(dp441
g6
VOkay. 22 trillion in benefits versus one half a trillion in compliance costs we're making sure that's right?
p442
sg8
g9
sg10
VSAM
p443
sg12
g9
sa(dp444
g6
VYes.
p445
sg8
g9
sg10
VBONNIE
p446
sg12
g28
sa(dp447
g6
VWe're making sure in a couple places?
p448
sg8
g9
sg10
VSAM
p449
sg12
g9
sa(dp450
g6
VThey're making sure.
p451
sg8
g9
sg10
VBONNIE
p452
sg12
g9
sa(dp453
g6
VI wanna cite three different sources.
p454
sg8
g24
sg10
VSAM
p455
sg12
g9
sa(dp456
g6
VFine.
p457
sg8
g9
sg10
VBONNIE
p458
sg12
g9
sa(dp459
g6
VAnd we don't know if Toby's back?
p460
sg8
g9
sg10
VSAM
p461
sg12
g9
sa(dp462
g6
VSam! You'll know as soon as he's back!
p463
sg8
g9
sg10
VBONNIE
p464
sg12
g9
sa(dp465
g6
V[holding a cell phone] Sam...
p466
sg8
g9
sg10
VGINGER
p467
sg12
g9
sa(dp468
g6
VIs it Toby?
p469
sg8
g9
sg10
VSAM
p470
sg12
g9
sa(dp471
g6
VCan I have the phone?
p472
sg8
g9
sg10
VSAM
p473
sg12
g9
sa(dp474
g6
V[points] He's standing right there.
p475
sg8
g28
sg10
VGINGER
p476
sg12
g9
sa(dp477
g6
VThanks. 22,000 fewer respiratory related hospital admissions? I don't wanna use the stats unless I have three sources. [walks over to Toby] How was your trip?
p478
sg8
g24
sg10
VSAM
p479
sg12
g9
sa(dp480
g6
VIt was fine. [clears throat] What's goin' on?
p481
sg8
g9
sg10
VTOBY
p482
sg12
g9
sa(dp483
g6
VThe President's gonna speak at the GDC conference tomorrow night.
p484
sg8
g9
sg10
VSAM
p485
sg12
g9
sa(dp486
g6
VI'm sorry?
p487
sg8
g9
sg10
VTOBY
p488
sg12
g9
sa(dp489
g6
VHe's gonna launch the...
p490
sg8
g28
sg10
VSAM
p491
sg12
g9
sa(dp492
g6
VWhat are you talking about?
p493
sg8
g9
sg10
VTOBY
p494
sg12
g9
sa(dp495
g6
VHe's gonna launch CARE.
p496
sg8
g28
sg10
VSAM
p497
sg12
g9
sa(dp498
g6
VSince when?
p499
sg8
g9
sg10
VTOBY
p500
sg12
g9
sa(dp501
g6
VTheir keynote speaker fell through.
p502
sg8
g9
sg10
VSAM
p503
sg12
g24
sa(dp504
g6
VWhen was this decision made?
p505
sg8
g9
sg10
VTOBY
p506
sg12
g9
sa(dp507
g6
VLast night.
p508
sg8
g9
sg10
VSAM
p509
sg12
g9
sa(dp510
g6
VWhy wasn't I involved?
p511
sg8
g9
sg10
VTOBY
p512
sg12
g9
sa(dp513
g6
VYou were in Kansas City.
p514
sg8
g9
sg10
VSAM
p515
sg12
g9
sa(dp516
g6
VI have a telephone.
p517
sg8
g9
sg10
VTOBY
p518
sg12
g24
sa(dp519
g6
VToby!
p520
sg8
g9
sg10
VSAM
p521
sg12
g9
sa(dp522
g6
VI have a damn telephone Sam!
p523
sg8
g24
sg10
VTOBY
p524
sg12
g9
sa(dp525
g6
VFrankly, I didn't think... I thought there'd be a consensus.
p526
sg8
g9
sg10
VSAM
p527
sg12
g9
sa(dp528
g6
VWho was at this meeting?
p529
sg8
g9
sg10
VTOBY
p530
sg12
g9
sa(dp531
g6
VIt was me, Carl Todd of the EPA, James Siskin was there... Toby we've been looking for an opportunity to launch...
p532
sg8
g28
sg10
VSAM
p533
sg12
g9
sa(dp534
g6
VLeo wasn't there?
p535
sg8
g9
sg10
VTOBY
p536
sg12
g9
sa(dp537
g6
VNo... been looking for a platform for this, the opportunity...
p538
sg8
g28
sg10
VSAM
p539
sg12
g9
sa(dp540
g6
VLet me understand...
p541
sg8
g9
sg10
VTOBY
p542
sg12
g9
sa(dp543
g6
V...presented itself. What's the problem?
p544
sg8
g24
sg10
VSAM
p545
sg12
g9
sa(dp546
g6
VThere are a number of problems, anyone of which I could have told you about, had you gotten me on the phone! Well, one thing, we already blew off the AFL CIO, cause we told them the President was gonna be in South America.
p547
sg8
g9
sg10
VTOBY
p548
sg12
g9
sa(dp549
g6
VThe President was gonna be in South America, now he's not.
p550
sg8
g9
sg10
VSAM
p551
sg12
g9
sa(dp552
g6
VInstead, he's speaking for labor's good friend, the environmental lobby!
p553
sg8
g28
sg10
VTOBY
p554
sg12
g9
sa(dp555
g6
VNo...
p556
sg8
g9
sg10
VSAM
p557
sg12
g9
sa(dp558
g6
VAlso, he's the President of the United States, he's nobody's understudy! You've got him goin' out there like... Joey Bishop!
p559
sg8
g9
sg10
VTOBY
p560
sg12
g9
sa(dp561
g6
VI gotta say, I hear all that, but the President, he's very enthusiastic.
p562
sg8
g9
sg10
VSAM
p563
sg12
g9
sa(dp564
g6
VOf course he's enthusiastic.
p565
sg8
g9
sg10
VTOBY
p566
sg12
g9
sa(dp567
g6
VI'm sayin', I wasn't in there twisting his arm! I told him this opportunity has opened up, that we had enough notes so that I could finish the speech in time. He asked us a few questions, we answered them and he said yes!
p568
sg8
g28
sg10
VSAM
p569
sg12
g9
sa(dp570
g6
VAlright... I don't... alright.
p571
sg8
g9
sg10
VTOBY
p572
sg12
g9
sa(dp573
g6
VIt's gonna be a good speech!
p574
sg8
g28
sg10
VSAM
p575
sg12
g9
sa(dp576
g6
VYeah.
p577
sg8
g9
sg10
VTOBY
p578
sg12
g9
sa(dp579
g6
V[enters] They need you.
p580
sg8
g9
sg10
VGINGER
p581
sg12
g28
sa(dp582
g6
VThanks. [leaves]
p583
sg8
g9
sg10
VSAM
p584
sg12
g9
sa(dp585
g6
VHow was the trip?
p586
sg8
g9
sg10
VGINGER
p587
sg12
g9
sa(dp588
g6
VFine. I need to see Leo.
p589
sg8
g9
sg10
VTOBY
p590
sg12
g9
sa(dp591
g6
VYeah.
p592
sg8
g9
sg10
VGINGER
p593
sg12
g9
sa(dp594
g6
VIt's not gonna be Sir Christopher Nealingroach.
p595
sg8
g9
sg10
VC.J.
p596
sg12
g9
sa(dp597
g6
V[sounding strained] I heard!
p598
sg8
g24
sg10
VJOSH
p599
sg12
g9
sa(dp600
g6
VI said it's not gonna be Sir Christopher Nealingroach.
p601
sg8
g9
sg10
VC.J.
p602
sg12
g9
sa(dp603
g6
VAnd I said I heard you!
p604
sg8
g9
sg10
VJOSH
p605
sg12
g9
sa(dp606
g6
VBut I like to say Sir Christopher Nealingroach.
p607
sg8
g9
sg10
VC.J.
p608
sg12
g9
sa(dp609
g6
VWho's it gonna be?
p610
sg8
g9
sg10
VJOSH
p611
sg12
g9
sa(dp612
g6
VI'm waiting to hear from someone at the State Department.
p613
sg8
g9
sg10
VC.J.
p614
sg12
g9
sa(dp615
g6
VMe too.
p616
sg8
g9
sg10
VJOSH
p617
sg12
g9
sa(dp618
g6
VMaybe it'll be Sir Christopher Nealingroach.
p619
sg8
g9
sg10
VC.J.
p620
sg12
g9
sa(dp621
g6
VCan I stop talking to you now?
p622
sg8
g9
sg10
VJOSH
p623
sg12
g9
sa(dp624
g6
VWhat are you doing?
p625
sg8
g9
sg10
VC.J.
p626
sg12
g9
sa(dp627
g6
VI'm standing with my back straight against the wall.
p628
sg8
g28
sg10
VJOSH
p629
sg12
g9
sa(dp630
g6
VWhy?
p631
sg8
g9
sg10
VC.J.
p632
sg12
g9
sa(dp633
g6
VI was told by the doctors it would relax me.
p634
sg8
g9
sg10
VJOSH
p635
sg12
g9
sa(dp636
g6
VJosh... [turns and sees him behind the door]
p637
sg8
g9
sg10
VDONNA
p638
sg12
g9
sa(dp639
g6
VGotta go! [hangs up]
p640
sg8
g9
sg10
VC.J.
p641
sg12
g9
sa(dp642
g6
VYeah.
p643
sg8
g9
sg10
VJOSH
p644
sg12
g9
sa(dp645
g6
VAre you ok?
p646
sg8
g9
sg10
VDONNA
p647
sg12
g28
sa(dp648
g6
VYeah. What?
p649
sg8
g9
sg10
VJOSH
p650
sg12
g9
sa(dp651
g6
VIs it true that Leo can't stand a guy named Lord John Marbury?
p652
sg8
g28
sg10
VDONNA
p653
sg12
g9
sa(dp654
g6
VWhy?
p655
sg8
g9
sg10
VJOSH
p656
sg12
g9
sa(dp657
g6
VA reporter asked me.
p658
sg8
g28
sg10
VDONNA
p659
sg12
g9
sa(dp660
g6
VWhat's a reporter doing talking to you?
p661
sg8
g28
sg10
VJOSH
p662
sg12
g9
sa(dp663
g6
VHe's a friend of a friend.
p664
sg8
g28
sg10
VDONNA
p665
sg12
g9
sa(dp666
g6
VLeo McGarry has nothing but respect and affection for John Marbury.
p667
sg8
g28
sg10
VJOSH
p668
sg12
g9
sa(dp669
g6
VThat's what I said.
p670
sg8
g9
sg10
VDONNA
p671
sg12
g9
sa(dp672
g6
VGood, 'cause Leo thinks he's a lunatic.
p673
sg8
g24
sg10
VJOSH
p674
sg12
g9
sa(dp675
g6
VHe's very handsome.
p676
sg8
g9
sg10
VDONNA
p677
sg12
g9
sa(dp678
g6
VThat may be so, but Leo thinks he's a lunatic.
p679
sg8
g24
sg10
VJOSH
p680
sg12
g9
sa(dp681
g6
VAre you threatened by his brilliance?
p682
sg8
g9
sg10
VDONNA
p683
sg12
g9
sa(dp684
g6
VNo.
p685
sg8
g9
sg10
VJOSH
p686
sg12
g9
sa(dp687
g6
VYou seem to be threatened by his brilliance.
p688
sg8
g9
sg10
VDONNA
p689
sg12
g9
sa(dp690
g6
VHow do you know he's brilliant?
p691
sg8
g28
sg10
VJOSH
p692
sg12
g9
sa(dp693
g6
VI saw his picture.
p694
sg8
g9
sg10
VDONNA
p695
sg12
g9
sa(dp696
g6
VI'm not threatened by his brilliance, nor am I threatened by his good looks.
p697
sg8
g28
sg10
VJOSH
p698
sg12
g9
sa(dp699
g6
VWhat about his charm?
p700
sg8
g28
sg10
VDONNA
p701
sg12
g9
sa(dp702
g6
VI'm not threatened at all...
p703
sg8
g9
sg10
VJOSH
p704
sg12
g9
sa(dp705
g6
VI'm sorry, I meant Leo.
p706
sg8
g9
sg10
VDONNA
p707
sg12
g9
sa(dp708
g6
VNeither Leo or I are threatened by his brains, his looks or his charm. He is, however, a lunatic Brit and we're grateful there's an ocean between us.
p709
sg8
g28
sg10
VJOSH
p710
sg12
g9
sa(dp711
g6
VThere isn't anymore.
p712
sg8
g9
sg10
VDONNA
p713
sg12
g9
sa(dp714
g6
VThere isn't what?
p715
sg8
g9
sg10
VJOSH
p716
sg12
g9
sa(dp717
g6
VAn ocean between you.
p718
sg8
g9
sg10
VDONNA
p719
sg12
g9
sa(dp720
g6
VPlease, don't tell me...
p721
sg8
g9
sg10
VJOSH
p722
sg12
g9
sa(dp723
g6
VHe's the new British ambassador to the United States.
p724
sg8
g28
sg10
VDONNA
p725
sg12
g9
sa(dp726
g6
V[sounding strained again] Yeah... [gets up]
p727
sg8
g24
sg10
VJOSH
p728
sg12
g9
sa(dp729
g6
VHe's dreamy. [walks over to the door]
p730
sg8
g9
sg10
VDONNA
p731
sg12
g9
sa(dp732
g6
VI'm just gonna, you know, stand next to the wall for a while longer.
p733
sg8
g9
sg10
VJOSH
p734
sg12
g9
sa(dp735
g6
VOkay.
p736
sg8
g9
sg10
VDONNA
p737
sg12
g9
sa(dp738
g6
VJosh.
p739
sg8
g9
sg10
VTOBY
p740
sg12
g9
sa(dp741
g6
VOkay, what I need people to do is knock.
p742
sg8
g9
sg10
VJOSH
p743
sg12
g9
sa(dp744
g6
VI did knock.
p745
sg8
g9
sg10
VTOBY
p746
sg12
g9
sa(dp747
g6
VBut you didn't wait for a response.
p748
sg8
g24
sg10
VJOSH
p749
sg12
g9
sa(dp750
g6
VWhy would I?
p751
sg8
g9
sg10
VTOBY
p752
sg12
g9
sa(dp753
g6
V'Cause, I could have been relaxing by standing behind that door.
p754
sg8
g28
sg10
VJOSH
p755
sg12
g9
sa(dp756
g6
V[beat] All right.
p757
sg8
g9
sg10
VTOBY
p758
sg12
g9
sa(dp759
g6
VHow was your trip?
p760
sg8
g9
sg10
VJOSH
p761
sg12
g9
sa(dp762
g6
VIt was fine. So we're pitchhitting at the GDC conference.
p763
sg8
g9
sg10
VTOBY
p764
sg12
g9
sa(dp765
g6
VFor the record, I didn't think it was a good idea and I said so.
p766
sg8
g28
sg10
VJOSH
p767
sg12
g9
sa(dp768
g6
VAnd it seems to have helped. Look, we can't appear to be at the beckon call of the environment!
p769
sg8
g9
sg10
VTOBY
p770
sg12
g9
sa(dp771
g6
VWe could try insulting them.
p772
sg8
g24
sg10
VJOSH
p773
sg12
g9
sa(dp774
g6
VYes.
p775
sg8
g9
sg10
VTOBY
p776
sg12
g28
sa(dp777
g6
VI'm kidding.
p778
sg8
g9
sg10
VJOSH
p779
sg12
g9
sa(dp780
g6
VI'm not!
p781
sg8
g9
sg10
VTOBY
p782
sg12
g9
sa(dp783
g6
VWhat do you have?
p784
sg8
g9
sg10
VJOSH
p785
sg12
g9
sa(dp786
g6
VEnvironmental terrorists burned down a ski resort and the GDC didn't comment.
p787
sg8
g9
sg10
VTOBY
p788
sg12
g9
sa(dp789
g6
VWhy did environmental terrorists burn down a ski resort?
p790
sg8
g9
sg10
VJOSH
p791
sg12
g9
sa(dp792
g6
VTo save the lynx.
p793
sg8
g28
sg10
VTOBY
p794
sg12
g9
sa(dp795
g6
VThe links?
p796
sg8
g9
sg10
VJOSH
p797
sg12
g9
sa(dp798
g6
VYeah.
p799
sg8
g9
sg10
VTOBY
p800
sg12
g9
sa(dp801
g6
VEnvironmental terrorists burned down a ski resort to save a golf course?
p802
sg8
g28
sg10
VJOSH
p803
sg12
g9
sa(dp804
g6
VIt's an animal.
p805
sg8
g9
sg10
VTOBY
p806
sg12
g9
sa(dp807
g6
VSam's going to have strong objections.
p808
sg8
g9
sg10
VJOSH
p809
sg12
g9
sa(dp810
g6
VI know.
p811
sg8
g9
sg10
VTOBY
p812
sg12
g9
sa(dp813
g6
VAll right, you want me to talk to Leo?
p814
sg8
g28
sg10
VJOSH
p815
sg12
g9
sa(dp816
g6
VI'm going to talk to him. I want you to talk to C.J..
p817
sg8
g28
sg10
VTOBY
p818
sg12
g9
sa(dp819
g6
VAbout what?
p820
sg8
g9
sg10
VJOSH
p821
sg12
g9
sa(dp822
g6
VThe Will Roger's dinner is going to ask Cornelius Sykes to host.
p823
sg8
g28
sg10
VTOBY
p824
sg12
g9
sa(dp825
g6
V[stops and faces Toby] You're kidding me!
p826
sg8
g9
sg10
VJOSH
p827
sg12
g9
sa(dp828
g6
VNope.
p829
sg8
g9
sg10
VTOBY
p830
sg12
g9
sa(dp831
g6
VHe didn't laugh at the joke.
p832
sg8
g9
sg10
VJOSH
p833
sg12
g9
sa(dp834
g6
VTalk to C.J.
p835
sg8
g9
sg10
VTOBY
p836
sg12
g9
sa(dp837
g6
VYeah. [turns away to leave]
p838
sg8
g24
sg10
VJOSH
p839
sg12
g9
sa(dp840
g6
VWhy do you relax by standing behind the door?
p841
sg8
g28
sg10
VTOBY
p842
sg12
g9
sa(dp843
g6
V[comes back] I'm not standing behind the door, I'm standing with my back straight against the wall, so that if...
p844
sg8
g28
sg10
VJOSH
p845
sg12
g9
sa(dp846
g6
VI don't care. [leaves abruptly]
p847
sg8
g9
sg10
VTOBY
p848
sg12
g9
sa(dp849
g6
V'kay.
p850
sg8
g9
sg10
VJOSH
p851
sg12
g9
sa(dp852
g6
VKeith. Keith, I can't tell him that. I can't tell the President that nine out of ten things went right, he's going to say, "Yeah, but we didn't hit anything!" Would you please? Thank you. [hangs up the phone, to Toby] We had an NMD test this morning. We were successful in nine out of ten criteria.
p853
sg8
g9
sg10
VLEO
p854
sg12
g9
sa(dp855
g6
VWe missed.
p856
sg8
g9
sg10
VTOBY
p857
sg12
g9
sa(dp858
g6
VYeah.
p859
sg8
g9
sg10
VLEO
p860
sg12
g9
sa(dp861
g6
VBy how much?
p862
sg8
g9
sg10
VTOBY
p863
sg12
g9
sa(dp864
g6
VWe were trying to shoot down an incoming intercontinental ballistic missile; once you miss, it really doesn't matter by how much.
p865
sg8
g24
sg10
VLEO
p866
sg12
g9
sa(dp867
g6
VI suppose.
p868
sg8
g9
sg10
VTOBY
p869
sg12
g9
sa(dp870
g6
VA hundred and thirty-seven miles.
p871
sg8
g9
sg10
VLEO
p872
sg12
g9
sa(dp873
g6
V[rolls his eyes] Sam just told me about his speech.
p874
sg8
g28
sg10
VTOBY
p875
sg12
g9
sa(dp876
g6
VWhich speech?
p877
sg8
g28
sg10
VLEO
p878
sg12
g9
sa(dp879
g6
VThe GDC.
p880
sg8
g9
sg10
VTOBY
p881
sg12
g9
sa(dp882
g6
VYeah.
p883
sg8
g9
sg10
VLEO
p884
sg12
g9
sa(dp885
g6
VLeo.
p886
sg8
g9
sg10
VTOBY
p887
sg12
g9
sa(dp888
g6
V[defensively] I wasn't in the meeting.
p889
sg8
g9
sg10
VLEO
p890
sg12
g9
sa(dp891
g6
VHow did that...
p892
sg8
g9
sg10
VTOBY
p893
sg12
g9
sa(dp894
g6
VI wasn't in the meeting! It happened fast.
p895
sg8
g9
sg10
VLEO
p896
sg12
g9
sa(dp897
g6
VI'm saying how'd it...
p898
sg8
g9
sg10
VTOBY
p899
sg12
g9
sa(dp900
g6
VIt happened fast. Sam pitched it, and the President wanted to do it.
p901
sg8
g9
sg10
VLEO
p902
sg12
g9
sa(dp903
g6
VLeo, how could you not be in that meeting?
p904
sg8
g9
sg10
VTOBY
p905
sg12
g9
sa(dp906
g6
V'Cause I'm trying to get the President to warm up to a missile shield that's supposed to save humanity and there's a limit to the number of rooms I can be in at once! You want to file a complaint?
p907
sg8
g28
sg10
VLEO
p908
sg12
g9
sa(dp909
g6
VNo.
p910
sg8
g9
sg10
VTOBY
p911
sg12
g9
sa(dp912
g6
VGood.
p913
sg8
g9
sg10
VLEO
p914
sg12
g9
sa(dp915
g6
VHere's what I think...
p916
sg8
g9
sg10
VTOBY
p917
sg12
g9
sa(dp918
g6
VScrew the environmental lobby?
p919
sg8
g9
sg10
VLEO
p920
sg12
g9
sa(dp921
g6
V[angry] Did I say that? Did I say, 'screw the environmental lobby?'
p922
sg8
g24
sg10
VTOBY
p923
sg12
g9
sa(dp924
g6
VYou didn't say anything.
p925
sg8
g9
sg10
VLEO
p926
sg12
g9
sa(dp927
g6
VThat's right, and before I even open my mouth, you decide I'm going to say 'screw the environmental lobby?'
p928
sg8
g9
sg10
VTOBY
p929
sg12
g9
sa(dp930
g6
VI apologize.
p931
sg8
g28
sg10
VLEO
p932
sg12
g9
sa(dp933
g6
VThere's an extent to which we've gotta screw the environmental lobby.
p934
sg8
g9
sg10
VTOBY
p935
sg12
g9
sa(dp936
g6
VYep.
p937
sg8
g9
sg10
VLEO
p938
sg12
g9
sa(dp939
g6
VA clear and public demonstration that the President's not beholden to them isn't a bad idea right now.
p940
sg8
g24
sg10
VTOBY
p941
sg12
g9
sa(dp942
g6
VYou think he should walk into their ballroom and smack them around?
p943
sg8
g24
sg10
VLEO
p944
sg12
g9
sa(dp945
g6
VI really do, for thirty seconds out of a fortyminute address announcing the initiative they love.
p946
sg8
g28
sg10
VTOBY
p947
sg12
g9
sa(dp948
g6
VHow do you think they're gonna feel about the 30 seconds?
p949
sg8
g9
sg10
VLEO
p950
sg12
g9
sa(dp951
g6
VNot that good, but that's the point. We don't have to move to our right if there's an opportunity to spank the people to our left.
p952
sg8
g28
sg10
VTOBY
p953
sg12
g9
sa(dp954
g6
VAnything in particular we want to spank them for?
p955
sg8
g24
sg10
VLEO
p956
sg12
g9
sa(dp957
g6
VFailing to publicly admonish acts of eco-terrorism.
p958
sg8
g9
sg10
VTOBY
p959
sg12
g9
sa(dp960
g6
VThe GDC doesn't engage in acts of eco-terrorism.
p961
sg8
g9
sg10
VLEO
p962
sg12
g9
sa(dp963
g6
VYes, but they fail to publicly admonish those who do.
p964
sg8
g9
sg10
VTOBY
p965
sg12
g9
sa(dp966
g6
VFor example?
p967
sg8
g9
sg10
VLEO
p968
sg12
g9
sa(dp969
g6
VA 12 million dollar Colorado ski development that was under construction was set on fire because it threatened the habitat of a rare local lynx.
p970
sg8
g28
sg10
VTOBY
p971
sg12
g9
sa(dp972
g6
VIs a lynx a...?
p973
sg8
g9
sg10
VLEO
p974
sg12
g9
sa(dp975
g6
VI don't know. I... I think... I think it's like a possum or something, and it doesn't matter...
p976
sg8
g9
sg10
VTOBY
p977
sg12
g9
sa(dp978
g6
VAll right, tell Sam to find a place to out it.
p979
sg8
g9
sg10
VLEO
p980
sg12
g9
sa(dp981
g6
VI don't want it in the advanced text. I don't want Sam and his fourteen objections. It should just be a drop-in.
p982
sg8
g28
sg10
VTOBY
p983
sg12
g9
sa(dp984
g6
VI'll talk to the President. Anything else?
p985
sg8
g28
sg10
VLEO
p986
sg12
g9
sa(dp987
g6
V137 miles.
p988
sg8
g9
sg10
VTOBY
p989
sg12
g9
sa(dp990
g6
VYeah.
p991
sg8
g9
sg10
VLEO
p992
sg12
g9
sa(dp993
g6
VIs that a lot?
p994
sg8
g9
sg10
VTOBY
p995
sg12
g28
sa(dp996
g6
VYeah.
p997
sg8
g9
sg10
VLEO
p998
sg12
g9
sa(dp999
g6
VOkay. [leaves]
p1000
sg8
g9
sg10
VTOBY
p1001
sg12
g9
sa(dp1002
g6
VWe have 30 minutes at the ballroom after the speech to spin and obviously, the next morning as well. Among the things you want to be emphasizing are what?
p1003
sg8
g28
sg10
VSAM
p1004
sg12
g9
sa(dp1005
g6
VWe have 4% of the population. We are responsible for 25% of the Greenhouse emission. [stands] How are we going to reduce those levels of Greenhouse emissions, you ask?
p1006
sg8
g28
sg10
VSAM
p1007
sg12
g9
sa(dp1008
g6
VThrough the Clean Air Rehabilitation Effort.
p1009
sg8
g9
sg10
VC.J.
p1010
sg12
g9
sa(dp1011
g6
VYes, which you can read about in bullet points, beginning on page 11. Please don't skip the footnotes, and please, don't just read what's underlined.
p1012
sg8
g24
sg10
VSAM
p1013
sg12
g9
sa(dp1014
g6
VQuestion.
p1015
sg8
g9
sg10
VC.J.
p1016
sg12
g9
sa(dp1017
g6
V[chewing] Yes.
p1018
sg8
g9
sg10
VSAM
p1019
sg12
g28
sa(dp1020
g6
VWere you able to get girls to go out with you in High School?
p1021
sg8
g9
sg10
VC.J.
p1022
sg12
g9
sa(dp1023
g6
VYes.
p1024
sg8
g9
sg10
VSAM
p1025
sg12
g28
sa(dp1026
g6
VReally?
p1027
sg8
g9
sg10
VC.J.
p1028
sg12
g9
sa(dp1029
g6
V[returns to the windowsill] Under these regulations there will be a cap on the volume of CO2 a company could emit in a year, but what's the good news?
p1030
sg8
g28
sg10
VSAM
p1031
sg12
g9
sa(dp1032
g6
VCreating what?
p1033
sg8
g9
sg10
VSAM
p1034
sg12
g9
sa(dp1035
g6
VA cash incentive. Can you tell us anything else about that, C.J.?
p1036
sg8
g28
sg10
VSAM
p1037
sg12
g9
sa(dp1038
g6
VNo, but I can tell you that lumber, cocoa beans, aluminum and petroleum products are the major exports of Cameroon.
p1039
sg8
g28
sg10
VC.J.
p1040
sg12
g9
sa(dp1041
g6
V[shocked by C.J.'s lack of caring] Then we're all set.
p1042
sg8
g24
sg10
VSAM
p1043
sg12
g9
sa(dp1044
g6
VYeah.
p1045
sg8
g9
sg10
VC.J.
p1046
sg12
g9
sa(dp1047
g6
VCan I have her for a second?
p1048
sg8
g9
sg10
VJOSH
p1049
sg12
g9
sa(dp1050
g6
VYeah.
p1051
sg8
g9
sg10
VSAM
p1052
sg12
g9
sa(dp1053
g6
V[to Josh] Why do you ask him and not me?
p1054
sg8
g9
sg10
VC.J.
p1055
sg12
g9
sa(dp1056
g6
VHe looked in charge!
p1057
sg8
g9
sg10
VJOSH
p1058
sg12
g9
sa(dp1059
g6
VOf where I go?
p1060
sg8
g9
sg10
VC.J.
p1061
sg12
g9
sa(dp1062
g6
VCan we... please? C.J. and Josh walk outside and close the door.
p1063
sg8
g9
sg10
VJOSH
p1064
sg12
g9
sa(dp1065
g6
VDid you hear they named John Marbury British Ambassador?
p1066
sg8
g9
sg10
VC.J.
p1067
sg12
g9
sa(dp1068
g6
VYes, I did.
p1069
sg8
g9
sg10
VJOSH
p1070
sg12
g28
sa(dp1071
g6
VLord John Marbury?
p1072
sg8
g9
sg10
VC.J.
p1073
sg12
g9
sa(dp1074
g6
VI know, it's got to be like Davy Jones himself is showing up.
p1075
sg8
g9
sg10
VJOSH
p1076
sg12
g9
sa(dp1077
g6
VOk, don't make fun of Davy Jones, all right? He once wrote me a letter. He took that kind of time. And he still tours! Plus, my love for John Marbury is real, it's not a schoolgirl crush. He calls me [gently] 'Princepessa.'
p1078
sg8
g28
sg10
VC.J.
p1079
sg12
g9
sa(dp1080
g6
VDoes he?
p1081
sg8
g9
sg10
VJOSH
p1082
sg12
g9
sa(dp1083
g6
VYeah.
p1084
sg8
g9
sg10
VC.J.
p1085
sg12
g9
sa(dp1086
g6
VWell, he calls Leo 'Gerald.'
p1087
sg8
g24
sg10
VJOSH
p1088
sg12
g9
sa(dp1089
g6
VHe's eccentric.
p1090
sg8
g9
sg10
VC.J.
p1091
sg12
g9
sa(dp1092
g6
VYeah.
p1093
sg8
g9
sg10
VJOSH
p1094
sg12
g9
sa(dp1095
g6
VWhat do you need?
p1096
sg8
g9
sg10
VC.J.
p1097
sg12
g9
sa(dp1098
g6
VJanice Barry is saying they're going to ask Cornelius Sykes to host the Will Rogers' dinner.
p1099
sg8
g28
sg10
VJOSH
p1100
sg12
g9
sa(dp1101
g6
VThey know for sure?
p1102
sg8
g9
sg10
VC.J.
p1103
sg12
g9
sa(dp1104
g6
VThey're going to ask him on Monday.
p1105
sg8
g9
sg10
VJOSH
p1106
sg12
g9
sa(dp1107
g6
VThey're going to stir this up again.
p1108
sg8
g9
sg10
VC.J.
p1109
sg12
g9
sa(dp1110
g6
VYeah.
p1111
sg8
g9
sg10
VJOSH
p1112
sg12
g9
sa(dp1113
g6
VHe didn't laugh at the joke! How many more ways are there for me to say that? He didn't laugh at the joke!
p1114
sg8
g9
sg10
VC.J.
p1115
sg12
g9
sa(dp1116
g6
VYou guys are friends. I was thinking...
p1117
sg8
g9
sg10
VJOSH
p1118
sg12
g9
sa(dp1119
g6
VWe're not friends.
p1120
sg8
g9
sg10
VC.J.
p1121
sg12
g9
sa(dp1122
g6
VYou know each other.
p1123
sg8
g9
sg10
VJOSH
p1124
sg12
g9
sa(dp1125
g6
VI don't hang out with Corey Sykes!
p1126
sg8
g9
sg10
VC.J.
p1127
sg12
g9
sa(dp1128
g6
VYeah, but you know him!
p1129
sg8
g9
sg10
VJOSH
p1130
sg12
g9
sa(dp1131
g6
V[beat] Where is he?
p1132
sg8
g9
sg10
VC.J.
p1133
sg12
g9
sa(dp1134
g6
VHe's in New York, doing standup. I thought since you were going to be there, you...
p1135
sg8
g9
sg10
VJOSH
p1136
sg12
g9
sa(dp1137
g6
VI'll see him tomorrow night.
p1138
sg8
g9
sg10
VC.J.
p1139
sg12
g9
sa(dp1140
g6
VThank you. [turns to leave]
p1141
sg8
g24
sg10
VJOSH
p1142
sg12
g9
sa(dp1143
g6
VHe didn't laugh at the joke!
p1144
sg8
g9
sg10
VC.J.
p1145
sg12
g9
sa(dp1146
g6
V[turns to her while walking away] You'll see him tomorrow night?
p1147
sg8
g9
sg10
VJOSH
p1148
sg12
g9
sa(dp1149
g6
VYes.
p1150
sg8
g9
sg10
VC.J.
p1151
sg12
g28
sa(dp1152
g6
VJosh!
p1153
sg8
g9
sg10
VDONNA
p1154
sg12
g9
sa(dp1155
g6
V[walking backwards] Could you see that a meeting is arranged for tomorrow night in New York with C.J., Cornelius Sykes, and no one else?
p1156
sg8
g24
sg10
VJOSH
p1157
sg12
g9
sa(dp1158
g6
VYeah.
p1159
sg8
g9
sg10
VDONNA
p1160
sg12
g9
sa(dp1161
g6
VThank you!
p1162
sg8
g9
sg10
VC.J.
p1163
sg12
g9
sa(dp1164
g6
VI was thinking...
p1165
sg8
g9
sg10
VDONNA
p1166
sg12
g9
sa(dp1167
g6
VYeah?
p1168
sg8
g9
sg10
VJOSH
p1169
sg12
g9
sa(dp1170
g6
VWhen Marbury gets here...
p1171
sg8
g9
sg10
VDONNA
p1172
sg12
g9
sa(dp1173
g6
VYeah?
p1174
sg8
g9
sg10
VJOSH
p1175
sg12
g9
sa(dp1176
g6
VYou can encourage him to introduce me to any royal and single men he might know.
p1177
sg8
g28
sg10
VDONNA
p1178
sg12
g9
sa(dp1179
g6
VThat's a good idea, I'm gonna do that.
p1180
sg8
g28
sg10
VJOSH
p1181
sg12
g9
sa(dp1182
g6
VYou're not really though, are you?
p1183
sg8
g9
sg10
VDONNA
p1184
sg12
g9
sa(dp1185
g6
VNo.
p1186
sg8
g9
sg10
VJOSH
p1187
sg12
g9
sa(dp1188
g6
VI think a lot of people don't realize that Swedes have lived in Sweden more than 5,000 years longer than nearly any other European people.
p1189
sg8
g9
sg10
VBARTLET
p1190
sg12
g9
sa(dp1191
g6
VThat's right, sir.
p1192
sg8
g28
sg10
VAMBASSADOR
p1193
sg12
g9
sa(dp1194
g6
VIn fact, Gothic tribes from Sweden played a major role in the disintegration of the Roman Empire, did they not?
p1195
sg8
g9
sg10
VBARTLET
p1196
sg12
g9
sa(dp1197
g6
VThey did.
p1198
sg8
g9
sg10
VAMBASSADOR
p1199
sg12
g9
sa(dp1200
g6
VSo you've got that to answer for!
p1201
sg8
g9
sg10
VBARTLET
p1202
sg12
g9
sa(dp1203
g6
V[smiling] Yes, sir!
p1204
sg8
g28
sg10
VAMBASSADOR
p1205
sg12
g9
sa(dp1206
g6
VMr. President, it is with pleasure that I present his Excellency Peter Hans of Sweden, and by request of the Secretary of State ask that you accept his credentials from king Karl Gustav as Sweden's ambassador to the United States.
p1207
sg8
g28
sg10
VTOM
p1208
sg12
g9
sa(dp1209
g6
V[puts his eyeglasses on] Mr. Hans, I accept your letter of credence from king Gustav, and, by affixing my signature and seal, do hereby declare you to be an Ambassador Extraordinary and Plenipotentiary. [returns the papers]
p1210
sg8
g28
sg10
VBARTLET
p1211
sg12
g9
sa(dp1212
g6
VThank you, Mr. President.
p1213
sg8
g9
sg10
VAMBASSADOR
p1214
sg12
g28
sa(dp1215
g6
VCongratulations. [They shake hands.]
p1216
sg8
g9
sg10
VBARTLET
p1217
sg12
g9
sa(dp1218
g6
VMr. Ambassador. [shows Hans to a spot next to Bartlet] Family, please.
p1219
sg8
g9
sg10
VTOM
p1220
sg12
g9
sa(dp1221
g6
VCongratulations, Ambassador.
p1222
sg8
g9
sg10
VLEO
p1223
sg12
g9
sa(dp1224
g6
VLeo.
p1225
sg8
g9
sg10
VAMBASSADOR
p1226
sg12
g9
sa(dp1227
g6
VIs he still holding you responsible for the fall of the Roman Empire?
p1228
sg8
g9
sg10
VLEO
p1229
sg12
g9
sa(dp1230
g6
VOh, yes.
p1231
sg8
g9
sg10
VAMBASSADOR
p1232
sg12
g9
sa(dp1233
g6
VWelcome to my world. I'll see you at the reception, right?
p1234
sg8
g9
sg10
VLEO
p1235
sg12
g9
sa(dp1236
g6
VYes, sir.
p1237
sg8
g28
sg10
VAMBASSADOR
p1238
sg12
g28
sa(dp1239
g6
VCongratulations.
p1240
sg8
g9
sg10
VLEO
p1241
sg12
g9
sa(dp1242
g6
VThis way.
p1243
sg8
g9
sg10
VTOM
p1244
sg12
g28
sa(dp1245
g6
VSweden has a 100% literacy rate, Leo, a hundred percent! How do they do that?
p1246
sg8
g9
sg10
VBARTLET
p1247
sg12
g9
sa(dp1248
g6
VWell, maybe, they don't and they also can't count.
p1249
sg8
g28
sg10
VLEO
p1250
sg12
g24
sa(dp1251
g6
VMaybe.
p1252
sg8
g9
sg10
VBARTLET
p1253
sg12
g9
sa(dp1254
g6
V[hands him some papers] I really think you should know...
p1255
sg8
g9
sg10
VLEO
p1256
sg12
g9
sa(dp1257
g6
VYes?
p1258
sg8
g9
sg10
VBARTLET
p1259
sg12
g28
sa(dp1260
g6
VThat nine out of ten criterion that the DOD lays down for success in these tests were met.
p1261
sg8
g28
sg10
VLEO
p1262
sg12
g9
sa(dp1263
g6
VThe tenth being?
p1264
sg8
g9
sg10
VBARTLET
p1265
sg12
g9
sa(dp1266
g6
VThey missed the target.
p1267
sg8
g9
sg10
VLEO
p1268
sg12
g9
sa(dp1269
g6
V[with sarcasm] Damn!
p1270
sg8
g24
sg10
VBARTLET
p1271
sg12
g9
sa(dp1272
g6
VSir!
p1273
sg8
g9
sg10
VLEO
p1274
sg12
g9
sa(dp1275
g6
VSo close.
p1276
sg8
g9
sg10
VBARTLET
p1277
sg12
g9
sa(dp1278
g6
VMr. President.
p1279
sg8
g9
sg10
VLEO
p1280
sg12
g9
sa(dp1281
g6
VThat tenth one! See, if there were just nine...
p1282
sg8
g9
sg10
VBARTLET
p1283
sg12
g9
sa(dp1284
g6
VLook, the tracking software on the KM vehicle clearly acquired the read on both the target and the decoy.
p1285
sg8
g9
sg10
VLEO
p1286
sg12
g9
sa(dp1287
g6
VAnd, for the first time ever, successfully rendered a clean identification differential.
p1288
sg8
g28
sg10
VLEO
p1289
sg12
g9
sa(dp1290
g6
VLeo, seriously, when they were telling you that on the phone, how stupid did you think you'd sound saying that to me?
p1291
sg8
g24
sg10
VBARTLET
p1292
sg12
g9
sa(dp1293
g6
VThis project needs money!
p1294
sg8
g28
sg10
VLEO
p1295
sg12
g9
sa(dp1296
g6
VIt doesn't work.
p1297
sg8
g9
sg10
VBARTLET
p1298
sg12
g9
sa(dp1299
g6
VNeither did several phases of Apollo 11, but Neil Armstrong claims it was a success.
p1300
sg8
g28
sg10
VLEO
p1301
sg12
g9
sa(dp1302
g6
VDo we have to decide this right now?
p1303
sg8
g9
sg10
VBARTLET
p1304
sg12
g9
sa(dp1305
g6
VNo.
p1306
sg8
g9
sg10
VLEO
p1307
sg12
g9
sa(dp1308
g6
VOkay.
p1309
sg8
g9
sg10
VBARTLET
p1310
sg12
g9
sa(dp1311
g6
VSo, about the GDC speech...
p1312
sg8
g28
sg10
VLEO
p1313
sg12
g9
sa(dp1314
g6
V[putting his glasses on and reading] Yeah?
p1315
sg8
g28
sg10
VBARTLET
p1316
sg12
g9
sa(dp1317
g6
VSince we're giving them exactly what they want, Toby thinks it's not such a bad idea if we signal our independence as well.
p1318
sg8
g28
sg10
VLEO
p1319
sg12
g9
sa(dp1320
g6
VHow?
p1321
sg8
g9
sg10
VBARTLET
p1322
sg12
g9
sa(dp1323
g6
VA drop-in. Eco-terrorism that's gone unadmonished by the GDC.
p1324
sg8
g9
sg10
VLEO
p1325
sg12
g9
sa(dp1326
g6
VFor example?
p1327
sg8
g9
sg10
VBARTLET
p1328
sg12
g9
sa(dp1329
g6
VA ski development in Colorado that threatened a rare lynx was burned in protest.
p1330
sg8
g9
sg10
VLEO
p1331
sg12
g9
sa(dp1332
g6
VAnd we can't take it for granted that everyone pretty much fundamentally opposes arson?
p1333
sg8
g28
sg10
VBARTLET
p1334
sg12
g9
sa(dp1335
g6
VA year and a half ago you stood in the Mural Room and took Al Caldwell's head off because the Christian League hadn't publicly admonished religious extremists.
p1336
sg8
g9
sg10
VLEO
p1337
sg12
g9
sa(dp1338
g6
VIt would be hypocrisy not to hold our friends to the same standard...
p1339
sg8
g24
sg10
VBARTLET
p1340
sg12
g9
sa(dp1341
g6
VYes.
p1342
sg8
g9
sg10
VLEO
p1343
sg12
g28
sa(dp1344
g6
VYet it feels strange to score political points by doing the right thin.
p1345
sg8
g28
sg10
VBARTLET
p1346
sg12
g9
sa(dp1347
g6
VYeah.
p1348
sg8
g9
sg10
VLEO
p1349
sg12
g9
sa(dp1350
g6
V[gruffly] I'm victim to my own purity of character.
p1351
sg8
g9
sg10
VBARTLET
p1352
sg12
g9
sa(dp1353
g6
VWhatever. [beat] We'll get you some information on the lynx, which is a kind of a possum, I think.
p1354
sg8
g28
sg10
VLEO
p1355
sg12
g9
sa(dp1356
g6
VOkay, well, it's not a kind of a possum, so why don't you get me that information. Toby doesn't want it in the speech?
p1357
sg8
g28
sg10
VBARTLET
p1358
sg12
g9
sa(dp1359
g6
VJust the drop-in.
p1360
sg8
g9
sg10
VLEO
p1361
sg12
g9
sa(dp1362
g6
VDid you hear?
p1363
sg8
g9
sg10
VBARTLET
p1364
sg12
g28
sa(dp1365
g6
VAbout Marbury?
p1366
sg8
g9
sg10
VLEO
p1367
sg12
g9
sa(dp1368
g6
VAin't it great?
p1369
sg8
g9
sg10
VBARTLET
p1370
sg12
g9
sa(dp1371
g6
VYes, sir. And I assume you're enjoying my suffering?
p1372
sg8
g28
sg10
VLEO
p1373
sg12
g9
sa(dp1374
g6
VAbsolutely.
p1375
sg8
g9
sg10
VBARTLET
p1376
sg12
g9
sa(dp1377
g6
VAnything else?
p1378
sg8
g9
sg10
VLEO
p1379
sg12
g9
sa(dp1380
g6
VNo.
p1381
sg8
g9
sg10
VBARTLET
p1382
sg12
g9
sa(dp1383
g6
VThank you, Mr. President. [walks out]
p1384
sg8
g9
sg10
VLEO
p1385
sg12
g9
sa(dp1386
g6
V[shouts after him] 2,000 environmentalists are going to try and kill me tomorrow night!
p1387
sg8
g24
sg10
VBARTLET
p1388
sg12
g9
sa(dp1389
g6
VWe should go, sir.
p1390
sg8
g28
sg10
VCHARLIE
p1391
sg12
g9
sa(dp1392
g6
VThey're going to come at me with vegan food and pitchforks!
p1393
sg8
g28
sg10
VBARTLET
p1394
sg12
g9
sa(dp1395
g6
V[while they walk out] That doesn't really sound like something people do.
p1396
sg8
g9
sg10
VCHARLIE
p1397
sg12
g9
sa(dp1398
g6
VStill, I'd like you to get between me and any boiled seaweed you see coming my way.
p1399
sg8
g9
sg10
VBARTLET
p1400
sg12
g9
sa(dp1401
g6
VYep.
p1402
sg8
g9
sg10
VCHARLIE
p1403
sg12
g9
sa(dp1404
g6
VMr. President.
p1405
sg8
g9
sg10
VTOBY
p1406
sg12
g9
sa(dp1407
g6
VLeo has just talked to me.
p1408
sg8
g9
sg10
VBARTLET
p1409
sg12
g9
sa(dp1410
g6
VAbout the GDC tonight.
p1411
sg8
g9
sg10
VTOBY
p1412
sg12
g9
sa(dp1413
g6
VYeah, I'm not doing this for the politics, I'm doing it because it's the right thing to do.
p1414
sg8
g9
sg10
VBARTLET
p1415
sg12
g9
sa(dp1416
g6
VWell, I'm doing it for the politics.
p1417
sg8
g9
sg10
VTOBY
p1418
sg12
g9
sa(dp1419
g6
VA lynx isn't a possum.
p1420
sg8
g9
sg10
VBARTLET
p1421
sg12
g9
sa(dp1422
g6
VI think it's in the possum family.
p1423
sg8
g9
sg10
VTOBY
p1424
sg12
g9
sa(dp1425
g6
VIt's a cat.
p1426
sg8
g9
sg10
VBARTLET
p1427
sg12
g9
sa(dp1428
g6
VOh, and we don't have enough of those. [Bartlet smiles.]
p1429
sg8
g9
sg10
VTOBY
p1430
sg12
g9
sa(dp1431
g6
VHow did Sam feel about this? [beat] Toby?
p1432
sg8
g9
sg10
VBARTLET
p1433
sg12
g9
sa(dp1434
g6
VThis isn't government camp, it's not like... it's not important that everybody gets to play!
p1435
sg8
g9
sg10
VTOBY
p1436
sg12
g9
sa(dp1437
g6
VI'm not going to tell you how to run your office, Toby.
p1438
sg8
g9
sg10
VBARTLET
p1439
sg12
g9
sa(dp1440
g6
VThank you, sir.
p1441
sg8
g28
sg10
VTOBY
p1442
sg12
g28
sa(dp1443
g6
V[beat, resumes walking] Vegan food. Coming at me all night long.
p1444
sg8
g28
sg10
VBARTLET
p1445
sg12
g9
sa(dp1446
g6
VC.J.?
p1447
sg8
g9
sg10
VTOBY
p1448
sg12
g9
sa(dp1449
g6
VYeah.
p1450
sg8
g9
sg10
VC.J.
p1451
sg12
g9
sa(dp1452
g6
VWhere are you going?
p1453
sg8
g9
sg10
VTOBY
p1454
sg12
g9
sa(dp1455
g6
VNew York, New York, Toby. The town so nice they named it twice.
p1456
sg8
g9
sg10
VC.J.
p1457
sg12
g9
sa(dp1458
g6
VWhat are you doing there?
p1459
sg8
g9
sg10
VTOBY
p1460
sg12
g9
sa(dp1461
g6
VI'm receiving the Matrix Award from New York women in communications.
p1462
sg8
g28
sg10
VC.J.
p1463
sg12
g9
sa(dp1464
g6
VFor what?
p1465
sg8
g9
sg10
VTOBY
p1466
sg12
g9
sa(dp1467
g6
VI discovered a comet. What do you mean, 'for what?' Past winners, by the way, include Cokie Roberts, Diane Sawyer and Ms. Leslie Stahl.
p1468
sg8
g28
sg10
VC.J.
p1469
sg12
g9
sa(dp1470
g6
VJosh talked to you about...
p1471
sg8
g9
sg10
VTOBY
p1472
sg12
g9
sa(dp1473
g6
VYeah, I'm meeting him for a drink after the thing.
p1474
sg8
g9
sg10
VC.J.
p1475
sg12
g9
sa(dp1476
g6
VYou briefed on the Clean Air Rehabilitation...?
p1477
sg8
g9
sg10
VTOBY
p1478
sg12
g9
sa(dp1479
g6
VYeah.
p1480
sg8
g9
sg10
VC.J.
p1481
sg12
g9
sa(dp1482
g6
VOkay, you might need this: [reads from his pocketbook] 'The President has always spoken out against moderate groups not taking responsibility for extremism, and he isn't going to stop with the environmental lobby. Friends are honest with each other.' [hands C.J. the piece of paper he read from]
p1483
sg8
g28
sg10
VTOBY
p1484
sg12
g9
sa(dp1485
g6
VHe's gonna do a drop-in?
p1486
sg8
g9
sg10
VC.J.
p1487
sg12
g9
sa(dp1488
g6
VYeah.
p1489
sg8
g9
sg10
VTOBY
p1490
sg12
g9
sa(dp1491
g6
VI'll see you tomorrow night. [leaves]
p1492
sg8
g9
sg10
VC.J.
p1493
sg12
g28
sa(dp1494
g6
VHey, Toby, you want to see the speech? Sam's writing a good one.
p1495
sg8
g28
sg10
VBONNIE
p1496
sg12
g9
sa(dp1497
g6
VOh.
p1498
sg8
g9
sg10
VTOBY
p1499
sg12
g9
sa(dp1500
g6
V[fixing his tie] Climate changes have accelerated. Glaciers are shrinking. Polar sea is... what?
p1501
sg8
g28
sg10
VSAM
p1502
sg12
g9
sa(dp1503
g6
V[from communications office] It's thinning.
p1504
sg8
g9
sg10
VTOBY
p1505
sg12
g9
sa(dp1506
g6
VThe polar sea ice is thinning causing a rise in sea levels round the globe.
p1507
sg8
g28
sg10
VSAM
p1508
sg12
g9
sa(dp1509
g6
VAnd what do we say when they say, "But changes in the Clean Air Rehabilitation effort seriously choke the auto, trucking and utility business"?
p1510
sg8
g28
sg10
VTOBY
p1511
sg12
g9
sa(dp1512
g6
V[walks to Toby] $22 trillion in benefits produced versus a half trillion in compliance costs. [keeps walking past Toby]
p1513
sg8
g9
sg10
VSAM
p1514
sg12
g9
sa(dp1515
g6
VPublic health benefits?
p1516
sg8
g9
sg10
VTOBY
p1517
sg12
g9
sa(dp1518
g6
VWe'll make that clear. [turns back to face Toby] Where's C.J.?
p1519
sg8
g9
sg10
VSAM
p1520
sg12
g9
sa(dp1521
g6
VShe's in New York.
p1522
sg8
g9
sg10
VTOBY
p1523
sg12
g9
sa(dp1524
g6
VWhat's she doing in New York?
p1525
sg8
g9
sg10
VSAM
p1526
sg12
g9
sa(dp1527
g6
VShe had a lunch - media women... women of media?
p1528
sg8
g9
sg10
VTOBY
p1529
sg12
g9
sa(dp1530
g6
VThat was this afternoon.
p1531
sg8
g9
sg10
VSAM
p1532
sg12
g9
sa(dp1533
g6
VShe had to stay around.
p1534
sg8
g9
sg10
VTOBY
p1535
sg12
g9
sa(dp1536
g6
VSo it's just me?
p1537
sg8
g9
sg10
VSAM
p1538
sg12
g9
sa(dp1539
g6
VYeah. Call me from the place.
p1540
sg8
g9
sg10
VTOBY
p1541
sg12
g9
sa(dp1542
g6
VYeah.
p1543
sg8
g9
sg10
VSAM
p1544
sg12
g9
sa(dp1545
g6
VWell, it's the 12th draft. Whether or not it's the final draft is up to you.
p1546
sg8
g9
sg10
VGINGER
p1547
sg12
g9
sa(dp1548
g6
VIs that sass?
p1549
sg8
g9
sg10
VSAM
p1550
sg12
g9
sa(dp1551
g6
VYeah.
p1552
sg8
g9
sg10
VGINGER
p1553
sg12
g9
sa(dp1554
g6
VOkay. The difference between a good speech and a great speech is the energy with which the audience comes to their feet at the end. Is it polite? Is it a chore? Are they standing up because their boss is standing up? No, we want it to come from their socks. We've got a half an hour. Let's read it again.
p1555
sg8
g28
sg10
VSAM
p1556
sg12
g9
sa(dp1557
g6
VEvery time one of these tests fails, congressional Democrats jump on it as a reason to kill the program.
p1558
sg8
g28
sg10
VLEO
p1559
sg12
g9
sa(dp1560
g6
VYou're not going to turn the President around on the missile shield.
p1561
sg8
g9
sg10
VJOSH
p1562
sg12
g9
sa(dp1563
g6
VWell, I'm not going to turn him around today. And probably not tomorrow. But as long as somebody has the money to keep trying to make it work, then I'm fine.
p1564
sg8
g28
sg10
VLEO
p1565
sg12
g9
sa(dp1566
g6
V[walks in] Leo?
p1567
sg8
g9
sg10
VMARGARET
p1568
sg12
g9
sa(dp1569
g6
VYeah?
p1570
sg8
g9
sg10
VLEO
p1571
sg12
g9
sa(dp1572
g6
VThere's someone here to see you.
p1573
sg8
g9
sg10
VMARGARET
p1574
sg12
g9
sa(dp1575
g6
VWho?
p1576
sg8
g9
sg10
VLEO
p1577
sg12
g9
sa(dp1578
g6
VOh, God.
p1579
sg8
g9
sg10
VLEO
p1580
sg12
g9
sa(dp1581
g6
V[enters] Gerald! Old friend!
p1582
sg8
g28
sg10
VMARBURY
p1583
sg12
g9
sa(dp1584
g6
VGood to see you, ambassador.
p1585
sg8
g28
sg10
VLEO
p1586
sg12
g9
sa(dp1587
g6
VIt's as if the gods themselves insist we be not long apart, you and I.
p1588
sg8
g9
sg10
VMARBURY
p1589
sg12
g9
sa(dp1590
g6
VThey do seem to strongly insist upon that, yes.
p1591
sg8
g28
sg10
VLEO
p1592
sg12
g9
sa(dp1593
g6
VYour assistant, Margaret, is looking positively buxom.
p1594
sg8
g28
sg10
VMARBURY
p1595
sg12
g9
sa(dp1596
g6
VThank you, I'll tell her.
p1597
sg8
g9
sg10
VLEO
p1598
sg12
g28
sa(dp1599
g6
V[turns in her direction] Yes, well done! [indicates a woman behind him] Oh, my aide, Caprice.
p1600
sg8
g9
sg10
VMARBURY
p1601
sg12
g9
sa(dp1602
g6
V[shakes Leo's hand] How do you do?
p1603
sg8
g9
sg10
VCAPRICE
p1604
sg12
g9
sa(dp1605
g6
VLeo McGarry.
p1606
sg8
g9
sg10
VLEO
p1607
sg12
g9
sa(dp1608
g6
VGood to see you, ambassador.
p1609
sg8
g28
sg10
VJOSH
p1610
sg12
g9
sa(dp1611
g6
VGod bless you, Josh. The prayers of millions were answered.
p1612
sg8
g28
sg10
VMARBURY
p1613
sg12
g9
sa(dp1614
g6
V[a little stunned] Thank you, sir.
p1615
sg8
g9
sg10
VJOSH
p1616
sg12
g9
sa(dp1617
g6
VI have come.
p1618
sg8
g9
sg10
VMARBURY
p1619
sg12
g24
sa(dp1620
g6
VYes.
p1621
sg8
g9
sg10
VLEO
p1622
sg12
g28
sa(dp1623
g6
VI am Lord John Marbury, along with my aide, Caprice, and I am hereby presenting my credentials in the fervent hope...
p1624
sg8
g28
sg10
VMARBURY
p1625
sg12
g9
sa(dp1626
g6
VJohn, we do that later with the President.
p1627
sg8
g9
sg10
VLEO
p1628
sg12
g9
sa(dp1629
g6
VExcellent! [hands papers back to Caprice]
p1630
sg8
g9
sg10
VMARBURY
p1631
sg12
g9
sa(dp1632
g6
VI will tell you, though, that I personally welcome you and I look forward to our new partnership.
p1633
sg8
g28
sg10
VLEO
p1634
sg12
g9
sa(dp1635
g6
VAs do I.
p1636
sg8
g9
sg10
VMARBURY
p1637
sg12
g9
sa(dp1638
g6
VI know we've had our differences in the past but I think you know I respect you. I congratulate you on this auspicious occasion. As a matter of fact, the timing of your arrival couldn't be better.
p1639
sg8
g28
sg10
VLEO
p1640
sg12
g9
sa(dp1641
g6
VHow so?
p1642
sg8
g9
sg10
VMARBURY
p1643
sg12
g9
sa(dp1644
g6
VLeo's trying to convince the president to give the NMD more time.
p1645
sg8
g28
sg10
VJOSH
p1646
sg12
g9
sa(dp1647
g6
VAnd you're an expert in the field. And I hope I can count on your support.
p1648
sg8
g28
sg10
VLEO
p1649
sg12
g9
sa(dp1650
g6
VYou may hope for it but you'll not have it.
p1651
sg8
g28
sg10
VMARBURY
p1652
sg12
g9
sa(dp1653
g6
VWhy not?
p1654
sg8
g9
sg10
VLEO
p1655
sg12
g9
sa(dp1656
g6
VBecause the NMD is an absurdly wasteful military boondoggle that will never produce a working missile. It violates any number of elements of the ABM treaty. And any argument you make in its defense will surely be moronic.
p1657
sg8
g24
sg10
VMARBURY
p1658
sg12
g9
sa(dp1659
g6
VAh, detente.
p1660
sg8
g9
sg10
VJOSH
p1661
sg12
g9
sa(dp1662
g6
VI'm sorry, Gerald.
p1663
sg8
g9
sg10
VMARBURY
p1664
sg12
g9
sa(dp1665
g6
VWe're going to have this out.
p1666
sg8
g9
sg10
VLEO
p1667
sg12
g9
sa(dp1668
g6
VExcellent.
p1669
sg8
g9
sg10
VMARBURY
p1670
sg12
g9
sa(dp1671
g6
VLet's go get you knighted or whatever the hell it is we do.
p1672
sg8
g24
sg10
VLEO
p1673
sg12
g9
sa(dp1674
g6
VHey, how you doing?
p1675
sg8
g9
sg10
VC.J.
p1676
sg12
g9
sa(dp1677
g6
VNot bad.
p1678
sg8
g24
sg10
VCOREY
p1679
sg12
g9
sa(dp1680
g6
VThanks for taking the time.
p1681
sg8
g9
sg10
VC.J.
p1682
sg12
g9
sa(dp1683
g6
VYeah, I've gotta get back pretty soon.
p1684
sg8
g28
sg10
VCOREY
p1685
sg12
g9
sa(dp1686
g6
VI won't take long. [They sit.]
p1687
sg8
g9
sg10
VC.J.
p1688
sg12
g28
sa(dp1689
g6
VYou wanna stay for the show?
p1690
sg8
g24
sg10
VCOREY
p1691
sg12
g9
sa(dp1692
g6
VI gotta get the 7:00 shuttle.
p1693
sg8
g9
sg10
VC.J.
p1694
sg12
g9
sa(dp1695
g6
VYou want something to drink?
p1696
sg8
g9
sg10
VCOREY
p1697
sg12
g9
sa(dp1698
g6
VUh, a club soda.
p1699
sg8
g9
sg10
VC.J.
p1700
sg12
g9
sa(dp1701
g6
V[to waitress] Alicia? Can I get a club soda?
p1702
sg8
g9
sg10
VCOREY
p1703
sg12
g9
sa(dp1704
g6
VOh, I haven't seen the movie yet.
p1705
sg8
g9
sg10
VC.J.
p1706
sg12
g9
sa(dp1707
g6
VYou should see it. It's good.
p1708
sg8
g28
sg10
VCOREY
p1709
sg12
g9
sa(dp1710
g6
VThat's what everybody's saying.
p1711
sg8
g9
sg10
VC.J.
p1712
sg12
g9
sa(dp1713
g6
VWell, I appreciate that.
p1714
sg8
g9
sg10
VCOREY
p1715
sg12
g9
sa(dp1716
g6
V[laughs] So, you know, this is about the Will Rogers dinner.
p1717
sg8
g28
sg10
VC.J.
p1718
sg12
g9
sa(dp1719
g6
VYeah.
p1720
sg8
g9
sg10
VCOREY
p1721
sg12
g9
sa(dp1722
g6
VThey're going to ask you to host and obviously the President's going to be there. [beat] We appreciate the support.
p1723
sg8
g9
sg10
VC.J.
p1724
sg12
g9
sa(dp1725
g6
VYou want me to say no.
p1726
sg8
g9
sg10
VCOREY
p1727
sg12
g9
sa(dp1728
g6
VWe think the press'll go back two years and bring up the whole...
p1729
sg8
g9
sg10
VC.J.
p1730
sg12
g9
sa(dp1731
g6
VLet'em.
p1732
sg8
g9
sg10
VCOREY
p1733
sg12
g9
sa(dp1734
g6
VI don't want to. Uh, you know how I feel about you. You know I don't mean you disrespect.
p1735
sg8
g24
sg10
VC.J.
p1736
sg12
g9
sa(dp1737
g6
VYou don't?
p1738
sg8
g9
sg10
VCOREY
p1739
sg12
g9
sa(dp1740
g6
VNo!
p1741
sg8
g9
sg10
VC.J.
p1742
sg12
g9
sa(dp1743
g6
VI've raised money for you. I've registered voters for you. I've done commercials for you. And I voted for you. Because of something I never did wrong two years ago, you don't want to be on the dais with me?
p1744
sg8
g9
sg10
VCOREY
p1745
sg12
g9
sa(dp1746
g6
VThat's not...
p1747
sg8
g9
sg10
VC.J.
p1748
sg12
g9
sa(dp1749
g6
VIt takes a special kind of arrogance not to think that that's not disrespectful.
p1750
sg8
g9
sg10
VCOREY
p1751
sg12
g9
sa(dp1752
g6
VThanks, Alicia. [to C.J.] Make your case. I've got to be funny in a while.
p1753
sg8
g24
sg10
VCOREY
p1754
sg12
g9
sa(dp1755
g6
VIt missed by 137 miles?!
p1756
sg8
g9
sg10
VMARBURY
p1757
sg12
g9
sa(dp1758
g6
VYes.
p1759
sg8
g9
sg10
VLEO
p1760
sg12
g28
sa(dp1761
g6
VIt could have missed by 37 fewer miles and it still would have missed by 100 miles. It doesn't work.
p1762
sg8
g9
sg10
VMARBURY
p1763
sg12
g9
sa(dp1764
g6
VThat depends on what your definition is.
p1765
sg8
g9
sg10
VLEO
p1766
sg12
g9
sa(dp1767
g6
VMy definition is precisely the same as everyone else's.
p1768
sg8
g9
sg10
VMARBURY
p1769
sg12
g9
sa(dp1770
g6
V[walks in with Josh and Charlie] John!
p1771
sg8
g9
sg10
VBARTLET
p1772
sg12
g9
sa(dp1773
g6
VMr. President.
p1774
sg8
g9
sg10
VMARBURY
p1775
sg12
g9
sa(dp1776
g6
V[shakes his hand] It's good to have you here.
p1777
sg8
g28
sg10
VBARTLET
p1778
sg12
g9
sa(dp1779
g6
VYour servant, as always.
p1780
sg8
g24
sg10
VMARBURY
p1781
sg12
g9
sa(dp1782
g6
VWhat made you decide to take the post?
p1783
sg8
g9
sg10
VBARTLET
p1784
sg12
g9
sa(dp1785
g6
VOh, I don't know. I suppose it was possible I was drunk.
p1786
sg8
g9
sg10
VMARBURY
p1787
sg12
g9
sa(dp1788
g6
VReasonable bet.
p1789
sg8
g9
sg10
VJOSH
p1790
sg12
g9
sa(dp1791
g6
VListen, I gotta go a few blocks across town to give an address on global warming and the future of our planet. That's not something you're interested in, right?
p1792
sg8
g28
sg10
VBARTLET
p1793
sg12
g9
sa(dp1794
g6
VGood God, no.
p1795
sg8
g9
sg10
VMARBURY
p1796
sg12
g9
sa(dp1797
g6
VOkay. Well, stay here and fight with Leo about something. We'll get you some dinner. I'll be back in an hour. We'll do your thing and then enjoy your reception.
p1798
sg8
g28
sg10
VBARTLET
p1799
sg12
g9
sa(dp1800
g6
VExcellent.
p1801
sg8
g9
sg10
VMARBURY
p1802
sg12
g9
sa(dp1803
g6
VIndeed.
p1804
sg8
g9
sg10
VLEO
p1805
sg12
g9
sa(dp1806
g6
VHere we go.
p1807
sg8
g9
sg10
VCHARLIE
p1808
sg12
g9
sa(dp1809
g6
VAn hour, did he say?
p1810
sg8
g9
sg10
VMARBURY
p1811
sg12
g9
sa(dp1812
g6
VYes.
p1813
sg8
g9
sg10
VJOSH
p1814
sg12
g28
sa(dp1815
g6
VI'll need some amusement.
p1816
sg8
g28
sg10
VMARBURY
p1817
sg12
g9
sa(dp1818
g6
V[enters] Good evening, your lordship.
p1819
sg8
g28
sg10
VDONNA
p1820
sg12
g9
sa(dp1821
g6
VExcellent.
p1822
sg8
g9
sg10
VMARBURY
p1823
sg12
g9
sa(dp1824
g6
VCorey...
p1825
sg8
g9
sg10
VC.J.
p1826
sg12
g9
sa(dp1827
g6
VHang on.
p1828
sg8
g9
sg10
VCOREY
p1829
sg12
g9
sa(dp1830
g6
VNo, wait a second...
p1831
sg8
g24
sg10
VC.J.
p1832
sg12
g9
sa(dp1833
g6
VLet me finish.
p1834
sg8
g9
sg10
VCOREY
p1835
sg12
g9
sa(dp1836
g6
VIt was not a benign joke.
p1837
sg8
g9
sg10
VC.J.
p1838
sg12
g9
sa(dp1839
g6
VC.J....
p1840
sg8
g9
sg10
VCOREY
p1841
sg12
g9
sa(dp1842
g6
VYou don't tell benign jokes.
p1843
sg8
g28
sg10
VC.J.
p1844
sg12
g9
sa(dp1845
g6
VIt's a matter of...
p1846
sg8
g9
sg10
VCOREY
p1847
sg12
g9
sa(dp1848
g6
VIt was a joke about New York City cops shooting black men.
p1849
sg8
g24
sg10
VC.J.
p1850
sg12
g9
sa(dp1851
g6
VI'm a black man. I'm in a room full of rich Democrats in an election year. What you thought I was going to talk about airline food?
p1852
sg8
g28
sg10
VCOREY
p1853
sg12
g9
sa(dp1854
g6
VIt was a political fundraiser in the heat of a national campaign. You weren't doing a 2 a.m. set at Catch a Rising Star.
p1855
sg8
g9
sg10
VC.J.
p1856
sg12
g9
sa(dp1857
g6
V[insulted] You know how many years it's been since I worked Catch a Rising Star?
p1858
sg8
g9
sg10
VCOREY
p1859
sg12
g9
sa(dp1860
g6
VYou made the joke, and inoffensive as you think it may have been, there was enormous pressure on the candidate to disavow your remarks and he did not.
p1861
sg8
g24
sg10
VC.J.
p1862
sg12
g9
sa(dp1863
g6
VAnd I'm supposed to be...
p1864
sg8
g9
sg10
VCOREY
p1865
sg12
g9
sa(dp1866
g6
VCorey...
p1867
sg8
g9
sg10
VC.J.
p1868
sg12
g9
sa(dp1869
g6
VAnd I'm supposed to feel good about that? That he didn't disavow me? That I wasn't disavowed?
p1870
sg8
g28
sg10
VCOREY
p1871
sg12
g9
sa(dp1872
g6
VWe were courting law enforcement, Corey. Don't be naive.
p1873
sg8
g24
sg10
VC.J.
p1874
sg12
g9
sa(dp1875
g6
VYou were also courting the black vote, C.J.. I'm not naive.
p1876
sg8
g24
sg10
VCOREY
p1877
sg12
g9
sa(dp1878
g6
VWhat did you expect us to do?
p1879
sg8
g28
sg10
VC.J.
p1880
sg12
g9
sa(dp1881
g6
VI expected that when I was called, in any number of places, a Hollywood sleaze, that you might have said a few words, maybe, on my behalf. I expected that you were going to say, "We in the Bartlet campaign do not believe Cornelius Sykes is a Hollywood sleaze. We believe he's a world class humorist and millions of Americans agree. We believe his humor can be disconcerting to some but those who are making noise right now are feigning their concern in an effort to frighten white men." But what you said was, "He didn't laugh at the joke."
p1882
sg8
g28
sg10
VCOREY
p1883
sg12
g9
sa(dp1884
g6
VCorey...
p1885
sg8
g9
sg10
VC.J.
p1886
sg12
g9
sa(dp1887
g6
VHe did laugh at the joke.
p1888
sg8
g9
sg10
VCOREY
p1889
sg12
g9
sa(dp1890
g6
VYeah.
p1891
sg8
g9
sg10
VC.J.
p1892
sg12
g9
sa(dp1893
g6
VHe laughed at the joke, C.J.. I've been doing this for 20 years. You don't think I'd know if I had him? I killed that night. That was a very big deal for me. To play in front of that audience? To get that man to laugh? And the next day my parents read in the paper that I am Hollywood sleaze. But that's okay cause the candidate didn't think it was funny.
p1894
sg8
g28
sg10
VCOREY
p1895
sg12
g9
sa(dp1896
g6
V[looking uncomfortable] I understand.
p1897
sg8
g24
sg10
VC.J.
p1898
sg12
g9
sa(dp1899
g6
VI don't want to cause any trouble for the President. You knew that when you walked in here. I'll pass on the dinner. I'll tell'em it's cause I can't get out of a booking. But the president laughed at the joke, C.J.. I killed that night.
p1900
sg8
g28
sg10
VCOREY
p1901
sg12
g9
sa(dp1902
g6
V[smiling] You did. Okay, I gotta go.
p1903
sg8
g28
sg10
VC.J.
p1904
sg12
g9
sa(dp1905
g6
VI'll see you next time.
p1906
sg8
g9
sg10
VCOREY
p1907
sg12
g9
sa(dp1908
g6
VIs the President offstage yet?
p1909
sg8
g9
sg10
VTOBY
p1910
sg12
g28
sa(dp1911
g6
VJust about.
p1912
sg8
g9
sg10
VBONNIE
p1913
sg12
g9
sa(dp1914
g6
VAnyone know how it's going?
p1915
sg8
g9
sg10
VTOBY
p1916
sg12
g9
sa(dp1917
g6
VToby?
p1918
sg8
g9
sg10
VGINGER
p1919
sg12
g9
sa(dp1920
g6
VYeah?
p1921
sg8
g9
sg10
VTOBY
p1922
sg12
g9
sa(dp1923
g6
V[holds up the phone] It's Sam.
p1924
sg8
g9
sg10
VGINGER
p1925
sg12
g9
sa(dp1926
g6
VYeah. [walks into his office and picks up the phone] Yeah?
p1927
sg8
g9
sg10
VTOBY
p1928
sg12
g9
sa(dp1929
g6
V[disappointed, into phone] He admonished them.
p1930
sg8
g24
sg10
VSAM
p1931
sg12
g9
sa(dp1932
g6
VSam...
p1933
sg8
g9
sg10
VTOBY
p1934
sg12
g9
sa(dp1935
g6
VHe went off the speech right at the end and slapped them down for not speaking out...
p1936
sg8
g28
sg10
VSAM
p1937
sg12
g9
sa(dp1938
g6
VYeah.
p1939
sg8
g9
sg10
VTOBY
p1940
sg12
g9
sa(dp1941
g6
V...on eco-terrorism.
p1942
sg8
g9
sg10
VSAM
p1943
sg12
g9
sa(dp1944
g6
VListen.
p1945
sg8
g9
sg10
VTOBY
p1946
sg12
g9
sa(dp1947
g6
VHe just flew off the speech.
p1948
sg8
g28
sg10
VSAM
p1949
sg12
g9
sa(dp1950
g6
VSam, listen.
p1951
sg8
g9
sg10
VTOBY
p1952
sg12
g28
sa(dp1953
g6
VSomething about a Colorado ski resort.
p1954
sg8
g9
sg10
VSAM
p1955
sg12
g9
sa(dp1956
g6
VSam, are you listening?
p1957
sg8
g9
sg10
VTOBY
p1958
sg12
g28
sa(dp1959
g6
VTalk to me.
p1960
sg8
g9
sg10
VSAM
p1961
sg12
g9
sa(dp1962
g6
VHere's what you say, "Friends are honest with each other. The President has always spoken out on moderate groups not taking responsibility for terrorism and he isn't going to stop with the environmental lobby."
p1963
sg8
g28
sg10
VTOBY
p1964
sg12
g9
sa(dp1965
g6
VOkay.
p1966
sg8
g9
sg10
VSAM
p1967
sg12
g9
sa(dp1968
g6
VYou got that?
p1969
sg8
g9
sg10
VTOBY
p1970
sg12
g9
sa(dp1971
g6
VYeah.
p1972
sg8
g9
sg10
VSAM
p1973
sg12
g9
sa(dp1974
g6
V[hears clapping] What's happening? [pause] Sam, what's happening?
p1975
sg8
g9
sg10
VTOBY
p1976
sg12
g9
sa(dp1977
g6
V[standing outside the room, his back to a wall, looking mournful] They're not standing.
p1978
sg8
g28
sg10
VSAM
p1979
sg12
g9
sa(dp1980
g6
VSo you're actual royalty?
p1981
sg8
g28
sg10
VDONNA
p1982
sg12
g9
sa(dp1983
g6
VYes.
p1984
sg8
g9
sg10
VMARBURY
p1985
sg12
g28
sa(dp1986
g6
VIt's not just an honorary thing?
p1987
sg8
g9
sg10
VDONNA
p1988
sg12
g9
sa(dp1989
g6
VNo, in fact there's little honor attached to it at all
p1990
sg8
g28
sg10
VMARBURY
p1991
sg12
g9
sa(dp1992
g6
VTell me about yourself.
p1993
sg8
g9
sg10
VDONNA
p1994
sg12
g9
sa(dp1995
g6
VWell, my mother was a descendant of the third of the nine children of Victoria. Victoria was the granddaughter of George the third, who was the great-grandson of George the first. George the first was the great-nephew of Charles the first, who was the son of James the first, and James' mother was Mary, Queen of Scots.
p1996
sg8
g9
sg10
VMARBURY
p1997
sg12
g9
sa(dp1998
g6
VAnd are you and Caprice an item?
p1999
sg8
g9
sg10
VDONNA
p2000
sg12
g28
sa(dp2001
g6
VWhy, no.
p2002
sg8
g9
sg10
VMARBURY
p2003
sg12
g9
sa(dp2004
g6
V[walking up between them] Mr. Ambassador?
p2005
sg8
g9
sg10
VCHARLIE
p2006
sg12
g9
sa(dp2007
g6
VIs he back?
p2008
sg8
g9
sg10
VMARBURY
p2009
sg12
g9
sa(dp2010
g6
VHe's back, but he's receiving credentials from Her Excellency Renee Ernesto of Argentina and asked for your patience.
p2011
sg8
g28
sg10
VCHARLIE
p2012
sg12
g9
sa(dp2013
g6
VThen my patience he shall have!
p2014
sg8
g28
sg10
VMARBURY
p2015
sg12
g9
sa(dp2016
g6
VC.J.!
p2017
sg8
g9
sg10
VSAM
p2018
sg12
g9
sa(dp2019
g6
VYeah.
p2020
sg8
g9
sg10
VC.J.
p2021
sg12
g9
sa(dp2022
g6
VYou just get back?
p2023
sg8
g9
sg10
VSAM
p2024
sg12
g9
sa(dp2025
g6
VYeah.
p2026
sg8
g9
sg10
VC.J.
p2027
sg12
g9
sa(dp2028
g6
VYou heard what happened?
p2029
sg8
g9
sg10
VSAM
p2030
sg12
g9
sa(dp2031
g6
VYeah. Here's what it is: the President has always spoken out on moderate groups not taking responsibility for extremism, and he isn't going to stop at the environmental lobby. Friends are honest with each other. [as Sam stops walking] Sam?
p2032
sg8
g28
sg10
VC.J.
p2033
sg12
g9
sa(dp2034
g6
VHave you spoken to Toby?
p2035
sg8
g9
sg10
VSAM
p2036
sg12
g9
sa(dp2037
g6
VWhen?
p2038
sg8
g9
sg10
VC.J.
p2039
sg12
g9
sa(dp2040
g6
VSince after the speech tonight
p2041
sg8
g28
sg10
VSAM
p2042
sg12
g9
sa(dp2043
g6
VNo.
p2044
sg8
g9
sg10
VC.J.
p2045
sg12
g9
sa(dp2046
g6
VOkay.
p2047
sg8
g9
sg10
VSAM
p2048
sg12
g9
sa(dp2049
g6
VThey're setting up for the reception?
p2050
sg8
g9
sg10
VC.J.
p2051
sg12
g9
sa(dp2052
g6
VYeah.
p2053
sg8
g9
sg10
VSAM
p2054
sg12
g9
sa(dp2055
g6
VSixty billion dollars can be spent on other things.
p2056
sg8
g24
sg10
VTOBY
p2057
sg12
g9
sa(dp2058
g6
VI'm all for retention pay. I'm all for health benefits. I'm all for procurement.
p2059
sg8
g28
sg10
VLEO
p2060
sg12
g9
sa(dp2061
g6
VI'm talking about Abrams' tax and Apache helicopters, which we know work.
p2062
sg8
g24
sg10
VTOBY
p2063
sg12
g9
sa(dp2064
g6
VAn Apache helicopter will not stop a Shahab3 longrange stiletto, or a North Korean ICBM.
p2065
sg8
g9
sg10
VLEO
p2066
sg12
g24
sa(dp2067
g6
VWell so far neither can anything else. [calling outside] Hey, Sam?
p2068
sg8
g9
sg10
VTOBY
p2069
sg12
g9
sa(dp2070
g6
VI'm going back in there.
p2071
sg8
g9
sg10
VLEO
p2072
sg12
g9
sa(dp2073
g6
VHave you been getting questions?
p2074
sg8
g9
sg10
VTOBY
p2075
sg12
g28
sa(dp2076
g6
VI'm sorry?
p2077
sg8
g9
sg10
VSAM
p2078
sg12
g9
sa(dp2079
g6
VHave you been getting questions?
p2080
sg8
g9
sg10
VTOBY
p2081
sg12
g28
sa(dp2082
g6
VYeah.
p2083
sg8
g9
sg10
VSAM
p2084
sg12
g9
sa(dp2085
g6
VFrom the press, or...?
p2086
sg8
g9
sg10
VTOBY
p2087
sg12
g9
sa(dp2088
g6
VThe press'll be tomorrow.
p2089
sg8
g9
sg10
VSAM
p2090
sg12
g9
sa(dp2091
g6
VSo who's asking?
p2092
sg8
g9
sg10
VTOBY
p2093
sg12
g9
sa(dp2094
g6
VThe chairman of the GDC. Four Congressmen. The Secretary of the Interior. Who'd you think would be talking to me?
p2095
sg8
g28
sg10
VSAM
p2096
sg12
g9
sa(dp2097
g6
VThen what did you...?
p2098
sg8
g9
sg10
VTOBY
p2099
sg12
g9
sa(dp2100
g6
VI said, "Sometimes friends have to be honest with each other." I said exactly what you told me to say, which, coincidentally, is exactly C.J. told me to say, which is remarkable when you consider that C.J. was in New York during the event and didn't speak to you afterward. I mean, it's almost as if there were people who knew it was going to happen.
p2101
sg8
g28
sg10
VSAM
p2102
sg12
g9
sa(dp2103
g6
VSam...
p2104
sg8
g9
sg10
VTOBY
p2105
sg12
g9
sa(dp2106
g6
VGet away from me.
p2107
sg8
g9
sg10
VSAM
p2108
sg12
g9
sa(dp2109
g6
VHey, Sam.
p2110
sg8
g9
sg10
VCHARLIE
p2111
sg12
g9
sa(dp2112
g6
VIs it possible I could get in for just a minute?
p2113
sg8
g9
sg10
VSAM
p2114
sg12
g9
sa(dp2115
g6
VHe's pretty tight right now. I don't think I can get you in.
p2116
sg8
g28
sg10
VCHARLIE
p2117
sg12
g9
sa(dp2118
g6
VOh, well, yes. Oh, certainly. There's uh, Edward, Earl of Ulster. He's the son of Richard, Duke of Gloucester, who's the son of Henry, Duke of Gloucester.
p2119
sg8
g9
sg10
VMARBURY
p2120
sg12
g9
sa(dp2121
g6
VEdward, Earl of Ulster?
p2122
sg8
g9
sg10
VDONNA
p2123
sg12
g9
sa(dp2124
g6
VYes.
p2125
sg8
g9
sg10
VMARBURY
p2126
sg12
g28
sa(dp2127
g6
VDo you think he'd like me?
p2128
sg8
g9
sg10
VDONNA
p2129
sg12
g9
sa(dp2130
g6
VDo you date younger men?
p2131
sg8
g28
sg10
VMARBURY
p2132
sg12
g9
sa(dp2133
g6
VSure. How old is he?
p2134
sg8
g9
sg10
VDONNA
p2135
sg12
g9
sa(dp2136
g6
VFive.
p2137
sg8
g9
sg10
VMARBURY
p2138
sg12
g9
sa(dp2139
g6
VOkay, well let's stick a pin in that for a moment and move on.
p2140
sg8
g9
sg10
VDONNA
p2141
sg12
g9
sa(dp2142
g6
VHello.
p2143
sg8
g9
sg10
VLEO
p2144
sg12
g9
sa(dp2145
g6
VHello.
p2146
sg8
g9
sg10
VDONNA
p2147
sg12
g9
sa(dp2148
g6
VAm I interrupting?
p2149
sg8
g9
sg10
VLEO
p2150
sg12
g9
sa(dp2151
g6
VNot at all.
p2152
sg8
g9
sg10
VMARBURY
p2153
sg12
g9
sa(dp2154
g6
VAmbassador Marbury was just telling me about how royal men are schooled in the ways of courtship. King George III, for example, sailed his bride up the river Thames to music that was specially composed.
p2155
sg8
g28
sg10
VDONNA
p2156
sg12
g9
sa(dp2157
g6
VYeah. That was just a few years before we opened up a big can of whoopass on him at Yorktown.
p2158
sg8
g9
sg10
VLEO
p2159
sg12
g9
sa(dp2160
g6
VLeo, I- [as Donna slips away]
p2161
sg8
g9
sg10
VMARBURY
p2162
sg12
g9
sa(dp2163
g6
VHow can you look at North Korea, which 24 months ago fired a Taepodong missile...?
p2164
sg8
g9
sg10
VLEO
p2165
sg12
g9
sa(dp2166
g6
VUh, which failed...
p2167
sg8
g9
sg10
VMARBURY
p2168
sg12
g9
sa(dp2169
g6
VAnd with some modifications it'll be able to reach Alaska.
p2170
sg8
g9
sg10
VLEO
p2171
sg12
g9
sa(dp2172
g6
VWell I don't live in Alaska, I live in England, which by the way is not protected by the shield. Not that anywhere else is at the moment, either. You've also forgotten that we're both signatories to the '72 ABM treaty, which the shield is in clear violation. You've forgotten that it will compel China to strengthen their nuclear arsenal. You've forgotten that the European allies have strong reservations about the shield. And you've forgotten that it doesn't work.
p2173
sg8
g24
sg10
VMARBURY
p2174
sg12
g9
sa(dp2175
g6
VYou know what I haven't forgotten?
p2176
sg8
g24
sg10
VLEO
p2177
sg12
g9
sa(dp2178
g6
VWhat?
p2179
sg8
g9
sg10
VMARBURY
p2180
sg12
g9
sa(dp2181
g6
VThat we opened up a big can of whoopass on you at Yorktown!
p2182
sg8
g9
sg10
VLEO
p2183
sg12
g9
sa(dp2184
g6
VAll right.
p2185
sg8
g9
sg10
VMARBURY
p2186
sg12
g9
sa(dp2187
g6
V[coming up to them] Leo?
p2188
sg8
g9
sg10
VCHARLIE
p2189
sg12
g9
sa(dp2190
g6
VExcuse me.
p2191
sg8
g9
sg10
VLEO
p2192
sg12
g9
sa(dp2193
g6
VExcuse me.
p2194
sg8
g9
sg10
VMARBURY
p2195
sg12
g9
sa(dp2196
g6
V[passing by Charlie] I'm going to correspond with Edward, Earl of Ulster, once he learns how to read and write.
p2197
sg8
g9
sg10
VDONNA
p2198
sg12
g9
sa(dp2199
g6
VOkay.
p2200
sg8
g9
sg10
VCHARLIE
p2201
sg12
g9
sa(dp2202
g6
VHere you go.
p2203
sg8
g9
sg10
VALICE
p2204
sg12
g9
sa(dp2205
g6
VNo, no, Alice. I got it.
p2206
sg8
g9
sg10
VTOBY
p2207
sg12
g28
sa(dp2208
g6
VIt's all right.
p2209
sg8
g9
sg10
VSAM
p2210
sg12
g9
sa(dp2211
g6
VNo, I got it.
p2212
sg8
g9
sg10
VTOBY
p2213
sg12
g28
sa(dp2214
g6
VYou want a beer?
p2215
sg8
g28
sg10
VALICE
p2216
sg12
g9
sa(dp2217
g6
VYeah. Thanks.
p2218
sg8
g9
sg10
VTOBY
p2219
sg12
g9
sa(dp2220
g6
VYou don't ever go into the Oval Office mad.
p2221
sg8
g24
sg10
VTOBY
p2222
sg12
g9
sa(dp2223
g6
VLook...
p2224
sg8
g9
sg10
VSAM
p2225
sg12
g9
sa(dp2226
g6
VNo, no, no. No, Sam. You don't ever go in there mad
p2227
sg8
g24
sg10
VTOBY
p2228
sg12
g9
sa(dp2229
g6
VI think the President's remarks were ill advised, to say the least.
p2230
sg8
g24
sg10
VSAM
p2231
sg12
g9
sa(dp2232
g6
VYou're wrong.
p2233
sg8
g24
sg10
VTOBY
p2234
sg12
g9
sa(dp2235
g6
VThe drop-in's the story now, Toby, not the energy package.
p2236
sg8
g9
sg10
VSAM
p2237
sg12
g9
sa(dp2238
g6
VThe energy package doesn't need to be a story; it's going to be a law.
p2239
sg8
g9
sg10
VTOBY
p2240
sg12
g9
sa(dp2241
g6
VYou don't think we're going to need the environmental lobby?
p2242
sg8
g9
sg10
VSAM
p2243
sg12
g9
sa(dp2244
g6
VI think we need them, I just don't think we're going to lose them.
p2245
sg8
g24
sg10
VTOBY
p2246
sg12
g9
sa(dp2247
g6
VAnd I think you're tragically misguided.
p2248
sg8
g24
sg10
VSAM
p2249
sg12
g9
sa(dp2250
g6
VSam...
p2251
sg8
g9
sg10
VTOBY
p2252
sg12
g9
sa(dp2253
g6
VMany, if not most, environmentalists are absolutists who will use this insult to pull their support under cover we cut a deal in Detroit.
p2254
sg8
g28
sg10
VSAM
p2255
sg12
g9
sa(dp2256
g6
VWell then they can grow up, Sam. Use this insult? They just got the energy package they wanted, they just got the president at their dinner, and they should shut up!
p2257
sg8
g28
sg10
VTOBY
p2258
sg12
g9
sa(dp2259
g6
VWell you should explain it to them just that way, Toby, cause they're really pretty receptive to that argument.
p2260
sg8
g28
sg10
VSAM
p2261
sg12
g9
sa(dp2262
g6
VWhen they look down the ballot and see the alternatives, they get receptive in a hurry.
p2263
sg8
g28
sg10
VTOBY
p2264
sg12
g9
sa(dp2265
g6
VWas there anything else, or can I sit here now?
p2266
sg8
g9
sg10
VSAM
p2267
sg12
g9
sa(dp2268
g6
V[standing to leave] You can sit here. I'll see you tomorrow.
p2269
sg8
g9
sg10
VTOBY
p2270
sg12
g9
sa(dp2271
g6
VYeah.
p2272
sg8
g9
sg10
VSAM
p2273
sg12
g9
sa(dp2274
g6
VSam, I'm looking at opposition polling that scares the hell out of me. I'm looking at internal numbers that change by the hour. I'm listening to economists who tell me there's weather...
p2275
sg8
g24
sg10
VTOBY
p2276
sg12
g9
sa(dp2277
g6
VYou left me out.
p2278
sg8
g9
sg10
VSAM
p2279
sg12
g9
sa(dp2280
g6
V[sighing] Yeah.
p2281
sg8
g9
sg10
VTOBY
p2282
sg12
g9
sa(dp2283
g6
VYou think I'm the reason you got beat on the Leadership Breakfast?
p2284
sg8
g28
sg10
VSAM
p2285
sg12
g9
sa(dp2286
g6
VI got creamed, Sam.
p2287
sg8
g9
sg10
VTOBY
p2288
sg12
g9
sa(dp2289
g6
VYou think I'm the reason?
p2290
sg8
g28
sg10
VSAM
p2291
sg12
g9
sa(dp2292
g6
VI don't want that discussion.
p2293
sg8
g28
sg10
VTOBY
p2294
sg12
g9
sa(dp2295
g6
VThen what are you doing here talking to me? Now you want the discussion. You and the president may think they deserved it, but this cynicism of attacking your friends for political protection offends them and it offends me. It offends you, and there's really nothing I can do to make you feel better about that.
p2296
sg8
g28
sg10
VSAM
p2297
sg12
g9
sa(dp2298
g6
VWe can't govern if we don't win.
p2299
sg8
g28
sg10
VTOBY
p2300
sg12
g9
sa(dp2301
g6
VYou should've talked to me about the numbers more.
p2302
sg8
g28
sg10
VSAM
p2303
sg12
g9
sa(dp2304
g6
VAnyway. I have this beer...
p2305
sg8
g28
sg10
VTOBY
p2306
sg12
g24
sa(dp2307
g6
VYeah.
p2308
sg8
g9
sg10
VSAM
p2309
sg12
g9
sa(dp2310
g6
VI was just gonna sit down and drink it.
p2311
sg8
g9
sg10
VTOBY
p2312
sg12
g9
sa(dp2313
g6
VYeah.
p2314
sg8
g9
sg10
VSAM
p2315
sg12
g9
sa(dp2316
g6
VI mean, we don't have to talk or anything.
p2317
sg8
g28
sg10
VTOBY
p2318
sg12
g9
sa(dp2319
g6
VYeah.
p2320
sg8
g9
sg10
VSAM
p2321
sg12
g9
sa(dp2322
g6
VThat was Chairwoman Shelly Lubis I just got off the phone with. Before that was a conference call with Jamie Schwartz of the Environmental Defense Fund, Bryce Davis of the Sierra Club, and three Democratic Congressman from the Subcommittee on Energy and the Environment. The number of different words they had for "manipulative,"
p2323
sg8
g24
sg10
VBARTLET
p2324
sg12
g9
sa(dp2325
g6
VWhat'd you say?
p2326
sg8
g9
sg10
VLEO
p2327
sg12
g9
sa(dp2328
g6
VI said for fifty bucks and a ride to the airport, Gillette could have the job right now.
p2329
sg8
g28
sg10
VBARTLET
p2330
sg12
g9
sa(dp2331
g6
VWhat'd you say?
p2332
sg8
g9
sg10
VLEO
p2333
sg12
g9
sa(dp2334
g6
VI politely reminded him that it's probably not a good idea to threaten the president. [yelling] Nancy! [to Leo] I want to know when you're pushing me towards the missile shield it's not because you want me to look strong on defense.
p2335
sg8
g28
sg10
VBARTLET
p2336
sg12
g9
sa(dp2337
g6
VYes, sir?
p2338
sg8
g28
sg10
VNANCY
p2339
sg12
g28
sa(dp2340
g6
VWould you tell Charlie I'm ready?
p2341
sg8
g9
sg10
VBARTLET
p2342
sg12
g28
sa(dp2343
g6
VYes, sir.
p2344
sg8
g28
sg10
VNANCY
p2345
sg12
g28
sa(dp2346
g6
VI'm not. I'm pushing you to the missile defense shield cause I think it works.
p2347
sg8
g28
sg10
VLEO
p2348
sg12
g9
sa(dp2349
g6
VBased on what?
p2350
sg8
g9
sg10
VBARTLET
p2351
sg12
g9
sa(dp2352
g6
VConfidence. And the understanding that there's been a time in the evolution of everything that works when it didn't work.
p2353
sg8
g28
sg10
VLEO
p2354
sg12
g9
sa(dp2355
g6
VYou know, can I say this? Why don't we just give the sixty billion dollars to North Korea in exchange for not bombing us?
p2356
sg8
g28
sg10
VJOSH
p2357
sg12
g9
sa(dp2358
g6
VIt's almost hard to believe that you're not on the National Security Council.
p2359
sg8
g9
sg10
VBARTLET
p2360
sg12
g9
sa(dp2361
g6
VI know. I feel like they're missing an important voice.
p2362
sg8
g9
sg10
VJOSH
p2363
sg12
g9
sa(dp2364
g6
VGood evening!
p2365
sg8
g9
sg10
VMARBURY
p2366
sg12
g9
sa(dp2367
g6
VJohn! Let me explain why you've been waiting. I have to see people in the order they arrive, and you got beat by Argentina.
p2368
sg8
g28
sg10
VBARTLET
p2369
sg12
g9
sa(dp2370
g6
VOh, uhh... Well, yes.
p2371
sg8
g9
sg10
VMARBURY
p2372
sg12
g9
sa(dp2373
g6
VYou also lost out on preferred seating for the State of the Union.
p2374
sg8
g24
sg10
VBARTLET
p2375
sg12
g9
sa(dp2376
g6
VI'm required to attend the State of the Union?
p2377
sg8
g9
sg10
VMARBURY
p2378
sg12
g9
sa(dp2379
g6
VYes!
p2380
sg8
g9
sg10
VBARTLET
p2381
sg12
g9
sa(dp2382
g6
VThen attend it I shall.
p2383
sg8
g9
sg10
VMARBURY
p2384
sg12
g9
sa(dp2385
g6
VOkay, Tom?
p2386
sg8
g9
sg10
VBARTLET
p2387
sg12
g9
sa(dp2388
g6
VMr. President, it is with pleasure I present His Excellency, Lord John Marbury of Great Britain, and by request of the Secretary of State, ask that you accept his credentials from Her Royal Majesty, Queen Elizabeth II, as Great Britain's Ambassador to the United States.
p2389
sg8
g28
sg10
VTOM
p2390
sg12
g9
sa(dp2391
g6
VWhere are you on the missile shield?
p2392
sg8
g9
sg10
VBARTLET
p2393
sg12
g9
sa(dp2394
g6
VWell, I think it's dangerous, illegal... fiscally irresponsible, technologically unsound, and a threat to all people everywhere.
p2395
sg8
g24
sg10
VMARBURY
p2396
sg12
g9
sa(dp2397
g6
VLeo?
p2398
sg8
g9
sg10
VBARTLET
p2399
sg12
g9
sa(dp2400
g6
VI think the world invented a nuclear weapon. I think the world owes it to itself to see if it can't invent something that would make it irrelevant.
p2401
sg8
g24
sg10
VLEO
p2402
sg12
g9
sa(dp2403
g6
VWell, that's the right sentiment, certainly a credible one from a man who's fought in a war. You think you can make it stop? Well, you can't. We build a shield, and somebody will build a better missile.
p2404
sg8
g28
sg10
VMARBURY
p2405
sg12
g9
sa(dp2406
g6
VWell, it's a discussion for serious men. They say a statesman is a politician who's been dead for fifteen years. I'd like us to be statesmen while we're still alive. Lord Marbury, I accept your letter of credence from Queen Elizabeth, and, by affixing my signature and seal, do hereby declare you to be Ambassador Extraordinary and Plenipotentiary.
p2407
sg8
g28
sg10
VBARTLET
p2408
sg12
g9
sa(dp2409
g6
VWell, thank you, sir.
p2410
sg8
g28
sg10
VMARBURY
p2411
sg12
g28
sa(dp2412
g6
VCongratulations.
p2413
sg8
g9
sg10
VLEO
p2414
sg12
g9
sa(dp2415
g6
VGod Bless America.
p2416
sg8
g9
sg10
VMARBURY
p2417
sg12
g9
sa(dp2418
g6
VGod Save the Queen.
p2419
sg8
g9
sg10
VLEO
p2420
sg12
g9
sa(dp2421
g6
VLet's go.
p2422
sg8
g9
sg10
VBARTLET
p2423
sg12
g9
sas.