(dp0
S'season'
p1
I2
sS'episode'
p2
I17
sS'script'
p3
(lp4
(dp5
S'text'
p6
V(to himself) This isn't happening.
p7
sS'character'
p8
VSAM
p9
sS'maxent_score'
p10
S'neutral'
p11
sa(dp12
g6
V...sauce, or chili sauce...
p13
sg8
VSTACKHOUSE
p14
sg10
g11
sa(dp15
g6
VC.J.!
p16
sg8
VSAM
p17
sg10
g11
sa(dp18
g6
VYeah.
p19
sg8
VC.J.
p20
sg10
g11
sa(dp21
g6
VWhat the hell is he doing?
p22
sg8
VSAM
p23
sg10
g11
sa(dp24
g6
VIt's a recipe for deep fried fantail shrimp.
p25
sg8
VC.J.
p26
sg10
g11
sa(dp27
g6
VYeah. But, what's he still doing up there?
p28
sg8
VSAM
p29
sg10
g11
sa(dp30
g6
VHe's got a recipe book.
p31
sg8
VC.J.
p32
sg10
g11
sa(dp33
g6
VHow long will it go?
p34
sg8
VSAM
p35
sg10
g11
sa(dp36
g6
VI don't know.
p37
sg8
VC.J.
p38
sg10
g11
sa(dp39
g6
VI'm saying how many recipes are there?
p40
sg8
VSAM
p41
sg10
g11
sa(dp42
g6
VAll together?
p43
sg8
VC.J.
p44
sg10
g11
sa(dp45
g6
VYeah.
p46
sg8
VSAM
p47
sg10
g11
sa(dp48
g6
VI can't cook, but I think there are probably like 20 or 30.
p49
sg8
VC.J.
p50
sg10
S'positive'
p51
sa(dp52
g6
VYou're screwing around with me.
p53
sg8
VSAM
p54
sg10
g11
sa(dp55
g6
VOh, yeah.
p56
sg8
VC.J.
p57
sg10
g11
sa(dp58
g6
VI'm about to miss the 7:30 shuttle. If I miss the 8:30, I miss the last train to Sag Harbor.
p59
sg8
VSAM
p60
sg10
g11
sa(dp61
g6
VYou can spend the night in New York.
p62
sg8
VC.J.
p63
sg10
g11
sa(dp64
g6
VI've only got two nights. And you've gotta see this house.
p65
sg8
VSAM
p66
sg10
g11
sa(dp67
g6
VIt's cool?
p68
sg8
VC.J.
p69
sg10
g11
sa(dp70
g6
VIt's Frank Lloyd Wright.
p71
sg8
VSAM
p72
sg10
g11
sa(dp73
g6
VIs it cold in Sag Harbor right now?
p74
sg8
VC.J.
p75
sg10
g11
sa(dp76
g6
VWe wear sweaters. It's a Tommy Hilfiger ad.
p77
sg8
VSAM
p78
sg10
g11
sa(dp79
g6
VIt can't last forever.
p80
sg8
VC.J.
p81
sg10
g11
sa(dp82
g6
VHe's got twenty to thirty recipes he can read.
p83
sg8
VSAM
p84
sg10
g11
sa(dp85
g6
VSam, seriously, there are more recipes than that.
p86
sg8
VC.J.
p87
sg10
g11
sa(dp88
g6
VWho cares? He's blowing my weekend in the Hamptons.
p89
sg8
VSAM
p90
sg10
g11
sa(dp91
g6
VMaybe he doesn't know about the sweaters.
p92
sg8
VC.J.
p93
sg10
g11
sa(dp94
g6
VC.J....
p95
sg8
VJOSH
p96
sg10
g11
sa(dp97
g6
VI know!
p98
sg8
VC.J.
p99
sg10
g11
sa(dp100
g6
VWho gave him the recipe book?
p101
sg8
VJOSH
p102
sg10
g11
sa(dp103
g6
VI really don't think we can blame this on the recipe book. Plus, I now know the secret to cold asparagus chantilly is a quarter cup whipped cream.
p104
sg8
VC.J.
p105
sg10
g11
sa(dp106
g6
VI'm going to Port Saint Lucie, which may not mean anything to you, but happens to be the spring training home of the...
p107
sg8
VJOSH
p108
sg10
g11
sa(dp109
g6
VNew York Jets. Yes, you've told me. Josh, you can watch basketball on T.V.
p110
sg8
VC.J.
p111
sg10
g11
sa(dp112
g6
VYes, except the New York Knicks are a basketball team, the New York Jets are a football team, and Port Saint Lucie is the spring training home of the New York...
p113
sg8
VJOSH
p114
sg10
g11
sa(dp115
g6
V(exasperated) Mets! Yes. Dammit, I'm inadequate.
p116
sg8
VC.J.
p117
sg10
g11
sa(dp118
g6
VA weekend at spring training. Mike Piazza is going to be standing in the batting cage. (strikes a batting pose) He's going to turn and see me. He's going to say, 'Dude.'
p119
sg8
VJOSH
p120
sg10
g11
sa(dp121
g6
VWell, I wouldn't want you to miss a legitimate 'dude' sighting.
p122
sg8
VC.J.
p123
sg10
g11
sa(dp124
g6
V(excited) So I can take off?
p125
sg8
VJOSH
p126
sg10
g11
sa(dp127
g6
VNo.
p128
sg8
VC.J.
p129
sg10
g11
sa(dp130
g6
VGuys, I'm sorry, but you know what? Listen, seriously, you're looking at democracy at work, it's a beautiful thing.
p131
sg8
VC.J.
p132
sg10
g11
sa(dp133
g6
VWell, I wouldn't think it would be that much longer.
p134
sg8
VC.J.
p135
sg10
S'negative'
p136
sa(dp137
g6
VYeah, but how many recipes can there be? 20? 30?
p138
sg8
VC.J.
p139
sg10
g11
sa(dp140
g6
V(in a loud whisper) C.J., it's Friday night. I'm supposed to have dinner with my girlfriend. She's going to kill me.
p141
sg8
VMARK
p142
sg10
g11
sa(dp143
g6
VYeah, but you know what, Mark? This is just the kind of thing that can cleanse the palate of a relationship that's gone stale. Like a fine sorbet.
p144
sg8
VC.J.
p145
sg10
g11
sa(dp146
g6
VWe've been going out three weeks.
p147
sg8
VMARK
p148
sg10
g11
sa(dp149
g6
VAnd she's already bitching about dinner?
p150
sg8
VC.J.
p151
sg10
g11
sa(dp152
g6
VC.J....
p153
sg8
VMARK
p154
sg10
g11
sa(dp155
g6
VLose her.
p156
sg8
VC.J.
p157
sg10
g11
sa(dp158
g6
VListen up! Everybody, this was unforeseen. Obviously, he's got to finish sometime. When he does, there will be a vote immediately. When it's done, the President will make his calls, White House staff will be available for comment, and most important you will all write about it. In the mean time, I say, pizza for everybody! Who's with me?
p159
sg8
VC.J.
p160
sg10
g11
sa(dp161
g6
VExcellent!
p162
sg8
VC.J.
p163
sg10
g11
sa(dp164
g6
VWe're going to need like a massive truckload of pizza. And, I don't know, maybe some Cuervo 1800 if we've got some lying around.
p165
sg8
VC.J.
p166
sg10
g11
sa(dp167
g6
VHow much?
p168
sg8
VCAROL
p169
sg10
g136
sa(dp170
g6
VJust enough for me.
p171
sg8
VC.J.
p172
sg10
g11
sa(dp173
g6
VC.J. Just so you know, I need to be in Telluride first thing in the morning.
p174
sg8
VTOBY
p175
sg10
g11
sa(dp176
g6
VThat's a rough assignment you pulled there.
p177
sg8
VC.J.
p178
sg10
g11
sa(dp179
g6
VNo, I'm saying, I already missed the 6:50 to Denver, but I can catch an 8:40 from National if I change planes in Chicago.
p180
sg8
VTOBY
p181
sg10
g11
sa(dp182
g6
VAnd as you're travel agent, it's important that you update me on that information.
p183
sg8
VC.J.
p184
sg10
g11
sa(dp185
g6
VC.J....
p186
sg8
VTOBY
p187
sg10
g11
sa(dp188
g6
VI'm supposed to be on my way to Napa right now for my Dad's 70th birthday. You hear me complaining?
p189
sg8
VC.J.
p190
sg10
g11
sa(dp191
g6
VYou just did.
p192
sg8
VTOBY
p193
sg10
g11
sa(dp194
g6
VGet out.
p195
sg8
VC.J.
p196
sg10
g11
sa(dp197
g6
VIt's your dad's 70th birthday?
p198
sg8
VTOBY
p199
sg10
g11
sa(dp200
g6
VYeah.
p201
sg8
VC.J.
p202
sg10
g11
sa(dp203
g6
VYou doing anything?
p204
sg8
VTOBY
p205
sg10
g11
sa(dp206
g6
VYeah, we're all getting together in Napa.
p207
sg8
VC.J.
p208
sg10
g11
sa(dp209
g6
V(quietly) I meant right now.
p210
sg8
VTOBY
p211
sg10
g11
sa(dp212
g6
VNo. I'm sitting and waiting. I'm ordering pizza. I'm catching up on e-mails.
p213
sg8
VC.J.
p214
sg10
g11
sa(dp215
g6
VAll right. I got a a basketball game on in my office if you want to come by?
p216
sg8
VTOBY
p217
sg10
g11
sa(dp218
g6
VIs it the Jets and the Mets?
p219
sg8
VC.J.
p220
sg10
g11
sa(dp221
g6
VIt's the Nets and the Hawks. [with disdain] The Jets and the Mets?
p222
sg8
VTOBY
p223
sg10
g11
sa(dp224
g6
VI know the teams. I'm joking when I do this. I'm joking when I do this.
p225
sg8
VC.J.
p226
sg10
g11
sa(dp227
g6
VOkay.
p228
sg8
VTOBY
p229
sg10
g11
sa(dp230
g6
VYou know there's a 9:00 to SFO. You could drive to Napa.
p231
sg8
VTOBY
p232
sg10
g11
sa(dp233
g6
VYeah.
p234
sg8
VC.J.
p235
sg10
g11
sa(dp236
g6
VAll right. I'm in my office.
p237
sg8
VTOBY
p238
sg10
g11
sa(dp239
g6
VIt'll end.
p240
sg8
VC.J.
p241
sg10
g136
sa(dp242
g6
VDo you have any idea how many recipes there are?
p243
sg8
VTOBY
p244
sg10
g11
sa(dp245
g6
VI really don't.
p246
sg8
VC.J.
p247
sg10
g11
sa(dp248
g6
VWe got the Family Wellness Act.
p249
sg8
VJOSH
p250
sg10
g11
sa(dp251
g6
VIt's done?
p252
sg8
VLEO
p253
sg10
g11
sa(dp254
g6
VYes, sir.
p255
sg8
VJOSH
p256
sg10
g51
sa(dp257
g6
VWhat'd we get, what'd we lose?
p258
sg8
VLEO
p259
sg10
g11
sa(dp260
g6
VWe got most of what we wanted in Title VII.
p261
sg8
VJOSH
p262
sg10
g11
sa(dp263
g6
VThat's infant hearing loss?
p264
sg8
VC.J.
p265
sg10
g11
sa(dp266
g6
VYeah, we got a hearing test for every child born in the US.
p267
sg8
VJOSH
p268
sg10
g11
sa(dp269
g6
VWhat about...?
p270
sg8
VSAM
p271
sg10
g11
sa(dp272
g6
VWe did not get mandatory tests for children not born in hospitals.
p273
sg8
VJOSH
p274
sg10
g11
sa(dp275
g6
VWe can live with that.
p276
sg8
VSAM
p277
sg10
g11
sa(dp278
g6
VThe Special Needs Adoption Awareness program?
p279
sg8
VLEO
p280
sg10
g11
sa(dp281
g6
VRight, this is a national campaign to provide information to the public regarding the adoption of special needs children.
p282
sg8
VJOSH
p283
sg10
g11
sa(dp284
g6
VHow'd we get it?
p285
sg8
VLEO
p286
sg10
g11
sa(dp287
g6
VBy agreeing to a provision that would require health care staff to give pregnant women information about adoption on an equal basis with all other courses of action.
p288
sg8
VJOSH
p289
sg10
g11
sa(dp290
g6
VNational Organization for Women's gonna hate that.
p291
sg8
VC.J.
p292
sg10
g11
sa(dp293
g6
VI know.
p294
sg8
VJOSH
p295
sg10
g11
sa(dp296
g6
VWomen seeking abortions should not be required by law to be lectured at.
p297
sg8
VC.J.
p298
sg10
g11
sa(dp299
g6
VYeah, but you're gonna help me out there, right?
p300
sg8
VJOSH
p301
sg10
g11
sa(dp302
g6
VYes, I will. I will once again and betray the sisterhood.
p303
sg8
VC.J.
p304
sg10
g11
sa(dp305
g6
V[pointing to each] Okay, I saw you, you, you, and you roll your eyes.
p306
sg8
VC.J.
p307
sg10
g11
sa(dp308
g6
VYou weren't even looking at me.
p309
sg8
VLARRY
p310
sg10
g11
sa(dp311
g6
VI felt you.
p312
sg8
VC.J.
p313
sg10
g51
sa(dp314
g6
V[standing with others and clapping] We're done! Josh Lyman, everybody.
p315
sg8
VLEO
p316
sg10
g11
sa(dp317
g6
VNice job.
p318
sg8
VSAM
p319
sg10
g11
sa(dp320
g6
VI know, I'm thinking seriously about turning pro.
p321
sg8
VJOSH
p322
sg10
g11
sa(dp323
g6
VYeah?
p324
sg8
VSAM
p325
sg10
g11
sa(dp326
g6
VYeah, I got agents talking to me, telling me I could go high in the second round, maybe low in the first if I have a good postseason.
p327
sg8
VJOSH
p328
sg10
g11
sa(dp329
g6
VYou don't want to stay in school, get your education?
p330
sg8
VSAM
p331
sg10
g11
sa(dp332
g6
VNah, I'm white, nobody's gonna mind.
p333
sg8
VJOSH
p334
sg10
g11
sa(dp335
g6
VJosh, this looks good. I mean, he stuck sunsets on a bunch of small-ticket items, but...
p336
sg8
VLEO
p337
sg10
g11
sa(dp338
g6
VBut that's the way it's gonna happen.
p339
sg8
VJOSH
p340
sg10
g11
sa(dp341
g6
VYou just spent six billion dollars on health care. How do you feel?
p342
sg8
VLEO
p343
sg10
g11
sa(dp344
g6
VI'd feel better if it meant just once I could go to a doctor without filling out something on a clipboard.
p345
sg8
VJOSH
p346
sg10
g11
sa(dp347
g6
VAll right, what else?
p348
sg8
VLEO
p349
sg10
g11
sa(dp350
g6
VPhilip Sluman, who's the chairman of the Petroleum Producers of America, testified yesterday to the FTC that "the Bartlet administration's" - blah, blah - "relentless pursuit of emissions standards in the form of additives like MTBE is a big reason we've seen price hikes in some of the country."
p351
sg8
VTOBY
p352
sg10
g11
sa(dp353
g6
VThe Energy Secretary's gotta respond.
p354
sg8
VLEO
p355
sg10
g11
sa(dp356
g6
VThe Energy Secretary's gonnaa respond and I'd like to mention that to the Vice President.
p357
sg8
VTOBY
p358
sg10
g11
sa(dp359
g6
VYou want me to do it?
p360
sg8
VLEO
p361
sg10
g11
sa(dp362
g6
VI got it.
p363
sg8
VTOBY
p364
sg10
g51
sa(dp365
g6
VHe's gonna be pretty unhappy.
p366
sg8
VLEO
p367
sg10
g11
sa(dp368
g6
VYep.
p369
sg8
VTOBY
p370
sg10
g11
sa(dp371
g6
VAnything else?
p372
sg8
VLEO
p373
sg10
g11
sa(dp374
g6
VNo...
p375
sg8
VTOBY
p376
sg10
g11
sa(dp377
g6
VNope.
p378
sg8
VC.J.
p379
sg10
g11
sa(dp380
g6
VNo sir, thank you.
p381
sg8
VJOSH
p382
sg10
g51
sa(dp383
g6
VCharlie.
p384
sg8
VC.J.
p385
sg10
g11
sa(dp386
g6
VListen...
p387
sg8
VCHARLIE
p388
sg10
g11
sa(dp389
g6
VMay I call you Chip?
p390
sg8
VC.J.
p391
sg10
g51
sa(dp392
g6
VNo...
p393
sg8
VCHARLIE
p394
sg10
g11
sa(dp395
g6
VChipper?
p396
sg8
VC.J.
p397
sg10
g11
sa(dp398
g6
VNo...
p399
sg8
VCHARLIE
p400
sg10
g11
sa(dp401
g6
VGilligan?
p402
sg8
VC.J.
p403
sg10
g11
sa(dp404
g6
VListen...
p405
sg8
VCHARLIE
p406
sg10
g11
sa(dp407
g6
VYes?
p408
sg8
VC.J.
p409
sg10
g51
sa(dp410
g6
VHassan Ali's coming here at the end of the week.
p411
sg8
VCHARLIE
p412
sg10
g11
sa(dp413
g6
VHe's got 38 wives.
p414
sg8
VC.J.
p415
sg10
g11
sa(dp416
g6
VYeah.
p417
sg8
VCHARLIE
p418
sg10
g11
sa(dp419
g6
VImagine being the girl he dated who he didn't marry.
p420
sg8
VC.J.
p421
sg10
g11
sa(dp422
g6
VC.J.?
p423
sg8
VCHARLIE
p424
sg10
g11
sa(dp425
g6
VHassan Ali is coming?
p426
sg8
VC.J.
p427
sg10
g11
sa(dp428
g6
VYeah, and on the President's trip to Cairo, Ali gave him a gift, a ceramic statue.
p429
sg8
VCHARLIE
p430
sg10
g11
sa(dp431
g6
VOkay.
p432
sg8
VC.J.
p433
sg10
g11
sa(dp434
g6
VThe State Department told the Office of Protocol it is important the gift be displayed when Ali visits.
p435
sg8
VCHARLIE
p436
sg10
g11
sa(dp437
g6
VDisplay it.
p438
sg8
VC.J.
p439
sg10
g11
sa(dp440
g6
VWell, the Office of Protocol wasn't able to find it.
p441
sg8
VCHARLIE
p442
sg10
g11
sa(dp443
g6
VThey should talk to the gift officer.
p444
sg8
VC.J.
p445
sg10
g11
sa(dp446
g6
VThey did.
p447
sg8
VCHARLIE
p448
sg10
g11
sa(dp449
g6
VAnd?
p450
sg8
VC.J.
p451
sg10
g11
sa(dp452
g6
VThey say you have it.
p453
sg8
VCHARLIE
p454
sg10
g11
sa(dp455
g6
VI'm sorry?
p456
sg8
VC.J.
p457
sg10
g11
sa(dp458
g6
VSherry Halpurn, the gift officer on the trip, says she handed it to you in Cairo.
p459
sg8
VCHARLIE
p460
sg10
g11
sa(dp461
g6
VDid you say a small, ceramic statue?
p462
sg8
VC.J.
p463
sg10
g51
sa(dp464
g6
VYeah, of a cat.
p465
sg8
VCHARLIE
p466
sg10
g11
sa(dp467
g6
VOkay... [sighs] okay... okay.
p468
sg8
VC.J.
p469
sg10
g11
sa(dp470
g6
VC.J.?
p471
sg8
VCHARLIE
p472
sg10
g11
sa(dp473
g6
VYeah?
p474
sg8
VC.J.
p475
sg10
g11
sa(dp476
g6
VYou know anything about it?
p477
sg8
VCHARLIE
p478
sg10
g11
sa(dp479
g6
VWell, I have to think about it, Charlie. It was a year ago, and it's not like I have instant recall of every ceramic cat statue I've ever been handed in Cairo.
p480
sg8
VC.J.
p481
sg10
g11
sa(dp482
g6
VYeah, should I tell Protocol that...?
p483
sg8
VCHARLIE
p484
sg10
g11
sa(dp485
g6
VTell Protocol I'm searching my recollection.
p486
sg8
VC.J.
p487
sg10
g11
sa(dp488
g6
VProtocol's recollection seemed pretty good.
p489
sg8
VCHARLIE
p490
sg10
g11
sa(dp491
g6
VLeave me now.
p492
sg8
VC.J.
p493
sg10
g11
sa(dp494
g6
VSure.
p495
sg8
VCHARLIE
p496
sg10
g11
sa(dp497
g6
V[spots Toby in the hallway] Toby.
p498
sg8
VC.J.
p499
sg10
g11
sa(dp500
g6
VAbout to see Hoynes, talk to me later.
p501
sg8
VTOBY
p502
sg10
g11
sa(dp503
g6
VOkay, Carol?
p504
sg8
VC.J.
p505
sg10
g11
sa(dp506
g6
VWhat do you need?
p507
sg8
VCAROL
p508
sg10
g11
sa(dp509
g6
VSome information, possibly a disguise, and a fast getaway car. Come inside.
p510
sg8
VC.J.
p511
sg10
g11
sa(dp512
g6
VTell me something, how did they not anticipate the flooding?
p513
sg8
VHOYNES
p514
sg10
g11
sa(dp515
g6
VThere was an unexpectedly high snowmelt.
p516
sg8
VREPORTER
p517
sg10
g11
sa(dp518
g6
VThe snow fell three months ago. Did they not think it was going to melt this year?
p519
sg8
VHOYNES
p520
sg10
g11
sa(dp521
g6
VThe temperatures were unseasonably warms last month.
p522
sg8
VWOMAN
p523
sg10
g11
sa(dp524
g6
VWell it could have been something due to the sun, though, right?
p525
sg8
VHOYNES
p526
sg10
g11
sa(dp527
g6
VWe're done. [to man] Yeah?
p528
sg8
VHOYNES
p529
sg10
g11
sa(dp530
g6
V25 million acre-feet of water, Candy, that's eight trillion gallons.
p531
sg8
VHOYNES
p532
sg10
g11
sa(dp533
g6
VYes, sir. [exits with men]
p534
sg8
VCANDY
p535
sg10
g51
sa(dp536
g6
V[as Toby enters] Hey, Toby.
p537
sg8
VHOYNES
p538
sg10
g11
sa(dp539
g6
VGood morning, Mr. Vice President.
p540
sg8
VTOBY
p541
sg10
g11
sa(dp542
g6
VThe California Aqueduct is twice the length of Pennsylvania. Did you know that?
p543
sg8
VHOYNES
p544
sg10
g11
sa(dp545
g6
VI knew it was pretty big.
p546
sg8
VTOBY
p547
sg10
g11
sa(dp548
g6
VWhat do you need?
p549
sg8
VHOYNES
p550
sg10
g11
sa(dp551
g6
V[as both sit] Philip Sluman, testifying yesterday in front of the FTC, charged that it was the White House's pursuit of tighter emissions standards that has caused the rise in prices...
p552
sg8
VTOBY
p553
sg10
g11
sa(dp554
g6
VPhil Sluman had a good point.
p555
sg8
VHOYNES
p556
sg10
g11
sa(dp557
g6
VMr. Vice President, I don't want to go round and round with you on Sluman.
p558
sg8
VTOBY
p559
sg10
g11
sa(dp560
g6
VOkay.
p561
sg8
VHOYNES
p562
sg10
g11
sa(dp563
g6
VHe had no point.
p564
sg8
VTOBY
p565
sg10
g11
sa(dp566
g6
VPolicy forces them to use expensive additives whose benefits are questionable.
p567
sg8
VHOYNES
p568
sg10
g11
sa(dp569
g6
VIt's price gouging...
p570
sg8
VTOBY
p571
sg10
g11
sa(dp572
g6
VIt costs marginally more to refine the fuel with the additives and the cost is being passed on to the consumer at an outrageous markup.
p573
sg8
VTOBY
p574
sg10
g11
sa(dp575
g6
VToby, if a refinery shuts down, if there's a fire, which isn't, like, out of the question when you're dealing with petroleum, production comes to a halt, gas becomes scarce, prices go up, then they come back down.
p576
sg8
VHOYNES
p577
sg10
g11
sa(dp578
g6
VWell, it's good to know the companies can make it through the lean times.
p579
sg8
VTOBY
p580
sg10
g11
sa(dp581
g6
VYeah.
p582
sg8
VHOYNES
p583
sg10
g11
sa(dp584
g6
VAnyway, sir, tomorrow night, Bill Trotter's gonna be delivering a speech to the Detroit Economic Counsel on Energy Efficiency in the 21st century, and we're gonna rewrite the draft to include a fairly strong rebuttal to Phillip Sluman's remarks.
p585
sg8
VTOBY
p586
sg10
g11
sa(dp587
g6
V[clears throat] Shouldn't have Bill Trotter do it.
p588
sg8
VHOYNES
p589
sg10
g136
sa(dp590
g6
VWhy?
p591
sg8
VTOBY
p592
sg10
g11
sa(dp593
g6
V'Cause his rants against the oil companies have become familiar and the press has stopped writing about them.
p594
sg8
VHOYNES
p595
sg10
g11
sa(dp596
g6
VStill...
p597
sg8
VTOBY
p598
sg10
g11
sa(dp599
g6
VIt's also pretty dicey political terrain for the Energy Secretary.
p600
sg8
VHOYNES
p601
sg10
g11
sa(dp602
g6
VWho would you send?
p603
sg8
VTOBY
p604
sg10
g51
sa(dp605
g6
V[standing] To punch back? Me.
p606
sg8
VHOYNES
p607
sg10
g51
sa(dp608
g6
VReally?
p609
sg8
VTOBY
p610
sg10
g11
sa(dp611
g6
VI'm having a press conference tomorrow afternoon to announce an advisory group for the antitrust policy. I'll take questions at the end, I'll open it up for anything, and they will ask me about Sluman and oil.
p612
sg8
VHOYNES
p613
sg10
g11
sa(dp614
g6
VMr. Vice President...
p615
sg8
VTOBY
p616
sg10
g11
sa(dp617
g6
VToby, if you think I'll be too soft on him, stand in the back of the room... if you don't like what I say, call Bill Trotter and say, "You're on for tomorrow night."
p618
sg8
VHOYNES
p619
sg10
g11
sa(dp620
g6
V[standing] Would you mind if I prepared some notes for you?
p621
sg8
VTOBY
p622
sg10
g11
sa(dp623
g6
V[chuckling lightly] Oh, not at all... Would you mind if I shoved them up your ass?
p624
sg8
VHOYNES
p625
sg10
g11
sa(dp626
g6
V[laughing] No, sir, well, thank you, sir, we appreciate it.
p627
sg8
VTOBY
p628
sg10
g11
sa(dp629
g6
VI heard you got the Family Wellness Act.
p630
sg8
VHOYNES
p631
sg10
g11
sa(dp632
g6
VWe scheduled the vote for Friday at noon.
p633
sg8
VTOBY
p634
sg10
g11
sa(dp635
g6
VWell, I'm sure you'll have the bill by 12:05.
p636
sg8
VHOYNES
p637
sg10
g11
sa(dp638
g6
V[still typing] Well, somebody forgot to tell Stackhouse, Dad, cause he just went into hour number eight.
p639
sg8
VC.J.
p640
sg10
g11
sa(dp641
g6
VAfternoon, Senator.
p642
sg8
VJOSH
p643
sg10
g11
sa(dp644
g6
VGood afternoon. [coughs]
p645
sg8
VSTACKHOUSE
p646
sg10
g11
sa(dp647
g6
VSounds like a bad cold.
p648
sg8
VJOSH
p649
sg10
g11
sa(dp650
g6
VIt's fine.
p651
sg8
VSTACKHOUSE
p652
sg10
g11
sa(dp653
g6
VYou taking anything?
p654
sg8
VJOSH
p655
sg10
g11
sa(dp656
g6
VI don't want to talk about my cold. I want forty seven million dollars to fight autism.
p657
sg8
VSTACKHOUSE
p658
sg10
g11
sa(dp659
g6
VSir...
p660
sg8
VJOSH
p661
sg10
g11
sa(dp662
g6
VFive "Centers of Excellence" in universities around the country to help scientists coordinate their research, three special units for autism epidemeilogy at the CDC, and a centralized facility for gene and brain banking. That's 43 million.
p663
sg8
VSTACKHOUSE
p664
sg10
g11
sa(dp665
g6
VSenator...
p666
sg8
VJOSH
p667
sg10
g11
sa(dp668
g6
VUh, the other four million is for a federal program to educate doctors in order to reduce the staggeringly high percentage of cases in which autism is misdiagnosed.
p669
sg8
VSTACKHOUSE
p670
sg10
g11
sa(dp671
g6
VWe can't do it.
p672
sg8
VJOSH
p673
sg10
g11
sa(dp674
g6
VOf course you can. You simply pick up the phone, you call the Conference Chairman, and...
p675
sg8
VSTACKHOUSE
p676
sg10
g11
sa(dp677
g6
VThe bill started out at two billion. It's six billion now.
p678
sg8
VJOSH
p679
sg10
g11
sa(dp680
g6
VThat's right. So another forty seven million hurts you how?
p681
sg8
VSTACKHOUSE
p682
sg10
g11
sa(dp683
g6
VSir...
p684
sg8
VJOSH
p685
sg10
g11
sa(dp686
g6
VIt's eight tenths of one percent of a bill aimed at the health issues affecting children, which is roughly the same as the percentage of children affected by autism.
p687
sg8
VSTACKHOUSE
p688
sg10
g11
sa(dp689
g6
VI don't need to tell you that in these negotiations...
p690
sg8
VJOSH
p691
sg10
g11
sa(dp692
g6
VIn these negotiations about a bill aimed at health issues affecting children, we've allocated funds for Alzheimer's, glaucoma, and erectile dysfunction.
p693
sg8
VSTACKHOUSE
p694
sg10
g11
sa(dp695
g6
VSir...
p696
sg8
VJOSH
p697
sg10
g11
sa(dp698
g6
VYou know a lot of two year olds afflicted with that horrific condition, hmm?
p699
sg8
VSTACKHOUSE
p700
sg10
g11
sa(dp701
g6
V[smiling] There's no doubt that that's a good point, but in order for us to ensure that more important things were in the bill...
p702
sg8
VJOSH
p703
sg10
g11
sa(dp704
g6
VSo there was a determination made.
p705
sg8
VSTACKHOUSE
p706
sg10
g11
sa(dp707
g6
VI'm sorry?
p708
sg8
VJOSH
p709
sg10
g11
sa(dp710
g6
VA determination was made, in order of priorities.
p711
sg8
VSTACKHOUSE
p712
sg10
g11
sa(dp713
g6
VSenator, there's going to be a vote. The bill's closed.
p714
sg8
VJOSH
p715
sg10
g11
sa(dp716
g6
VOpen it back up again.
p717
sg8
VSTACKHOUSE
p718
sg10
g136
sa(dp719
g6
VTo do that would mean to postpone the vote, and everyone's breaking for the recess, and...
p720
sg8
VJOSH
p721
sg10
g11
sa(dp722
g6
VAnd you want the story before everyone goes home.
p723
sg8
VSTACKHOUSE
p724
sg10
g11
sa(dp725
g6
VYeah.
p726
sg8
VJOSH
p727
sg10
g11
sa(dp728
g6
VOkay. [gets up and walks to the door]
p729
sg8
VSTACKHOUSE
p730
sg10
g11
sa(dp731
g6
VSir, the next time around, and there will be a next time around...
p732
sg8
VJOSH
p733
sg10
g11
sa(dp734
g6
VThat's all. I'm done with you now.
p735
sg8
VSTACKHOUSE
p736
sg10
g11
sa(dp737
g6
VAlso in the news at this hour, parliamentary procedure in all of its glory, as a Senate filibuster watches day turn to night, and possibly back into day again. Seventy eighty year old Minnesota Senator Howard Stackhouse stands alone tonight in the well of the Senate chamber as his colleagues somewhat impatiently wait for a vote that was scheduled to take place more than nine hours ago. Stackhouse, a five term senator who once...
p738
sg8
VNEWSCASTER
p739
sg10
g11
sa(dp740
g6
VHey, Zach.
p741
sg8
VDONNA
p742
sg10
g11
sa(dp743
g6
VYeah?
p744
sg8
VZACH
p745
sg10
g11
sa(dp746
g6
VYou guys record the news feeds coming in, right?
p747
sg8
VDONNA
p748
sg10
g11
sa(dp749
g6
VYeah.
p750
sg8
VZACH
p751
sg10
g11
sa(dp752
g6
VCould I get a dub of the B-roll they're showing on the Stackhouse story? It's three or four seconds, it's a campaign stop, and his grandchildren were with him. The voiceover's talking about his seven grandchildren.
p753
sg8
VDONNA
p754
sg10
g11
sa(dp755
g6
VSure. What's the problem?
p756
sg8
VZACH
p757
sg10
g11
sa(dp758
g6
VIt's nothing.
p759
sg8
VDONNA
p760
sg10
g11
sa(dp761
g6
VI'll have it sent up in a few minutes.
p762
sg8
VZACH
p763
sg10
g11
sa(dp764
g6
VThanks.
p765
sg8
VDONNA
p766
sg10
g11
sa(dp767
g6
VDonna.
p768
sg8
VJOSH
p769
sg10
g11
sa(dp770
g6
VYou're booked tomorrow morning, 8:55, United, direct to West Palm Beach.
p771
sg8
VDONNA
p772
sg10
g11
sa(dp773
g6
VWhich gets in at?
p774
sg8
VJOSH
p775
sg10
g11
sa(dp776
g6
V12:58.
p777
sg8
VDONNA
p778
sg10
g11
sa(dp779
g6
VIt's still a seventy mile drive to Port St. Lucie. I'll miss the game.
p780
sg8
VJOSH
p781
sg10
g11
sa(dp782
g6
VI thought they weren't playing yet.
p783
sg8
VDONNA
p784
sg10
g11
sa(dp785
g6
VIt's an exhibition game.
p786
sg8
VJOSH
p787
sg10
g11
sa(dp788
g6
VYou're flying to Florida to see the Mets play another team in a game that doesn't count?
p789
sg8
VDONNA
p790
sg10
g11
sa(dp791
g6
VActually, it's an intrasquad game.
p792
sg8
VJOSH
p793
sg10
g11
sa(dp794
g6
VSo you're flying to Florida to see the Mets play each other in a game that doesn't count.
p795
sg8
VDONNA
p796
sg10
g11
sa(dp797
g6
VYeah.
p798
sg8
VJOSH
p799
sg10
g11
sa(dp800
g6
VOkay. Uh... there's a Continental flight out of Dulles at seven A.M., you change planes in Newark.
p801
sg8
VDONNA
p802
sg10
g11
sa(dp803
g6
VI gotta fly to New Jersey to get to Palm Beach?
p804
sg8
VJOSH
p805
sg10
g11
sa(dp806
g6
VLook...
p807
sg8
VDONNA
p808
sg10
g11
sa(dp809
g6
VWhatever. Just make sure that tomorrow morning...
p810
sg8
VJOSH
p811
sg10
g11
sa(dp812
g6
VMike Piazza calls you "dude."
p813
sg8
VDONNA
p814
sg10
g11
sa(dp815
g6
VYes.
p816
sg8
VJOSH
p817
sg10
g51
sa(dp818
g6
VWhat are you doing?
p819
sg8
VDONNA
p820
sg10
g11
sa(dp821
g6
VI'm writing an e-mail to my mother.
p822
sg8
VJOSH
p823
sg10
g11
sa(dp824
g6
VWhy?
p825
sg8
VDONNA
p826
sg10
g11
sa(dp827
g6
VTo thank her for a pair of shoes she sent me.
p828
sg8
VJOSH
p829
sg10
g11
sa(dp830
g6
VYour mother sent you shoes?
p831
sg8
VDONNA
p832
sg10
g51
sa(dp833
g6
VDonna, please try and keep it...
p834
sg8
VJOSH
p835
sg10
g11
sa(dp836
g6
VThat is the sweetest thing I...
p837
sg8
VDONNA
p838
sg10
g11
sa(dp839
g6
VDonna?
p840
sg8
VJOSH
p841
sg10
g11
sa(dp842
g6
VOkay.
p843
sg8
VDONNA
p844
sg10
g11
sa(dp845
g6
VSir, I'm sure you're aware that Phillip Sluman testified before the FTC that the Bartlet administration's relentless pursuit of stricter emissions standards in the form of additives is why we're seeing price spikes.
p846
sg8
VSTEVE
p847
sg10
g11
sa(dp848
g6
VYeah.
p849
sg8
VHOYNES
p850
sg10
g11
sa(dp851
g6
VWould you comment on that?
p852
sg8
VSTEVE
p853
sg10
g11
sa(dp854
g6
VYeah. Our relentless pursuit of cleaner air standards has resulted in lower asthma rates and the cleanest air in California in 50 years. It costs marginally more to refine fuel with additives, but the costs are being passed on to consumers at an outrageous price.
p855
sg8
VHOYNES
p856
sg10
g11
sa(dp857
g6
VMr. Vice President.
p858
sg8
VCHRIS
p859
sg10
g11
sa(dp860
g6
VUh, yeah, Chris.
p861
sg8
VHOYNES
p862
sg10
g11
sa(dp863
g6
VAre you accusing members of the PPA of price gouging?
p864
sg8
VCHRIS
p865
sg10
g11
sa(dp866
g6
VWell, some of these CEOs are old friends of mine. But, uh, I can tell you they do know how to turn a profit. Now, they'll claim that prices will go back down after production increases...
p867
sg8
VHOYNES
p868
sg10
g11
sa(dp869
g6
V...have created a new bottom line...
p870
sg8
VHOYNES
p871
sg10
g11
sa(dp872
g6
VLeo.
p873
sg8
VBARTLET
p874
sg10
g11
sa(dp875
g6
VGood evening, sir.
p876
sg8
VLEO
p877
sg10
g11
sa(dp878
g6
VYou busy?
p879
sg8
VBARTLET
p880
sg10
g11
sa(dp881
g6
VWhat do you need?
p882
sg8
VLEO
p883
sg10
g11
sa(dp884
g6
VCome have dinner with me.
p885
sg8
VBARTLET
p886
sg10
g11
sa(dp887
g6
VWhy?
p888
sg8
VLEO
p889
sg10
g11
sa(dp890
g6
VPierre Boileau is cooking tonight. You want to have dinner?
p891
sg8
VBARTLET
p892
sg10
g11
sa(dp893
g6
VWhat's he serving?
p894
sg8
VLEO
p895
sg10
g11
sa(dp896
g6
VThat's your answer?
p897
sg8
VBARTLET
p898
sg10
g11
sa(dp899
g6
VI'm just asking.
p900
sg8
VLEO
p901
sg10
g11
sa(dp902
g6
VWell, I can tell you that the man specializes in a reinterpretation of classic Provancale cuisine. Cassoulet, duck with green olives...
p903
sg8
VBARTLET
p904
sg10
g11
sa(dp905
g6
VYeah...
p906
sg8
VLEO
p907
sg10
g11
sa(dp908
g6
V...saffron chicken...
p909
sg8
VBARTLET
p910
sg10
g11
sa(dp911
g6
VI haven't had a good saffron chicken in quite some time.
p912
sg8
VLEO
p913
sg10
g11
sa(dp914
g6
VWell, don't you think you deserve one?
p915
sg8
VBARTLET
p916
sg10
g51
sa(dp917
g6
VYes.
p918
sg8
VLEO
p919
sg10
g51
sa(dp920
g6
VHis specialty is his dessert: Tomate de Saltambique.
p921
sg8
VBARTLET
p922
sg10
g11
sa(dp923
g6
VThat's gonna be a big, seedless beefsteak tomato stweed for three hours in creme de caramel and stuffed with...
p924
sg8
VLEO
p925
sg10
g11
sa(dp926
g6
VPassion fruit, kiwi and hazelnuts, and...
p927
sg8
VBARTLET
p928
sg10
g11
sa(dp929
g6
V...served on a pomegranate reduction, yes.
p930
sg8
VLEO
p931
sg10
g11
sa(dp932
g6
VLet's go. Leave the cell phone.
p933
sg8
VBARTLET
p934
sg10
g11
sa(dp935
g6
VI'm taking my phone.
p936
sg8
VLEO
p937
sg10
g11
sa(dp938
g6
VWe're not leaving the building. People can find you.
p939
sg8
VBARTLET
p940
sg10
g51
sa(dp941
g6
VLet's go.
p942
sg8
VLEO
p943
sg10
g11
sa(dp944
g6
VWhat's he on to now?
p945
sg8
VBARTLET
p946
sg10
g11
sa(dp947
g6
VHe's reading the rules of cards.
p948
sg8
VLEO
p949
sg10
g11
sa(dp950
g6
VOh, brother.
p951
sg8
VBARTLET
p952
sg10
g11
sa(dp953
g6
VDon't worry about it.
p954
sg8
VLEO
p955
sg10
g11
sa(dp956
g6
VCould Howard Stackhouse possibly be a bigger horse's patoot?
p957
sg8
VBARTLET
p958
sg10
g11
sa(dp959
g6
VI don't know what part of a horse that is, exactly, but I've always thought he was a decent guy.
p960
sg8
VLEO
p961
sg10
g11
sa(dp962
g6
VHe's a curmudgeon: a grouchy old crank.
p963
sg8
VBARTLET
p964
sg10
g11
sa(dp965
g6
VSo are we.
p966
sg8
VLEO
p967
sg10
g11
sa(dp968
g6
VYou are. I am full of mirth.
p969
sg8
VBARTLET
p970
sg10
g11
sa(dp971
g6
VOkay.
p972
sg8
VLEO
p973
sg10
g11
sa(dp974
g6
VHe was all over me the first year. He called me, "Bartlet the Inert."
p975
sg8
VBARTLET
p976
sg10
g11
sa(dp977
g6
VThat was pretty funny.
p978
sg8
VLEO
p979
sg10
g11
sa(dp980
g6
VI'm a reformer. I'm the most liberal President he's ever served under. His hero, Hubert Humphrey, once, you know...
p981
sg8
VBARTLET
p982
sg10
g11
sa(dp983
g6
VShook your hand.
p984
sg8
VLEO
p985
sg10
g11
sa(dp986
g6
VThat's right. [silence] I feel bad.
p987
sg8
VBARTLET
p988
sg10
g11
sa(dp989
g6
VWhy?
p990
sg8
VLEO
p991
sg10
g11
sa(dp992
g6
VHis wife died a few years ago. I didn't go to the funeral.
p993
sg8
VBARTLET
p994
sg10
g11
sa(dp995
g6
VWhy?
p996
sg8
VLEO
p997
sg10
g11
sa(dp998
g6
VI was kind of busy running for President, Leo.
p999
sg8
VBARTLET
p1000
sg10
g11
sa(dp1001
g6
VThat's right.
p1002
sg8
VLEO
p1003
sg10
g11
sa(dp1004
g6
VTomate de Saltambique, my friend.
p1005
sg8
VBARTLET
p1006
sg10
g11
sa(dp1007
g6
VYes, indeed.
p1008
sg8
VLEO
p1009
sg10
g11
sa(dp1010
g6
VGood evening.
p1011
sg8
VBUTLER
p1012
sg10
g11
sa(dp1013
g6
VHi. Hang on. [to Leo] They thought I was going to be eating with Abbey, so...
p1014
sg8
VBARTLET
p1015
sg10
g11
sa(dp1016
g6
VHmm...
p1017
sg8
VLEO
p1018
sg10
g11
sa(dp1019
g6
VWe'll just, you know, pretend there's no candlelight.
p1020
sg8
VBARTLET
p1021
sg10
g11
sa(dp1022
g6
VAnd that we're not paranoid homophobes in any way.
p1023
sg8
VLEO
p1024
sg10
g11
sa(dp1025
g6
VYeah.
p1026
sg8
VBARTLET
p1027
sg10
g11
sa(dp1028
g6
VYeah.
p1029
sg8
VLEO
p1030
sg10
g11
sa(dp1031
g6
VLeo, you have a deputy who's, frankly, a lot smarter than you are. Whatever it is, let him handle it. Who are you talking to?
p1032
sg8
VBARTLET
p1033
sg10
g11
sa(dp1034
g6
VMy deputy. [into phone] Yeah.
p1035
sg8
VLEO
p1036
sg10
g11
sa(dp1037
g6
VWhat did he say?
p1038
sg8
VBARTLET
p1039
sg10
g11
sa(dp1040
g6
VHe says there's no end in sight.
p1041
sg8
VLEO
p1042
sg10
g11
sa(dp1043
g6
VOkay. Let's eat.
p1044
sg8
VBARTLET
p1045
sg10
g11
sa(dp1046
g6
VC.J.?
p1047
sg8
VDONNA
p1048
sg10
g11
sa(dp1049
g6
VYeah.
p1050
sg8
VC.J.
p1051
sg10
g11
sa(dp1052
g6
VListen, I was looking at the B-roll they're showing on the Stackhouse story and there's something that struck me as odd.
p1053
sg8
VDONNA
p1054
sg10
g11
sa(dp1055
g6
VWhat?
p1056
sg8
VC.J.
p1057
sg10
g11
sa(dp1058
g6
VThey show two different events during his last campaign and his grandchildren are next to him on stage. He's got seven of them.
p1059
sg8
VDONNA
p1060
sg10
g11
sa(dp1061
g6
VWhat's the problem?
p1062
sg8
VC.J.
p1063
sg10
g11
sa(dp1064
g6
VThere are only six in the shot. I don't think this is what we think it is. I don't think he's just being ornery. I think he's got a grandson who's autistic.
p1065
sg8
VDONNA
p1066
sg10
g11
sa(dp1067
g6
VOh, holy hell. Tell Josh. Find out for sure.
p1068
sg8
VC.J.
p1069
sg10
g11
sa(dp1070
g6
VYeah.
p1071
sg8
VDONNA
p1072
sg10
g11
sa(dp1073
g6
VMore brandy, sir?
p1074
sg8
VSTEWARD
p1075
sg10
g11
sa(dp1076
g6
VNah, I'm fine.
p1077
sg8
VBARTLET
p1078
sg10
g11
sa(dp1079
g6
VI hope the First Lady's not feeling ill this evening.
p1080
sg8
VSTEWARD
p1081
sg10
g11
sa(dp1082
g6
VNo, she's up at the Manchester house.
p1083
sg8
VBARTLET
p1084
sg10
g11
sa(dp1085
g6
VVery good, sir.
p1086
sg8
VSTEWARD
p1087
sg10
g11
sa(dp1088
g6
VNo, it really sucks, but thanks.
p1089
sg8
VBARTLET
p1090
sg10
g11
sa(dp1091
g6
VYes sir. [walks off]
p1092
sg8
VSTEWARD
p1093
sg10
g51
sa(dp1094
g6
VDid you hear that? He said, "Very good, sir". Where do they learn that?
p1095
sg8
VBARTLET
p1096
sg10
g11
sa(dp1097
g6
VYeah. [to Bartlet] I'm sorry?
p1098
sg8
VLEO
p1099
sg10
g11
sa(dp1100
g6
VNothing.
p1101
sg8
VBARTLET
p1102
sg10
g11
sa(dp1103
g6
V[into phone] I'm sure that was moved for a reason. We're prepping for a G-8 with Barney and we're going to Tel Aviv.
p1104
sg8
VLEO
p1105
sg10
g11
sa(dp1106
g6
VI just feel like we don't talk anymore.
p1107
sg8
VBARTLET
p1108
sg10
g11
sa(dp1109
g6
V[into phone] Tel Aviv's the week after. [to Bartlet] What?
p1110
sg8
VLEO
p1111
sg10
g11
sa(dp1112
g6
VSee you're not even listing.
p1113
sg8
VBARTLET
p1114
sg10
g11
sa(dp1115
g6
V[into phone] Ben, let me call you back. What's your problem?
p1116
sg8
VLEO
p1117
sg10
g11
sa(dp1118
g6
VI'm just saying we work all day, and then the day's over, and we go out to dinner and you're still working, and you know, I'm sitting here. No time to talk.
p1119
sg8
VBARTLET
p1120
sg10
g11
sa(dp1121
g6
VYou know, conversations like this, are the reason I got divorced.
p1122
sg8
VLEO
p1123
sg10
g11
sa(dp1124
g6
VNo, it's not. (clears his throat)
p1125
sg8
VBARTLET
p1126
sg10
g11
sa(dp1127
g6
V(whispering) Sir... what's wrong?
p1128
sg8
VLEO
p1129
sg10
g11
sa(dp1130
g6
VI made...
p1131
sg8
VBARTLET
p1132
sg10
g11
sa(dp1133
g6
VUh... I'm fine, Billy.
p1134
sg8
VLEO
p1135
sg10
g11
sa(dp1136
g6
VI made a deal with Abbey... 'cause of my thing.
p1137
sg8
VBARTLET
p1138
sg10
g11
sa(dp1139
g6
VOne term?
p1140
sg8
VLEO
p1141
sg10
g11
sa(dp1142
g6
V[nods] My thing, by the way, is the reason Hoynes stepped up on oil.
p1143
sg8
VBARTLET
p1144
sg10
g11
sa(dp1145
g6
V'Cause he thinks maybe...
p1146
sg8
VLEO
p1147
sg10
g11
sa(dp1148
g6
VYeah.
p1149
sg8
VBARTLET
p1150
sg10
g11
sa(dp1151
g6
VIt was three years ago. She can't expect...
p1152
sg8
VLEO
p1153
sg10
g11
sa(dp1154
g6
V[into phone] Yeah. Yeah. [to Bartlet] It's C.J. Stackhouse has an autistic grandson.
p1155
sg8
VLEO
p1156
sg10
g11
sa(dp1157
g6
V(sighs) Let's go.
p1158
sg8
VBARTLET
p1159
sg10
g11
sa(dp1160
g6
V[into phone] C.J., we're coming up.
p1161
sg8
VLEO
p1162
sg10
g11
sa(dp1163
g6
VCharlie?
p1164
sg8
VC.J.
p1165
sg10
g11
sa(dp1166
g6
VHe's just coming over.
p1167
sg8
VCHARLIE
p1168
sg10
g11
sa(dp1169
g6
VThanks. Can we wait?
p1170
sg8
VC.J.
p1171
sg10
g11
sa(dp1172
g6
VYeah. Look, C.J., one of us is going to have to tell the President the statue's broken.
p1173
sg8
VCHARLIE
p1174
sg10
g11
sa(dp1175
g6
VIt's not broken.
p1176
sg8
VC.J.
p1177
sg10
g11
sa(dp1178
g6
VIt is broken.
p1179
sg8
VCHARLIE
p1180
sg10
g11
sa(dp1181
g6
VShe Crazy Glued it back together.
p1182
sg8
VDONNA
p1183
sg10
g11
sa(dp1184
g6
VYou Crazy Glued it?
p1185
sg8
VCHARLIE
p1186
sg10
g11
sa(dp1187
g6
VI didn't know what it was. I needed a potpourri holder. I have the ancient curse of Bast on me so get off my back, Sparky.
p1188
sg8
VC.J.
p1189
sg10
g11
sa(dp1190
g6
VOkay, but when you tell him I'd leave out the Crazy Glue.
p1191
sg8
VCHARLIE
p1192
sg10
g11
sa(dp1193
g6
VAnd the potpourri, right?
p1194
sg8
VC.J.
p1195
sg10
g11
sa(dp1196
g6
VYeah. Here we go.
p1197
sg8
VCHARLIE
p1198
sg10
g11
sa(dp1199
g6
VHow does he not just tell me?
p1200
sg8
VBARTLET
p1201
sg10
g11
sa(dp1202
g6
VSir...
p1203
sg8
VLEO
p1204
sg10
g11
sa(dp1205
g6
VHow does he not come to me and say "Jed, this is my grandson and there are lots more like him and there are lots more to come. Can you help us out?"
p1206
sg8
VBARTLET
p1207
sg10
g11
sa(dp1208
g6
VBecause he...
p1209
sg8
VLEO
p1210
sg10
g11
sa(dp1211
g6
VDamn it. He knows we would have gotten it done. Why doesn't he tell me?
p1212
sg8
VBARTLET
p1213
sg10
g11
sa(dp1214
g6
VBecause he doesn't want to make political hay out of his grandson, which is commendable.
p1215
sg8
VLEO
p1216
sg10
g11
sa(dp1217
g6
VNah, he's a crank.
p1218
sg8
VBARTLET
p1219
sg10
g11
sa(dp1220
g6
VGood evening, Mr. President.
p1221
sg8
VC.J.
p1222
sg10
g11
sa(dp1223
g6
VHey. Hey Donna, you need something?
p1224
sg8
VBARTLET
p1225
sg10
g11
sa(dp1226
g6
VDonna's the one who started sniffing around it.
p1227
sg8
VC.J.
p1228
sg10
g11
sa(dp1229
g6
VC.J., that phone message was for real. He's not going to stop till he drops.
p1230
sg8
VBARTLET
p1231
sg10
g11
sa(dp1232
g6
VHe might.
p1233
sg8
VC.J.
p1234
sg10
g11
sa(dp1235
g6
VC.J., let me tell you something. Don't ever, ever underestimate the will of a grandfather. We're mad men. We don't give a damn. We got here before you and they'll be here after. We'll make enemies, we'll break laws, we'll break bones but you will not mess with the grandchildren.
p1236
sg8
VBARTLET
p1237
sg10
g11
sa(dp1238
g6
VThere was quite a bit of sugar in the cr'me de caramel.
p1239
sg8
VLEO
p1240
sg10
g11
sa(dp1241
g6
VYeah.
p1242
sg8
VC.J.
p1243
sg10
g11
sa(dp1244
g6
VC.J.... If I told you to screw the print deadline what would you want to do right now?
p1245
sg8
VBARTLET
p1246
sg10
g11
sa(dp1247
g6
VI'd want to see if there's a way I could help him out.
p1248
sg8
VC.J.
p1249
sg10
g11
sa(dp1250
g6
VGive him some dignity right? And give him a rest. The guy's going to collapse out there.
p1251
sg8
VBARTLET
p1252
sg10
g11
sa(dp1253
g6
VYes, sir.
p1254
sg8
VC.J.
p1255
sg10
g51
sa(dp1256
g6
VScrew the print deadline. Leo?
p1257
sg8
VBARTLET
p1258
sg10
g11
sa(dp1259
g6
VLook...
p1260
sg8
VLEO
p1261
sg10
g11
sa(dp1262
g6
VWe will talk about the other thing later.
p1263
sg8
VBARTLET
p1264
sg10
g11
sa(dp1265
g6
VI'm just asking how we're going to do this.
p1266
sg8
VLEO
p1267
sg10
g11
sa(dp1268
g6
VExcuse me?
p1269
sg8
VDONNA
p1270
sg10
g11
sa(dp1271
g6
VThe Chairman's going to gavel him off if he stops talking or sits.
p1272
sg8
VLEO
p1273
sg10
g11
sa(dp1274
g6
VExcuse me?
p1275
sg8
VDONNA
p1276
sg10
g11
sa(dp1277
g6
V(amazed) What are you doing?
p1278
sg8
VLEO
p1279
sg10
g11
sa(dp1280
g6
VI didn't know if I'm supposed to...
p1281
sg8
VDONNA
p1282
sg10
g11
sa(dp1283
g6
VWe usually don't raise our hands.
p1284
sg8
VLEO
p1285
sg10
g11
sa(dp1286
g6
VThough it's not the worst idea in the world.
p1287
sg8
VBARTLET
p1288
sg10
g11
sa(dp1289
g6
VThe Senator's allowed to yield for a question without yielding the floor.
p1290
sg8
VDONNA
p1291
sg10
g11
sa(dp1292
g6
VWhat do you mean?
p1293
sg8
VLEO
p1294
sg10
g11
sa(dp1295
g6
VHe's allowed to yield for a question without yielding the floor.
p1296
sg8
VDONNA
p1297
sg10
g11
sa(dp1298
g6
VI was in the House. I know nothing about Senate rules.
p1299
sg8
VBARTLET
p1300
sg10
g11
sa(dp1301
g6
VYes sir, but Josh does, and he likes to explain things, and, well, I let him.
p1302
sg8
VDONNA
p1303
sg10
g11
sa(dp1304
g6
VI'm pretty sure it's true, sir.
p1305
sg8
VC.J.
p1306
sg10
g11
sa(dp1307
g6
VWhat time is it? Let's wake up a parliamentarian.
p1308
sg8
VBARTLET
p1309
sg10
g11
sa(dp1310
g6
VYeah, but the problem is the only people who ask questions are Senators.
p1311
sg8
VLEO
p1312
sg10
g11
sa(dp1313
g6
VWe're going to get one of them to walk in there. Charlie!
p1314
sg8
VBARTLET
p1315
sg10
g11
sa(dp1316
g6
VThe Senate wants to go home. They want a vote.
p1317
sg8
VLEO
p1318
sg10
g11
sa(dp1319
g6
VYes, sir?
p1320
sg8
VCHARLIE
p1321
sg10
g51
sa(dp1322
g6
VI want to call Senators. We'll start with our friends. When we're done with those two, we'll go on to the other 98.
p1323
sg8
VBARTLET
p1324
sg10
g11
sa(dp1325
g6
VCharlie!
p1326
sg8
VC.J.
p1327
sg10
g11
sa(dp1328
g6
VYes, ma'am.
p1329
sg8
VCHARLIE
p1330
sg10
g51
sa(dp1331
g6
VStart with the grandfathers.
p1332
sg8
VC.J.
p1333
sg10
g11
sa(dp1334
g6
VYes, ma'am.
p1335
sg8
VCHARLIE
p1336
sg10
g51
sa(dp1337
g6
VThere's no damn holiday for us either.
p1338
sg8
VBARTLET
p1339
sg10
g11
sa(dp1340
g6
VWe'll be in the dining room.
p1341
sg8
VLEO
p1342
sg10
g11
sa(dp1343
g6
VC.J., no kidding, make this happen.
p1344
sg8
VBARTLET
p1345
sg10
g136
sa(dp1346
g6
VYes, sir. (quietly) Oh and, I broke you're statue.
p1347
sg8
VC.J.
p1348
sg10
g11
sa(dp1349
g6
VI don't think he heard you.
p1350
sg8
VDONNA
p1351
sg10
g11
sa(dp1352
g6
VNo.
p1353
sg8
VC.J.
p1354
sg10
g11
sa(dp1355
g6
VThe water peaked at 3 690 feet last month because of an uncontrolled release from Lake Powell.
p1356
sg8
VSTAFFER
p1357
sg10
g11
sa(dp1358
g6
VYou mean the uncontrolled release of Lake Powell.
p1359
sg8
VHOYNES
p1360
sg10
g11
sa(dp1361
g6
VI suppose.
p1362
sg8
VSTAFFER
p1363
sg10
g11
sa(dp1364
g6
VI am going home.
p1365
sg8
VHOYNES
p1366
sg10
g11
sa(dp1367
g6
VGood night, sir.
p1368
sg8
VSTAFFER
p1369
sg10
g11
sa(dp1370
g6
VGood night.
p1371
sg8
VHOYNES
p1372
sg10
g11
sa(dp1373
g6
V[walks up] Mr. Vice President?
p1374
sg8
VTOBY
p1375
sg10
g136
sa(dp1376
g6
VDidn't I do it right?
p1377
sg8
VHOYNES
p1378
sg10
g11
sa(dp1379
g6
VNo, sir, you did it very well. I appreciate it.
p1380
sg8
VTOBY
p1381
sg10
g51
sa(dp1382
g6
VYeah.
p1383
sg8
VHOYNES
p1384
sg10
g11
sa(dp1385
g6
VI'm sure you know I was curious about why you'd volunteer for something like that.
p1386
sg8
VTOBY
p1387
sg10
g11
sa(dp1388
g6
VYeah.
p1389
sg8
VHOYNES
p1390
sg10
g11
sa(dp1391
g6
VSo I got a hold of some private polling you've had done.
p1392
sg8
VTOBY
p1393
sg10
g11
sa(dp1394
g6
VOh. Yeah?
p1395
sg8
VHOYNES
p1396
sg10
g11
sa(dp1397
g6
VA significant number of people are concerned over your close ties to big oil.
p1398
sg8
VTOBY
p1399
sg10
g11
sa(dp1400
g6
VWell, not anymore.
p1401
sg8
VHOYNES
p1402
sg10
g11
sa(dp1403
g6
VYeah, but what I was wondering was why did you put the poll in the field at all? Mr. Vice President, what do you know that I don't?
p1404
sg8
VTOBY
p1405
sg10
g11
sa(dp1406
g6
VToby, the total tonnage of what I know that you don't could stun a team of oxen in its tracks. Good night.
p1407
sg8
VHOYNES
p1408
sg10
g11
sa(dp1409
g6
VEveryone was enlisted. You called everyone you had a relationship with...
p1410
sg8
VJOSH
p1411
sg10
g11
sa(dp1412
g6
V...with and if you didn't get anywhere, they got a call from the President.
p1413
sg8
VSAM
p1414
sg10
g11
sa(dp1415
g6
VDo I have your word on that, Sarah?
p1416
sg8
VC.J.
p1417
sg10
g11
sa(dp1418
g6
VWe'd been at it 20 minutes and we were coming up with...
p1419
sg8
VJOSH
p1420
sg10
g11
sa(dp1421
g6
V...nothing, until...
p1422
sg8
VSAM
p1423
sg10
g11
sa(dp1424
g6
VGot it!
p1425
sg8
VC.J.
p1426
sg10
g11
sa(dp1427
g6
VSenator Tom Grissom of Washington State was headed from his office...
p1428
sg8
VSAM
p1429
sg10
g11
sa(dp1430
g6
V...to the Chamber and everybody started flooding into the Communications Bullpen to see what would happen, the problem being of course...
p1431
sg8
VC.J.
p1432
sg10
g11
sa(dp1433
g6
V...Stackhouse would have to know as much about rules and procedures as Donna had and not think we were trying to screw him.
p1434
sg8
VSAM
p1435
sg10
g11
sa(dp1436
g6
VWe stared at 14 different television sets while calculating in our heads the time it would take Grissom to walk from his office...
p1437
sg8
VJOSH
p1438
sg10
g11
sa(dp1439
g6
V...to the floor and we were in frozen silence while we listened to the rules of blackjack.
p1440
sg8
VC.J.
p1441
sg10
g11
sa(dp1442
g6
V...unless you are counting cards.
p1443
sg8
VSTACKHOUSE
p1444
sg10
g11
sa(dp1445
g6
VAnd then it happened.
p1446
sg8
VC.J.
p1447
sg10
g11
sa(dp1448
g6
VMr. Grissom?
p1449
sg8
VCHAIRMAN
p1450
sg10
g11
sa(dp1451
g6
VWill the Senator yield for a question?
p1452
sg8
VGRISSOM
p1453
sg10
g11
sa(dp1454
g6
VCome on.
p1455
sg8
VSAM
p1456
sg10
g11
sa(dp1457
g6
VMr. Stackhouse?
p1458
sg8
VCHAIRMAN
p1459
sg10
g11
sa(dp1460
g6
VCome on.
p1461
sg8
VJOSH
p1462
sg10
g11
sa(dp1463
g6
VTrust me just this once, you grouchy old son of a bitch.
p1464
sg8
VBARTLET
p1465
sg10
g51
sa(dp1466
g6
VMr. Chairman, I yield to the Senator from Washington for a question.
p1467
sg8
VSTACKHOUSE
p1468
sg10
g11
sa(dp1469
g6
VMy question is in 22 parts and might take quite a while. Perhaps you'd like to sit and have some water while I ask it.
p1470
sg8
VGRISSOM
p1471
sg10
g11
sa(dp1472
g6
VAnd that was it. Grissom gave him a rest and an opportunity to answer some real questions about autism, and when Grissom was done, McNamara took over, and after McNamara came Gianelli, grandfathers all. I'm going to have to finish this up now and go into the press room and explain what happened. There'll be no vote tonight and the Senate will go home...
p1473
sg8
VC.J.
p1474
sg10
g11
sa(dp1475
g6
V...for the week. And since Stackhouse, with our help, blew the print deadline anyway, there's really no reason...
p1476
sg8
VJOSH
p1477
sg10
g11
sa(dp1478
g6
V...for Josh not to go back to the Conference Chairman and reopen the bill.
p1479
sg8
VSAM
p1480
sg10
g11
sa(dp1481
g6
VThere are so many days here where you can't imagine that anything good will ever happen. You're...
p1482
sg8
VC.J.
p1483
sg10
g11
sa(dp1484
g6
VYou're buried under a black fog of partisanship and self promotion and...
p1485
sg8
VJOSH
p1486
sg10
g11
sa(dp1487
g6
V...stupidity and a brand of politics that's just plain mean...
p1488
sg8
VSAM
p1489
sg10
g11
sa(dp1490
g6
VYes, Hoynes had us nervous with his admonishment of big oil and yes, the President was making us nervous too, but that's for tomorrow 'cause tonight I've seen a man with no legs stay standing Dad, and a guy with no voice keep shouting and if politics brings out the worst in people then maybe people bring out the best 'cause I'm looking at the TV right now and damned if 28 US Senators haven't just walked onto the floor to help. I'll catch the first plane out in the morning and if you wouldn't mind not turning 70 until tomorrow that'd be great. In the meantime, I love you so much. Your daughter, Claudia.
p1491
sg8
VC.J.
p1492
sg10
g11
sas.