(dp0
S'season'
p1
I2
sS'episode'
p2
I22
sS'script'
p3
(lp4
(dp5
S'text'
p6
VMost of us are just hearing the news now.
p7
sS'character'
p8
VBILL
p9
sS'maxent_score'
p10
S'neutral'
p11
sa(dp12
g6
VYes.
p13
sg8
VLEO
p14
sg10
S'positive'
p15
sa(dp16
g6
VThere hasn't been a lot of time to digest this.
p17
sg8
VBILL
p18
sg10
g11
sa(dp19
g6
VYeah.
p20
sg8
VLEO
p21
sg10
g11
sa(dp22
g6
VYeah.
p23
sg8
VLEO
p24
sg10
g11
sa(dp25
g6
VIt's not a matter of accepting M... There was a cover...
p26
sg8
VBILL
p27
sg10
g11
sa(dp28
g6
VEven if you can squeeze out a win, this is what the campaign is going to be about.
p29
sg8
VBILL
p30
sg10
g11
sa(dp31
g6
VYes, and we're running without a standard bearer. At a time when we've got policy cases against the Republicans on tax cuts, environment, education... and *this* is what the campaign's going to be about.
p32
sg8
VBILL
p33
sg10
g11
sa(dp34
g6
V[beat] You think you're the first one to say it?
p35
sg8
VLEO
p36
sg10
g11
sa(dp37
g6
VYou are, at minimum, the 35th in the last two hours.
p38
sg8
VLEO
p39
sg10
g11
sa(dp40
g6
VHarry, Bill, there's going to be a press conference tonight. I'd watch.
p41
sg8
VLEO
p42
sg10
g11
sa(dp43
g6
VHe'll sit here, with the First Lady on his right.
p44
sg8
VTOBY
p45
sg10
g11
sa(dp46
g6
VYou don't want him in front of the fireplace?
p47
sg8
VLARRY
p48
sg10
g11
sa(dp49
g6
VThe fireplace is too much. He'll sit here, which means they're gonna have to light the room from the outside the window. Do they know that?
p50
sg8
VTOBY
p51
sg10
g11
sa(dp52
g6
VWe'll let them know.
p53
sg8
VLARRY
p54
sg10
g11
sa(dp55
g6
VThe last time they didn't know. The President taped an Easter message that looked like it was lit by Ed Wood!
p56
sg8
VTOBY
p57
sg10
g11
sa(dp58
g6
VToby.
p59
sg8
VSAM
p60
sg10
g11
sa(dp61
g6
VA pitcher of water, but keep it off-screen.
p62
sg8
VTOBY
p63
sg10
g11
sa(dp64
g6
VDo they know?
p65
sg8
VSAM
p66
sg10
S'negative'
p67
sa(dp68
g6
VThey gotta light from outside the window, if they don't light from outside the window...
p69
sg8
VTOBY
p70
sg10
g11
sa(dp71
g6
VI don't care. Look, Toby, has anyone considered whether or not he's up for this?
p72
sg8
VSAM
p73
sg10
g11
sa(dp74
g6
VUp for this?
p75
sg8
VTOBY
p76
sg10
g11
sa(dp77
g6
VI mean, some stuff has happened since...
p78
sg8
VSAM
p79
sg10
g11
sa(dp80
g6
VC.J. gave it to the network. We're pretty much locked in, so...
p81
sg8
VTOBY
p82
sg10
g11
sa(dp83
g6
VWhen are we prepping with him?
p84
sg8
VSAM
p85
sg10
g11
sa(dp86
g6
VAfter the service.
p87
sg8
VTOBY
p88
sg10
g11
sa(dp89
g6
VThere's gonna be time?
p90
sg8
VSAM
p91
sg10
g11
sa(dp92
g6
VWe'll have the afternoon.
p93
sg8
VTOBY
p94
sg10
g11
sa(dp95
g6
VI think we should consider taking...
p96
sg8
VSAM
p97
sg10
g11
sa(dp98
g6
V[walking away] There aren't any options left. We're going on TV, at eight.
p99
sg8
VTOBY
p100
sg10
g11
sa(dp101
g6
V[walking up] Toby...
p102
sg8
VGINGER
p103
sg10
g11
sa(dp104
g6
VYeah.
p105
sg8
VTOBY
p106
sg10
g11
sa(dp107
g6
VI'm sorry, but I had to put Greg Summerhays back on your schedule.
p108
sg8
VGINGER
p109
sg10
g11
sa(dp110
g6
VNo, I took him off.
p111
sg8
VTOBY
p112
sg10
g11
sa(dp113
g6
VLeo's office had me put him back on.
p114
sg8
VGINGER
p115
sg10
g11
sa(dp116
g6
VWhy?
p117
sg8
VTOBY
p118
sg10
g11
sa(dp119
g6
VThey wanted you to keep the appointment.
p120
sg8
VGINGER
p121
sg10
g15
sa(dp122
g6
V[stopping] We've got her funeral today. We've got these...
p123
sg8
VTOBY
p124
sg10
g11
sa(dp125
g6
VI said four o'clock.
p126
sg8
VGINGER
p127
sg10
g11
sa(dp128
g6
V[pats Ginger's arm then walks] Yeah, all right.
p129
sg8
VTOBY
p130
sg10
g11
sa(dp131
g6
VCarol.
p132
sg8
VC.J.
p133
sg10
g11
sa(dp134
g6
VYeah.
p135
sg8
VCAROL
p136
sg10
g11
sa(dp137
g6
V[handing her a folder] AP, Reuters, Agence France, something about seating on Air Force One...
p138
sg8
VC.J.
p139
sg10
g11
sa(dp140
g6
VSeating arrangements?
p141
sg8
VCAROL
p142
sg10
g11
sa(dp143
g6
V[nodding] Seating arrangements on Air Force One.
p144
sg8
VC.J.
p145
sg10
g11
sa(dp146
g6
VC.J.?
p147
sg8
VJOSH
p148
sg10
g11
sa(dp149
g6
VListen, I was thinking since it's probably going to be a light day, I'd maybe blow off work, go shopping or something. What do you need?
p150
sg8
VC.J.
p151
sg10
g11
sa(dp152
g6
VCan I give you a quick brief?
p153
sg8
VJOSH
p154
sg10
g11
sa(dp155
g6
VSure.
p156
sg8
VC.J.
p157
sg10
g11
sa(dp158
g6
VThe Justice Department's run out of money in their suit against the tobacco companies.
p159
sg8
VJOSH
p160
sg10
g11
sa(dp161
g6
VThe Justice Department's overmatched.
p162
sg8
VC.J.
p163
sg10
g11
sa(dp164
g6
VYeah, by hundreds of millions of dollars. They're asking for $30 million and we think they should have it.
p165
sg8
VJOSH
p166
sg10
g11
sa(dp167
g6
VWho disagrees with us?
p168
sg8
VC.J.
p169
sg10
g15
sa(dp170
g6
VEight of the fifteen members of the subcommittee that controls the budgets for Justice and Commerce, including Kalmbach, who has significant ties to tobacco, and Warren and Rossiter, who do not.
p171
sg8
VJOSH
p172
sg10
g11
sa(dp173
g6
VWe lost two Democrats?
p174
sg8
VC.J.
p175
sg10
g11
sa(dp176
g6
VThey have ideological objections.
p177
sg8
VJOSH
p178
sg10
g67
sa(dp179
g6
VYeah, it's just not a good time to be losing Democrats.
p180
sg8
VC.J.
p181
sg10
g11
sa(dp182
g6
VYou haven't been in my office this morning.
p183
sg8
VJOSH
p184
sg10
g11
sa(dp185
g6
VWe'll get them back.
p186
sg8
VC.J.
p187
sg10
g11
sa(dp188
g6
VAnyway, uh, Leo felt pretty strongly that we ought to light a fire under it, so I wrote up a strongly worded release.
p189
sg8
VJOSH
p190
sg10
g11
sa(dp191
g6
V[skimming] 'The White House, for immediate release, Office of the Press. Today the President calls on Congress... deserve their day in court, and this administration won't sit on the bench while well-fed members of the Appropriations Committee choke off funding for a lawsuit aimed at perpetrators of hundreds of thousands of negligent homicides while filling their campaign war chests.' [looks up at Josh in amazement] This is like the fire we used to throw in the early primaries.
p192
sg8
VC.J.
p193
sg10
g11
sa(dp194
g6
V[smiling] Let Bartlet be Bartlet.
p195
sg8
VJOSH
p196
sg10
g11
sa(dp197
g6
VYou got to put it away for a while.
p198
sg8
VC.J.
p199
sg10
g11
sa(dp200
g6
VYou think?
p201
sg8
VJOSH
p202
sg10
g11
sa(dp203
g6
VI'm going in there now to tell them a landing ship helicopter assault team is steaming off Port-au-Prince and after that I'm bringing in AP, Reuters, and Agence France. Nobody's gonna write about an Appropriations Bill. Haiti's gonna get bumped to the Lifestyle section.
p204
sg8
VC.J.
p205
sg10
g11
sa(dp206
g6
VYeah, I suppose.
p207
sg8
VJOSH
p208
sg10
g11
sa(dp209
g6
VListen... Have you seen him today?
p210
sg8
VJOSH
p211
sg10
g11
sa(dp212
g6
V[turning back] No. Have you?
p213
sg8
VC.J.
p214
sg10
g11
sa(dp215
g6
VNo.
p216
sg8
VJOSH
p217
sg10
g11
sa(dp218
g6
VAll right. Listen, I've gotta...
p219
sg8
VC.J.
p220
sg10
g11
sa(dp221
g6
VYeah. Thanks.
p222
sg8
VJOSH
p223
sg10
g11
sa(dp224
g6
VWhy are we assuming it's Hoynes?
p225
sg8
VHANSON
p226
sg10
g11
sa(dp227
g6
VPlease...
p228
sg8
VPHILLIPS
p229
sg10
g11
sa(dp230
g6
VNo, why are we assuming it's gotta be Hoynes? You don't think Wetland's gonna get in on it? Hutchinson? Seth Gillette?
p231
sg8
VHANSON
p232
sg10
g11
sa(dp233
g6
VPlease...
p234
sg8
VPHILLIPS
p235
sg10
g11
sa(dp236
g6
VGillette's lucky if he carries his immediate family.
p237
sg8
VMAN
p238
sg10
g11
sa(dp239
g6
VIt's Hoynes. Sam, you understand this conversation isn't ruling out Bartlet as a candidate, it's just a 'what if?' We're party strategists, it's what we're paid for.
p240
sg8
VPHILLIPS
p241
sg10
g11
sa(dp242
g6
VYeah.
p243
sg8
VSAM
p244
sg10
g11
sa(dp245
g6
VHoynes is the only one that put together the money this fast.
p246
sg8
VMAN
p247
sg10
g11
sa(dp248
g6
VHe's the most successful fundraiser this party's ever had.
p249
sg8
VPHILLIPS
p250
sg10
g11
sa(dp251
g6
VThough, obviously, it would be easier if Hoynes was running as an incumbent...
p252
sg8
VMAN
p253
sg10
g11
sa(dp254
g6
V[has heard enough] Okay.
p255
sg8
VSAM
p256
sg10
g11
sa(dp257
g6
VSam...
p258
sg8
VPHILLIPS
p259
sg10
g11
sa(dp260
g6
V[shutting his portfolio] Thanks.
p261
sg8
VSAM
p262
sg10
g11
sa(dp263
g6
VNo, it was an inappropriate...
p264
sg8
VPHILLIPS
p265
sg10
g11
sa(dp266
g6
VWhen I say 'okay,' that's it. Close your notebooks. We don't talk like that here. I don't give a damn whose nephew you are. Tommy, President Bartlet's not a candidate. He's the President.
p267
sg8
VSAM
p268
sg10
g11
sa(dp269
g6
VWhat are the conditions inside the embassy?
p270
sg8
VLEO
p271
sg10
g11
sa(dp272
g6
VIt's still got running water but the power's been cut. The emergency generator's got about 24 hours.
p273
sg8
VNANCY
p274
sg10
g11
sa(dp275
g6
VAny injuries?
p276
sg8
VLEO
p277
sg10
g11
sa(dp278
g6
VThere aren't any injuries but the Deputy Chief's a diabetic and he's running out of insulin.
p279
sg8
VMAN
p280
sg10
g11
sa(dp281
g6
VThe Red Cross can help us out there?
p282
sg8
VLEO
p283
sg10
g11
sa(dp284
g6
VYes, sir.
p285
sg8
VMAN
p286
sg10
g15
sa(dp287
g6
VWhat's outside?
p288
sg8
VLEO
p289
sg10
g11
sa(dp290
g6
VAbout 1200 troops now with A-15s positioned outside the gates. They've got four 105mm Howitzers.
p291
sg8
VNANCY
p292
sg10
g11
sa(dp293
g6
VWhich are trained at?
p294
sg8
VLEO
p295
sg10
g11
sa(dp296
g6
VOur front door.
p297
sg8
VNANCY
p298
sg10
g11
sa(dp299
g6
VMr. President, we want to send Fitz down there.
p300
sg8
VNANCY
p301
sg10
g11
sa(dp302
g6
VWhy?
p303
sg8
VBARTLET
p304
sg10
g11
sa(dp305
g6
VThere's a Haitian general named Francis St. Jacques. He trained with Fitz at Annapolis...
p306
sg8
VNANCY
p307
sg10
g11
sa(dp308
g6
VJed, Jed, your father's calling you.
p309
sg8
VBOY
p310
sg10
g11
sa(dp311
g6
VNo sir, I didn't. I was, uh, I didn't.
p312
sg8
VJED
p313
sg10
g11
sa(dp314
g6
VPeople shouldn't put their cigarettes out in the chapel, Mr. Spence.
p315
sg8
VJED
p316
sg10
g11
sa(dp317
g6
VYes, sir.
p318
sg8
VJED
p319
sg10
g15
sa(dp320
g6
V[turning to leave] Yeah.
p321
sg8
VJED
p322
sg10
g11
sa(dp323
g6
VBasically we think we can get St. Jacques to fracture Bazan's army.
p324
sg8
VNANCY
p325
sg10
g11
sa(dp326
g6
VSo if we invade...?
p327
sg8
VLEO
p328
sg10
g11
sa(dp329
g6
VIt becomes peacekeeping.
p330
sg8
VNANCY
p331
sg10
g11
sa(dp332
g6
VOkay. Send Fitzwallace down. Anything else?
p333
sg8
VBARTLET
p334
sg10
g11
sa(dp335
g6
VNo, sir. Thank you, Mr. President.
p336
sg8
VNANCY
p337
sg10
g15
sa(dp338
g6
VThey've been in there 48 hours.
p339
sg8
VBARTLET
p340
sg10
g11
sa(dp341
g6
VYes, sir.
p342
sg8
VCHARLIE
p343
sg10
g15
sa(dp344
g6
VThe guy's been President of his country for two days. He's spent them both at gunpoint.
p345
sg8
VBARTLET
p346
sg10
g11
sa(dp347
g6
VYeah.
p348
sg8
VCHARLIE
p349
sg10
g11
sa(dp350
g6
VWhat do you know about this storm?
p351
sg8
VBARTLET
p352
sg10
g11
sa(dp353
g6
VThe one...?
p354
sg8
VCHARLIE
p355
sg10
g11
sa(dp356
g6
VIt's moving from Florida to South Carolina.
p357
sg8
VBARTLET
p358
sg10
g11
sa(dp359
g6
VYeah. It's supposed to be bad.
p360
sg8
VCHARLIE
p361
sg10
g11
sa(dp362
g6
VIt's a tropical storm.
p363
sg8
VBARTLET
p364
sg10
g11
sa(dp365
g6
VYes, sir.
p366
sg8
VCHARLIE
p367
sg10
g15
sa(dp368
g6
VNo I mean it's been designated a tropical storm. That means it has a surface wind speed of something.
p369
sg8
VBARTLET
p370
sg10
g11
sa(dp371
g6
VYes, sir.
p372
sg8
VCHARLIE
p373
sg10
g15
sa(dp374
g6
VIsn't it strange to have a tropical storm in May?
p375
sg8
VBARTLET
p376
sg10
g11
sa(dp377
g6
VI'm not certain.
p378
sg8
VCHARLIE
p379
sg10
g11
sa(dp380
g6
VI'm pretty sure there's a season and this isn't it.
p381
sg8
VBARTLET
p382
sg10
g11
sa(dp383
g6
VI could have someone find out for you, Mr. President.
p384
sg8
VCHARLIE
p385
sg10
g11
sa(dp386
g6
VI mean it's not a big deal. It's just that I'm pretty sure it's strange.
p387
sg8
VBARTLET
p388
sg10
g11
sa(dp389
g6
VThe Motorcade will leave for the cathedral in an hour.
p390
sg8
VCHARLIE
p391
sg10
g11
sa(dp392
g6
VYou ever been to National Cathedral?
p393
sg8
VBARTLET
p394
sg10
g11
sa(dp395
g6
VYes, sir.
p396
sg8
VCHARLIE
p397
sg10
g15
sa(dp398
g6
VYou know you could lay the Washington Monument down on its side in that church?
p399
sg8
VBARTLET
p400
sg10
g11
sa(dp401
g6
VI did, actually.
p402
sg8
VCHARLIE
p403
sg10
g11
sa(dp404
g6
VWe should try it.
p405
sg8
VBARTLET
p406
sg10
g11
sa(dp407
g6
VYou only have two meetings between now and then. Is there anything else you need, sir?
p408
sg8
VCHARLIE
p409
sg10
g11
sa(dp410
g6
V[entering the Oval Office] I need pallbearers.
p411
sg8
VBARTLET
p412
sg10
g11
sa(dp413
g6
VYes, sir.
p414
sg8
VCHARLIE
p415
sg10
g15
sa(dp416
g6
VAlso in the combat radius will be six J-Socs out of McDill and a Battalion Landing Team. They'll cover that at the Pentagon briefing.
p417
sg8
VC.J.
p418
sg10
g11
sa(dp419
g6
VC.J.! C.J.! C.J.!
p420
sg8
VREPORTERS
p421
sg10
g11
sa(dp422
g6
VYes.
p423
sg8
VC.J.
p424
sg10
g15
sa(dp425
g6
VOf course it doesn't, but it should underline the consequences for Bazan should he decide to enter our embassy and/or arrest the democratically elected President of Haiti. That's all I have for now. Thank you.
p426
sg8
VC.J.
p427
sg10
g11
sa(dp428
g6
VC.J.! C.J.! C.J.!
p429
sg8
VREPORTERS
p430
sg10
g11
sa(dp431
g6
VBefore you all go, C.J. needs to see AP, Reuters, and Agence France in the office. She needs to discuss seating arrangements on Air Force One.
p432
sg8
VCAROL
p433
sg10
g11
sa(dp434
g6
VC.J.
p435
sg8
VSAM
p436
sg10
g11
sa(dp437
g6
VYeah.
p438
sg8
VC.J.
p439
sg10
g11
sa(dp440
g6
VWe've got a problem.
p441
sg8
VSAM
p442
sg10
g11
sa(dp443
g6
V[sighs] That's pretty hard to believe.
p444
sg8
VC.J.
p445
sg10
g11
sa(dp446
g6
VWe can't have the press conference in the East Room.
p447
sg8
VSAM
p448
sg10
g11
sa(dp449
g6
VWhat are you talking about?
p450
sg8
VC.J.
p451
sg10
g11
sa(dp452
g6
VI just got off the phone with Brian Coburn and we can't have it in the East Room.
p453
sg8
VSAM
p454
sg10
g11
sa(dp455
g6
V[alarmed] Why not?
p456
sg8
VC.J.
p457
sg10
g11
sa(dp458
g6
VThey've been pulling the wiring and they found asbestos and they have to seal it off.
p459
sg8
VSAM
p460
sg10
g11
sa(dp461
g6
V[throws her hand up in the air, exasperated] There's been asbestos in the East Room this whole time?
p462
sg8
VC.J.
p463
sg10
g11
sa(dp464
g6
VYeah. So I'm gonna make a list...
p465
sg8
VSAM
p466
sg10
g15
sa(dp467
g6
V[turns to look at Sam] Put together - okay - put together a list of alternatives.
p468
sg8
VC.J.
p469
sg10
g11
sa(dp470
g6
VYeah.
p471
sg8
VSAM
p472
sg10
g11
sa(dp473
g6
V[to reporters] Come on in...
p474
sg8
VC.J.
p475
sg10
g11
sa(dp476
g6
VC.J., I don't have any problem with my seat on the plane.
p477
sg8
VSTEVE
p478
sg10
g11
sa(dp479
g6
V[tersely] Get inside.
p480
sg8
VC.J.
p481
sg10
g11
sa(dp482
g6
VSeriously, I complained that one time cause, I don't know, I was in a bad mood.
p483
sg8
VSTEVE
p484
sg10
g11
sa(dp485
g6
VThis isn't about seating arrangements. Notebooks, no tape recorders. This story's embargoed for an hour, and you'll identify me as a senior White House official.
p486
sg8
VC.J.
p487
sg10
g11
sa(dp488
g6
VAre we talking about the opening bell?
p489
sg8
VLEO
p490
sg10
g11
sa(dp491
g6
VI'm sorry?
p492
sg8
VLEO
p493
sg10
g11
sa(dp494
g6
VC.J.'s leaking it right now.
p495
sg8
VLEO
p496
sg10
g11
sa(dp497
g6
VExcuse me. Keep going.
p498
sg8
VBARTLET
p499
sg10
g11
sa(dp500
g6
VIn what sectors?
p501
sg8
VLEO
p502
sg10
g11
sa(dp503
g6
VCharlie.
p504
sg8
VBARTLET
p505
sg10
g11
sa(dp506
g6
VYes, sir.
p507
sg8
VCHARLIE
p508
sg10
g15
sa(dp509
g6
VDo you have any idea why the door to the portico keeps swinging open? It's a little annoying.
p510
sg8
VBARTLET
p511
sg10
g11
sa(dp512
g6
VThey're replacing the latch. It's swinging open from the wind.
p513
sg8
VCHARLIE
p514
sg10
g11
sa(dp515
g6
V[gesturing] But the door opens out.
p516
sg8
VBARTLET
p517
sg10
g11
sa(dp518
g6
VWhen the right sequence of doors are open in the building, there's a wind tunnel into the Oval Office.
p519
sg8
VCHARLIE
p520
sg10
g11
sa(dp521
g6
V[small smile] No kidding!
p522
sg8
VBARTLET
p523
sg10
g11
sa(dp524
g6
VWhat about Europe and Japan?
p525
sg8
VLEO
p526
sg10
g11
sa(dp527
g6
VCharlie says there's a wind tunnel created by something. They're fixing the latch.
p528
sg8
VBARTLET
p529
sg10
g11
sa(dp530
g6
VMr. President?
p531
sg8
VMARGARET
p532
sg10
g11
sa(dp533
g6
VYeah?
p534
sg8
VBARTLET
p535
sg10
g11
sa(dp536
g6
V[to Margaret] Is the motorcade ready?
p537
sg8
VLEO
p538
sg10
g11
sa(dp539
g6
VYes, sir.
p540
sg8
VMARGARET
p541
sg10
g15
sa(dp542
g6
VOkay. Well, we've got to go. I don't know what to say. Leo's pretty rich. Maybe he can buy some tech stocks and jack up the price.
p543
sg8
VBARTLET
p544
sg10
g11
sa(dp545
g6
V[to advisors] Keep me posted on the bellwethers, okay?
p546
sg8
VLEO
p547
sg10
g11
sa(dp548
g6
V[to Margaret] Is the First Lady meeting us in the car?
p549
sg8
VLEO
p550
sg10
g11
sa(dp551
g6
VYes. It's a non-denominational service.
p552
sg8
VMARGARET
p553
sg10
g11
sa(dp554
g6
VWhat did she say?
p555
sg8
VBARTLET
p556
sg10
g11
sa(dp557
g6
VShe said the First Lady's meeting us in the car.
p558
sg8
VLEO
p559
sg10
g11
sa(dp560
g6
VIt wasn't a non-denominational service.
p561
sg8
VJED
p562
sg10
g11
sa(dp563
g6
VIt wouldn't have felt non-denominational if you were Jewish.
p564
sg8
VJED
p565
sg10
g11
sa(dp566
g6
VAttendance at chapel's required for every...
p567
sg8
VJED
p568
sg10
g11
sa(dp569
g6
V"Our Father" is not non-denominational.
p570
sg8
VJED
p571
sg10
g11
sa(dp572
g6
VCatholics don't. Catholics don't say, "For thine is the Kingdom, the Power and the Glory, forever and ever." [shrugs] You know? I'm just saying.
p573
sg8
VJED
p574
sg10
g11
sa(dp575
g6
VI'm sorry?
p576
sg8
VJED
p577
sg10
g11
sa(dp578
g6
VNo, I-I get free tuition, so, you know, I guess it's a good idea to give something back.
p579
sg8
VJED
p580
sg10
g11
sa(dp581
g6
V[chuckles softly] Is this gonna be a whole afternoon of questions?
p582
sg8
VJED
p583
sg10
g67
sa(dp584
g6
VI'm sorry. Am I boring you, Dolores?
p585
sg8
VJED
p586
sg10
g15
sa(dp587
g6
VMy father's the Headmaster.
p588
sg8
VJED
p589
sg10
g11
sa(dp590
g6
VI don't wanna make the other guys feel uncomfortable.
p591
sg8
VJED
p592
sg10
g11
sa(dp593
g6
VYeah.
p594
sg8
VJED
p595
sg10
g11
sa(dp596
g6
V[gently] You know, they released the girl from the hospital this morning.
p597
sg8
VABBEY
p598
sg10
g11
sa(dp599
g6
VThe driver?
p600
sg8
VBARTLET
p601
sg10
g11
sa(dp602
g6
VYeah...She fractured her wrist, some stitches over her eye, and the other two had some scratches and bruises. [clears throat softly] It looks like they're gonna charge her with vehicular manslaughter.
p603
sg8
VABBEY
p604
sg10
g11
sa(dp605
g6
VFrank Mitchell, Joanna... Bill Carney... they told me they were in meetings all morning.
p606
sg8
VABBEY
p607
sg10
g11
sa(dp608
g6
V[absently] Yeah.
p609
sg8
VBARTLET
p610
sg10
g11
sa(dp611
g6
VThe consensus seems to be that if you step back, and put your support behind Hoynes, there's a decent chance the Democrats can keep the White House.
p612
sg8
VABBEY
p613
sg10
g11
sa(dp614
g6
VThe world'll rest easier.
p615
sg8
VBARTLET
p616
sg10
g11
sa(dp617
g6
VWe're here.
p618
sg8
VBARTLET
p619
sg10
g67
sa(dp620
g6
V"I am the Resurrection and I am Life," says the Lord. "Whoever believes in Me shall live, even though he die." God of Mercy, You are the hope of sinners, the joy of saints. We pray for our sister Delores whose body we honor with Christian burial.
p621
sg8
VMONOHAN
p622
sg10
g11
sa(dp623
g6
VGive her happiness with Your saints, and raise up her body with the saints at the Last Day to be in Your presence forever...As for me, I know that my Redeemer lives, and that at the last, He will stand upon the Earth...
p624
sg8
VMONOHAN
p625
sg10
g11
sa(dp626
g6
VAfter my awaking, He will raise me up...
p627
sg8
VMONOHAN
p628
sg10
g67
sa(dp629
g6
V...and in my body, I shall see God...
p630
sg8
VMONOHAN
p631
sg10
g11
sa(dp632
g6
V...and I myself shall see, and my eyes behold, Him who is my friend...
p633
sg8
VMONOHAN
p634
sg10
g11
sa(dp635
g6
V[looks over, sees her, and smiles slightly] I'm trying to get through an honest day's work, Mrs. Landingham.
p636
sg8
VJED
p637
sg10
g11
sa(dp638
g6
VI didn't miss it. I just haven't gotten to it yet.
p639
sg8
VJED
p640
sg10
g11
sa(dp641
g6
VYou have a habit of doing that, you know?
p642
sg8
VJED
p643
sg10
g11
sa(dp644
g6
VTelling me I'm doing something wrong before I've had a chance to do it at all.
p645
sg8
VJED
p646
sg10
g11
sa(dp647
g6
VYeah.
p648
sg8
VJED
p649
sg10
g11
sa(dp650
g6
VReally.
p651
sg8
VJED
p652
sg10
g11
sa(dp653
g6
VI'm a little busy right now hosing down the boats.
p654
sg8
VJED
p655
sg10
g11
sa(dp656
g6
VSorry?
p657
sg8
VJED
p658
sg10
g11
sa(dp659
g6
VNo, I didn't know that.
p660
sg8
VJED
p661
sg10
g11
sa(dp662
g6
VFirst reading will be from Mr. Charles Young, from the Book of Wisdom, Chapter III.
p663
sg8
VMONOHAN
p664
sg10
g11
sa(dp665
g6
VWhat are you doing here?
p666
sg8
VJED
p667
sg10
g11
sa(dp668
g6
VYou've been raising this issue for a week now.
p669
sg8
VJED
p670
sg10
g11
sa(dp671
g6
VDon't you have a husband?
p672
sg8
VJED
p673
sg10
g11
sa(dp674
g6
VI'm saying, shouldn't you maybe go home when you're done with work?
p675
sg8
VJED
p676
sg10
g11
sa(dp677
g6
VI just thought, since you're minding everybody else's, you know...
p678
sg8
VJED
p679
sg10
g11
sa(dp680
g6
VIn my family, we don't talk about money.
p681
sg8
VJED
p682
sg10
g11
sa(dp683
g6
V[walking away] Numbers, Mrs. Landingham.
p684
sg8
VJED
p685
sg10
g11
sa(dp686
g6
VIf you want to convince me of something, show me numbers!
p687
sg8
VJED
p688
sg10
g11
sa(dp689
g6
V"But the souls of the virtuous are in the hands of God. No torment shall ever touch them."
p690
sg8
VCHARLIE
p691
sg10
g11
sa(dp692
g6
V"In the eyes of the unwise, they did appear to die, but they are at peace. For though in the sight of others they were punished, their hope is full of immortality."
p693
sg8
VCHARLIE
p694
sg10
g11
sa(dp695
g6
VYes.
p696
sg8
VJED
p697
sg10
g15
sa(dp698
g6
VIt's possibly the starter or fan belt.
p699
sg8
VJED
p700
sg10
g11
sa(dp701
g6
VNo.
p702
sg8
VJED
p703
sg10
g11
sa(dp704
g6
VCause that's the two things I've heard of. [gets out]
p705
sg8
VJED
p706
sg10
g11
sa(dp707
g6
V[lifts the hood] What could you possibly want now?
p708
sg8
VJED
p709
sg10
g11
sa(dp710
g6
VThere's something abnormal about you. [leans under the hood to tinker]
p711
sg8
VJED
p712
sg10
g11
sa(dp713
g6
V[walks around her] Is this really the best time for this?
p714
sg8
VJED
p715
sg10
g11
sa(dp716
g6
V[reading] ....peace. Wherever there is danger, let us sow love. Wherever there is injury... harm. And wherever there is doubt, let there be faith in you. Amen.
p717
sg8
VCONGREGATION
p718
sg10
g11
sa(dp719
g6
VCrew.
p720
sg8
VJED
p721
sg10
g11
sa(dp722
g6
VIt's not rowing, It's crew. [fiddles under the hood] And Florence Chadwick is a married woman with no dependants and Mr. Hopkins has a family of four to support.
p723
sg8
VJED
p724
sg10
g11
sa(dp725
g6
VMrs. Landingham...
p726
sg8
VJED
p727
sg10
g11
sa(dp728
g6
VLook, what....
p729
sg8
VJED
p730
sg10
g11
sa(dp731
g6
VWhat do you want me to do about it?
p732
sg8
VJED
p733
sg10
g11
sa(dp734
g6
V[looks at her] See. I'm not a woman and I don't work here.
p735
sg8
VJED
p736
sg10
g11
sa(dp737
g6
VWhy do you talk to me like this?
p738
sg8
VJED
p739
sg10
g11
sa(dp740
g6
VMrs. Mueller gets half as much to teach music as Mr. Ryan gets to coach crew.
p741
sg8
VJED
p742
sg10
g11
sa(dp743
g6
VWell, I didn't say that.
p744
sg8
VJED
p745
sg10
g11
sa(dp746
g6
VWhen?
p747
sg8
VJED
p748
sg10
g11
sa(dp749
g6
VThat doesn't mean anything.
p750
sg8
VJED
p751
sg10
g11
sa(dp752
g6
VI stuck my hands in my pockets!
p753
sg8
VJED
p754
sg10
g11
sa(dp755
g6
V[sighs] It was a beautiful service I thought.
p756
sg8
VLEO
p757
sg10
g11
sa(dp758
g6
VYeah.
p759
sg8
VBARTLET
p760
sg10
g11
sa(dp761
g6
V[quietly] I thought it was a beautiful service. [smiles] She was a real dame, old friend. A real broad.
p762
sg8
VLEO
p763
sg10
g11
sa(dp764
g6
V[nodding] Yeah.
p765
sg8
VBARTLET
p766
sg10
g11
sa(dp767
g6
V[leans in close] We gotta go back to the office now, sir.
p768
sg8
VLEO
p769
sg10
g11
sa(dp770
g6
V[nods] Yeah.
p771
sg8
VBARTLET
p772
sg10
g11
sa(dp773
g6
V[quietly] We've got some decisions to make now.
p774
sg8
VLEO
p775
sg10
g11
sa(dp776
g6
VLeo, would you do me a favor?
p777
sg8
VBARTLET
p778
sg10
g11
sa(dp779
g6
VYeah?
p780
sg8
VLEO
p781
sg10
g11
sa(dp782
g6
V[motions to the agents] Would you ask the agents to seal the cathedral for a minute?
p783
sg8
VBARTLET
p784
sg10
g11
sa(dp785
g6
VYeah.
p786
sg8
VLEO
p787
sg10
g11
sa(dp788
g6
V[tired] You're a son-of-a-bitch, you know that?
p789
sg8
VBARTLET
p790
sg10
g11
sa(dp791
g6
V[tired] She bought her first new car and you hit her with a drunk driver. What, was that supposed to be funny? "You can't conceive, nor can I, the appalling strangeness of the mercy of God," says Graham Greene. I don't know who's ass he was kissing there 'cause I think you're just vindictive. What was Josh Lyman? A warning shot? That was my son. What did I ever do to yours except praise his glory and praise his name? There's a tropical storm that gaining speed and power. They say we haven't had a storm this bad since you took out the tender ship of mine last year in the north Atlantic last year... 68 crew. Do you know what a tender ship does? Fixes the other ships. Doesn't even carry guns. Floats around and fixes the other ships and delivers that mail. That's all it can do. [angry] Gratias tibi ago, domine. Yes, I lied. It was a sin. [holds out arms] I've committed many sins. Have I displeased you, you feckless thug? 3.8 million new jobs, that wasn't good? Bailed out Mexico, increased foreign trade, 30 million new acres for conservation, put Mendoza on the bench, we're not fighting a war, I've raised three children...
p792
sg8
VBARTLET
p793
sg10
g11
sa(dp794
g6
V[pleading] That's not enough to buy me out of the doghouse? Haec credam a deo pio? A deo iusto? A deo scito?
p795
sg8
VBARTLET
p796
sg10
g11
sa(dp797
g6
VCruciatus in crucem! Tuus in terra servus nuntius fui officium perfeci. [angry]
p798
sg8
VBARTLET
p799
sg10
g11
sa(dp800
g6
V[betrayed] You get Hoynes!
p801
sg8
VBARTLET
p802
sg10
g11
sa(dp803
g6
VWe'll call them Answer A and Answer B.
p804
sg8
VC.J.
p805
sg10
g11
sa(dp806
g6
VYeah.
p807
sg8
VJOSH
p808
sg10
g11
sa(dp809
g6
VMr. President does this mean you won't be seeking a second term. Answer A is 'you bet. I will absolutely be seeking a second term. Looking forward to the campaign. There is great work yet to be done.'
p810
sg8
VC.J.
p811
sg10
g11
sa(dp812
g6
VYes.
p813
sg8
VJOSH
p814
sg10
g15
sa(dp815
g6
VAnswer B...
p816
sg8
VC.J.
p817
sg10
g15
sa(dp818
g6
V'Are you outta your mind? I can't possibly win the election. I lied about a degenerative illness. I'm the target of a Grand Jury investigation and Congress is about to take me out to lunch. I'd sooner have my family take off their clothes and dance the Tarantella on the Truman Balcony than go through a campaign with this around my neck.'
p819
sg8
VJOSH
p820
sg10
g11
sa(dp821
g6
VThink that's too on the nose?
p822
sg8
VJOSH
p823
sg10
g11
sa(dp824
g6
VI do.
p825
sg8
VC.J.
p826
sg10
g11
sa(dp827
g6
V[looks down] I'm gonna bring it up again.
p828
sg8
VSAM
p829
sg10
g11
sa(dp830
g6
VWhy?
p831
sg8
VC.J.
p832
sg10
g11
sa(dp833
g6
V[angry] Cause I got shouted down the first 3 times and I work here just like you do. Can I help you??
p834
sg8
VSAM
p835
sg10
g11
sa(dp836
g6
VSorry.
p837
sg8
VC.J.
p838
sg10
g11
sa(dp839
g6
V[starts pacing] I think we have to explore ways of calling this off.
p840
sg8
VSAM
p841
sg10
g11
sa(dp842
g6
VSam...
p843
sg8
VTOBY
p844
sg10
g11
sa(dp845
g6
VI think it might be a mistake to send him on at a moment when we're trying to demonstrate...
p846
sg8
VSAM
p847
sg10
g11
sa(dp848
g6
VListen...
p849
sg8
VTOBY
p850
sg10
g11
sa(dp851
g6
V[yelling] We don't know what we're talking about in there, Toby. We don't know if he's running or not! I think we have to...
p852
sg8
VSAM
p853
sg10
g11
sa(dp854
g6
VThere's no way. The story's leaked, it's out there. We're doing it. Don't worry Sam, it's going to be fine.
p855
sg8
VTOBY
p856
sg10
g11
sa(dp857
g6
V[sarcastic] They're lighting him from outside the window.
p858
sg8
VTOBY
p859
sg10
g11
sa(dp860
g6
VToby...
p861
sg8
VGINGER
p862
sg10
g11
sa(dp863
g6
V[sighs] I have a meeting with Greg Summerhays for reasons past understanding.
p864
sg8
VTOBY
p865
sg10
g11
sa(dp866
g6
VHello.
p867
sg8
VTOBY
p868
sg10
g11
sa(dp869
g6
VToby....
p870
sg8
VSUMMERHAYS
p871
sg10
g11
sa(dp872
g6
VIt's good to see you.
p873
sg8
VSUMMERHAYS
p874
sg10
g11
sa(dp875
g6
VGood Morning, Greg.
p876
sg8
VTOBY
p877
sg10
g11
sa(dp878
g6
VI'm was sorry about the President's secretary.
p879
sg8
VSUMMERHAYS
p880
sg10
g11
sa(dp881
g6
VThank you.
p882
sg8
VTOBY
p883
sg10
g15
sa(dp884
g6
VDo you know her well?
p885
sg8
VSUMMERHAYS
p886
sg10
g15
sa(dp887
g6
VYeah.
p888
sg8
VTOBY
p889
sg10
g11
sa(dp890
g6
VLet me get to why I'm here. I want to...
p891
sg8
VSUMMERHAYS
p892
sg10
g11
sa(dp893
g6
VBuy Atlantic Intermediate.
p894
sg8
VTOBY
p895
sg10
g11
sa(dp896
g6
V[nodding] Yeah.
p897
sg8
VSUMMERHAYS
p898
sg10
g11
sa(dp899
g6
VGreg, there's a reason the FCC...
p900
sg8
VTOBY
p901
sg10
g11
sa(dp902
g6
VI'm not here about the FCC.
p903
sg8
VSUMMERHAYS
p904
sg10
g11
sa(dp905
g6
V[surprised] Why are you here?
p906
sg8
VTOBY
p907
sg10
g11
sa(dp908
g6
V[leans forward] I'm launching a 24-hour cable news channel and I'm building it to compete.
p909
sg8
VSUMMERHAYS
p910
sg10
g11
sa(dp911
g6
VAnd I'd like you to be the news director.
p912
sg8
VSUMMERHAYS
p913
sg10
g11
sa(dp914
g6
VOkay. Thanks for coming in. Excuse me.
p915
sg8
VTOBY
p916
sg10
g11
sa(dp917
g6
VIt was a nice service, don't you think?
p918
sg8
VDONNA
p919
sg10
g11
sa(dp920
g6
VYeah. Yes it was.
p921
sg8
VJOSH
p922
sg10
g15
sa(dp923
g6
VI'm gonna run across the street to the OEMB for a minute. The President is still asking for information on the storm. He's got it caught in his teeth.
p924
sg8
VDONNA
p925
sg10
g11
sa(dp926
g6
VYeah.
p927
sg8
VJOSH
p928
sg10
g11
sa(dp929
g6
VJosh, can this really be how it works?
p930
sg8
VDONNA
p931
sg10
g11
sa(dp932
g6
VWe have no idea if he's gonna run again. He's in a room with Leo making his decision. Two people in a matter of minutes. Is this how it works?
p933
sg8
VDONNA
p934
sg10
g11
sa(dp935
g6
V[tired] That's how it works today.
p936
sg8
VJOSH
p937
sg10
g11
sa(dp938
g6
V[into phone] Josh Lyman. [to Josh] It's Leo.
p939
sg8
VDONNA
p940
sg10
g11
sa(dp941
g6
VHey, Toby!
p942
sg8
VSTAFFER
p943
sg10
g11
sa(dp944
g6
V[angry] Don't anybody talk to me right now.
p945
sg8
VTOBY
p946
sg10
g11
sa(dp947
g6
VJosh, Greg Summerhays was here to offer me a job. [yelling] Leo got me a damned lifeboat!
p948
sg8
VTOBY
p949
sg10
g11
sa(dp950
g6
V[yelling] I'm gonna rip his arms off...
p951
sg8
VTOBY
p952
sg10
g11
sa(dp953
g6
V[quietly] Toby...
p954
sg8
VJOSH
p955
sg10
g11
sa(dp956
g6
V[yelling]...and beat him with his own...
p957
sg8
VTOBY
p958
sg10
g11
sa(dp959
g6
V[quietly] That was Leo. He wants us over there. It's answer B.
p960
sg8
VJOSH
p961
sg10
g11
sa(dp962
g6
VYeah.
p963
sg8
VBARTLET
p964
sg10
g11
sa(dp965
g6
VI'm gonna get C.J., you two'll do a last minute review.
p966
sg8
VLEO
p967
sg10
g11
sa(dp968
g6
VI'm fine.
p969
sg8
VBARTLET
p970
sg10
g11
sa(dp971
g6
VI'm gonna get C.J.
p972
sg8
VLEO
p973
sg10
g11
sa(dp974
g6
VYeah.
p975
sg8
VBARTLET
p976
sg10
g11
sa(dp977
g6
V[very gently] Sit here. Close your eyes for a few minutes. Charlie will get you when we're ready.
p978
sg8
VLEO
p979
sg10
g11
sa(dp980
g6
VYeah. [sits before the veranda door]
p981
sg8
VBARTLET
p982
sg10
g11
sa(dp983
g6
VToby...
p984
sg8
VLEO
p985
sg10
g11
sa(dp986
g6
VYeah.
p987
sg8
VTOBY
p988
sg10
g11
sa(dp989
g6
VWhere's C.J.?
p990
sg8
VLEO
p991
sg10
g11
sa(dp992
g6
VShe ran back to her office.
p993
sg8
VTOBY
p994
sg10
g11
sa(dp995
g6
VThey're gonna run this clip forever.
p996
sg8
VTOBY
p997
sg10
g67
sa(dp998
g6
VNo, we're about to give them clips to beat it.
p999
sg8
VLEO
p1000
sg10
g11
sa(dp1001
g6
VLeo, you got me a lifeboat?
p1002
sg8
VTOBY
p1003
sg10
g11
sa(dp1004
g6
VGreg Summerhays.
p1005
sg8
VLEO
p1006
sg10
g11
sa(dp1007
g6
VYeah.
p1008
sg8
VTOBY
p1009
sg10
g11
sa(dp1010
g6
VYeah, I got you a lifeboat.
p1011
sg8
VLEO
p1012
sg10
g11
sa(dp1013
g6
VDo you imagine there are any circumstances under which I would use it?
p1014
sg8
VTOBY
p1015
sg10
g11
sa(dp1016
g6
VNo.
p1017
sg8
VLEO
p1018
sg10
g11
sa(dp1019
g6
VThen why?
p1020
sg8
VTOBY
p1021
sg10
g11
sa(dp1022
g6
VTo show him that. [heads for the door, stops and turns to Toby.] C.J.'s in her office?
p1023
sg8
VLEO
p1024
sg10
g11
sa(dp1025
g6
VYou think he's gonna change his mind, don't you? You think he's gonna run?
p1026
sg8
VTOBY
p1027
sg10
g11
sa(dp1028
g6
VC.J.'s in her office?
p1029
sg8
VLEO
p1030
sg10
g11
sa(dp1031
g6
VYeah.
p1032
sg8
VTOBY
p1033
sg10
g11
sa(dp1034
g6
VYeah!
p1035
sg8
VBARTLET
p1036
sg10
g11
sa(dp1037
g6
V[enters, stands before him] Mr. President, you wanted to see Donna Moss?
p1038
sg8
VMARGARET
p1039
sg10
g11
sa(dp1040
g6
VYeah.
p1041
sg8
VBARTLET
p1042
sg10
g11
sa(dp1043
g6
VGood evening, sir.
p1044
sg8
VDONNA
p1045
sg10
g11
sa(dp1046
g6
VHow are you?
p1047
sg8
VBARTLET
p1048
sg10
g15
sa(dp1049
g6
VFine, thank you, sir. We all thought you did very well.
p1050
sg8
VDONNA
p1051
sg10
g11
sa(dp1052
g6
VThat was the easy part.
p1053
sg8
VBARTLET
p1054
sg10
g11
sa(dp1055
g6
VIt didn't look that easy.
p1056
sg8
VDONNA
p1057
sg10
g11
sa(dp1058
g6
V[as they sit facing each other] Talk about the weather.
p1059
sg8
VBARTLET
p1060
sg10
g11
sa(dp1061
g6
V[clears throat softly] A tropical storm is a cyclone in which the maximum sustained surface speed of the wind is 34 nautical miles per hour.
p1062
sg8
VDONNA
p1063
sg10
g11
sa(dp1064
g6
VAnd there's a tropical storm seizing, right?
p1065
sg8
VBARTLET
p1066
sg10
g11
sa(dp1067
g6
VYes, sir, it's June 1st to November 30th.
p1068
sg8
VDONNA
p1069
sg10
g11
sa(dp1070
g6
VOkay, and how many times say, in the last hundred years, has a tropical storm come off the Atlantic seaboard to Washington in the middle of May?
p1071
sg8
VBARTLET
p1072
sg10
g11
sa(dp1073
g6
VAccording to the National Oceanic and Atmospheric Administration, it hasn't happened in the last century.
p1074
sg8
VDONNA
p1075
sg10
g11
sa(dp1076
g6
VAt all?
p1077
sg8
VBARTLET
p1078
sg10
g11
sa(dp1079
g6
VNo, sir.
p1080
sg8
VDONNA
p1081
sg10
g11
sa(dp1082
g6
VExcuse me, sir.
p1083
sg8
VC.J.
p1084
sg10
g11
sa(dp1085
g6
VYeah. Thank you, Donna.
p1086
sg8
VBARTLET
p1087
sg10
g15
sa(dp1088
g6
VThank you, Mr. President. [exits]
p1089
sg8
VDONNA
p1090
sg10
g15
sa(dp1091
g6
VAccording to the NOAA, the storm is a non-recurring phenomenon, which is science's term for 'we don't know what in the world is going on, but we're stocking up on canned goods.'
p1092
sg8
VBARTLET
p1093
sg10
g11
sa(dp1094
g6
VI just wanted to review a few things.
p1095
sg8
VC.J.
p1096
sg10
g11
sa(dp1097
g6
VThis is stuff you don't think I'd remember from an hour ago?
p1098
sg8
VBARTLET
p1099
sg10
g11
sa(dp1100
g6
VYou'll want to take the first question from Lawrence Altman, the Times' Chief Medical Correspondent.
p1101
sg8
VC.J.
p1102
sg10
g11
sa(dp1103
g6
VWhy?
p1104
sg8
VBARTLET
p1105
sg10
g11
sa(dp1106
g6
VBecause if you call on anyone else, the first question will be about reelection. Call on Altman, it will be a medical question, it'll have two or three follow-ups. It'll allow you to feel comfortable a little before you start with the political mess. Bartlet scoffs.
p1107
sg8
VC.J.
p1108
sg10
g11
sa(dp1109
g6
VAltman will be in the front row, first seat on your right.
p1110
sg8
VC.J.
p1111
sg10
g11
sa(dp1112
g6
VOkay. [walks away and looks aside]
p1113
sg8
VBARTLET
p1114
sg10
g11
sa(dp1115
g6
VMr. President?
p1116
sg8
VC.J.
p1117
sg10
g11
sa(dp1118
g6
VYeah?
p1119
sg8
VBARTLET
p1120
sg10
g11
sa(dp1121
g6
VWhere's Altman going to be?
p1122
sg8
VC.J.
p1123
sg10
g11
sa(dp1124
g6
VC.J....
p1125
sg8
VBARTLET
p1126
sg10
g11
sa(dp1127
g6
VMr. President, I'm going there right now. This is the last time I'm going to see you before you step up... please, where's Altman going to be?
p1128
sg8
VC.J.
p1129
sg10
g11
sa(dp1130
g6
VFirst seat on the right.
p1131
sg8
VBARTLET
p1132
sg10
g11
sa(dp1133
g6
VWhose right?
p1134
sg8
VC.J.
p1135
sg10
g11
sa(dp1136
g6
VMy right.
p1137
sg8
VBARTLET
p1138
sg10
g11
sa(dp1139
g6
VThank you, sir. [exits]
p1140
sg8
VC.J.
p1141
sg10
g15
sa(dp1142
g6
VDad, uh, I wanted to mention something to you that maybe you weren't aware of regarding salary acquisitions...
p1143
sg8
VJED
p1144
sg10
g11
sa(dp1145
g6
VIt's actually Ray Bradbury.
p1146
sg8
VJED
p1147
sg10
g11
sa(dp1148
g6
VYes.
p1149
sg8
VJED
p1150
sg10
g15
sa(dp1151
g6
V[sits] For banning certain books from the library, yes.
p1152
sg8
VJED
p1153
sg10
g11
sa(dp1154
g6
VHe banned Henry Miller! He banned D.H. Lawrence.
p1155
sg8
VJED
p1156
sg10
g11
sa(dp1157
g6
V"Giovanni's Room" 'cause it's too homosexual!
p1158
sg8
VJED
p1159
sg10
g11
sa(dp1160
g6
VI'm a student at this school.
p1161
sg8
VJED
p1162
sg10
g11
sa(dp1163
g6
VHe banned "Fahrenheit 451," which is about banning books!
p1164
sg8
VJED
p1165
sg10
g11
sa(dp1166
g6
VThat was supposed to...
p1167
sg8
VJED
p1168
sg10
g11
sa(dp1169
g6
V[quetly, looking away] It's not a nondenominational service.
p1170
sg8
VJED
p1171
sg10
g11
sa(dp1172
g6
VCatholics don't believe man is saved through faith alone. Catholics believe that faith has to be joined with good works.
p1173
sg8
VJED
p1174
sg10
g11
sa(dp1175
g6
VI'm the only one who's Catholic.
p1176
sg8
VJED
p1177
sg10
g11
sa(dp1178
g6
VNothing.
p1179
sg8
VJED
p1180
sg10
g11
sa(dp1181
g6
VAh... Damn it! Mrs. Landingham!
p1182
sg8
VBARTLET
p1183
sg10
g11
sa(dp1184
g6
V[beat, as he looks at her in disbelief] The door keeps blowing open.
p1185
sg8
VBARTLET
p1186
sg10
g11
sa(dp1187
g6
VI was...
p1188
sg8
VBARTLET
p1189
sg10
g11
sa(dp1190
g6
VIt's not that I don't know how to use it, it's just that I haven't learned yet.
p1191
sg8
VBARTLET
p1192
sg10
g11
sa(dp1193
g6
VI have MS, and I didn't tell anybody.
p1194
sg8
VBARTLET
p1195
sg10
g67
sa(dp1196
g6
VYou're gonna make jokes?
p1197
sg8
VBARTLET
p1198
sg10
g11
sa(dp1199
g6
V[motions her to sit and sits down] The party's not going to want me to run.
p1200
sg8
VBARTLET
p1201
sg10
g11
sa(dp1202
g6
VI've got a secret for you, Mrs. Landingham I've never been the most popular guy in the Democratic Party.
p1203
sg8
VBARTLET
p1204
sg10
g11
sa(dp1205
g6
VGive me numbers.
p1206
sg8
VBARTLET
p1207
sg10
g11
sa(dp1208
g6
VHow about a child born this minute has one in five chance of being born into poverty?
p1209
sg8
VBARTLET
p1210
sg10
g11
sa(dp1211
g6
V44 million.
p1212
sg8
VBARTLET
p1213
sg10
g11
sa(dp1214
g6
VHomicide.
p1215
sg8
VBARTLET
p1216
sg10
g11
sa(dp1217
g6
VThree million.
p1218
sg8
VBARTLET
p1219
sg10
g11
sa(dp1220
g6
VFive million.
p1221
sg8
VBARTLET
p1222
sg10
g11
sa(dp1223
g6
VThat's 13 million American children.
p1224
sg8
VBARTLET
p1225
sg10
g11
sa(dp1226
g6
V3.5 million kids go to schools that are literally falling apart. We need 127 billion in school construction, and we need it today!
p1227
sg8
VBARTLET
p1228
sg10
g11
sa(dp1229
g6
VYes.
p1230
sg8
VBARTLET
p1231
sg10
g15
sa(dp1232
g6
VMr. President, it's time.
p1233
sg8
VCHARLIE
p1234
sg10
g11
sa(dp1235
g6
VAnd he'll be speaking to that just as soon as he gets here. [Reporters clamoring.] Uh, Frank, then Leslie.
p1236
sg8
VC.J.
p1237
sg10
g11
sa(dp1238
g6
VHas there been any discussion of a Special Prosecutor?
p1239
sg8
VFRANK
p1240
sg10
g11
sa(dp1241
g6
VTomorrow morning, the President will direct the Attorney General appoint a Special Prosecutor, yes. [Reporters clamor.] I can't see. Joan!
p1242
sg8
VC.J.
p1243
sg10
g11
sa(dp1244
g6
VA list of three prosecutors is given to a three-judge panel. The prosecutors, as well as the judges, were all appointed by Republican presidents.
p1245
sg8
VC.J.
p1246
sg10
g11
sa(dp1247
g6
VPlease, I can only answer 14 or 15 questions at once. Hal!
p1248
sg8
VC.J.
p1249
sg10
g11
sa(dp1250
g6
VI can't comment on a witness list that doesn't exist, but I imagine subpoenas will be issued to most Senior White House Staff including myself.
p1251
sg8
VC.J.
p1252
sg10
g11
sa(dp1253
g6
VAgain, I can't comment on what kind of hearings Congress has in mind. I'm sure there'll be one but you'd have to talk to Congress.
p1254
sg8
VC.J.
p1255
sg10
g11
sa(dp1256
g6
VOkay, here now, the President of the United States.
p1257
sg8
VC.J.
p1258
sg10
g11
sa(dp1259
g6
V[quietly] First row on your right.
p1260
sg8
VC.J.
p1261
sg10
g11
sa(dp1262
g6
VYes, Sandy.
p1263
sg8
VBARTLET
p1264
sg10
g15
sa(dp1265
g6
VMr. President, can you tell us right now if you'll be seeking a second term?
p1266
sg8
VSANDY
p1267
sg10
g11
sa(dp1268
g6
VI'm sorry, Sandy, there was a bit of noise there, could you repeat the question?
p1269
sg8
VBARTLET
p1270
sg10
g11
sa(dp1271
g6
VCan you tell us right now if you'll be seeking a second term?
p1272
sg8
VSANDY
p1273
sg10
g11
sa(dp1274
g6
VWatch this...
p1275
sg8
VLEO
p1276
sg10
g67
sas.