(dp0
S'season'
p1
I2
sS'episode'
p2
I7
sS'script'
p3
(lp4
(dp5
S'text'
p6
VHe wants to meet with me on the way back?
p7
sS'character'
p8
VBARTLET
p9
sS'maxent_score'
p10
S'neutral'
p11
sa(dp12
g6
VYes, sir.
p13
sg8
VCHARLIE
p14
sg10
S'positive'
p15
sa(dp16
g6
VOn the way back?
p17
sg8
VBARTLET
p18
sg10
g11
sa(dp19
g6
VYes, sir.
p20
sg8
VCHARLIE
p21
sg10
g15
sa(dp22
g6
VThe Assistant Energy Secretary is flying to Portland in the middle of the night so he can meet with me on Air Force One on the way back?
p23
sg8
VBARTLET
p24
sg10
g11
sa(dp25
g6
VYes, sir.
p26
sg8
VCHARLIE
p27
sg10
g15
sa(dp28
g6
VThe day-to-day experience of my life has changed in many ways since taking this job.
p29
sg8
VBARTLET
p30
sg10
g11
sa(dp31
g6
VI would imagine, sir.
p32
sg8
VCHARLIE
p33
sg10
g11
sa(dp34
g6
VBefore we get on the plane, let me give you a couple of additions to the passenger manifest. Gerald Wegland, the Assistant Energy Secretary, is now on the flight, as well as Mr. Latham, the head of The White House Military Office, or WHAMO, as we have apparently taken - over my strong objection - to calling it. [Reporters giggle.] Also, on this evening's trip are Deputy Communications Director Sam Seaborn and, well, me.
p35
sg8
VC.J.
p36
sg10
g11
sa(dp37
g6
VI thought you weren't going on the trip.
p38
sg8
VDANNY
p39
sg10
g11
sa(dp40
g6
VI am now going on the trip.
p41
sg8
VC.J.
p42
sg10
g11
sa(dp43
g6
VAre you being punished?
p44
sg8
VDANNY
p45
sg10
g11
sa(dp46
g6
VI'm not being punished, I'm going on the trip.
p47
sg8
VC.J.
p48
sg10
g11
sa(dp49
g6
VIf the whole bus goes off the record, will you tell us why you're going on the trip?
p50
sg8
VDANNY
p51
sg10
g11
sa(dp52
g6
V[watches everyone carefully] I made fun of Notre Dame.
p53
sg8
VC.J.
p54
sg10
g11
sa(dp55
g6
VOh! Aww! Man! No!
p56
sg8
VREPORTERS
p57
sg10
g11
sa(dp58
g6
VI usually get away with it!
p59
sg8
VC.J.
p60
sg10
g11
sa(dp61
g6
VThey're playing Michigan tomorrow.
p62
sg8
VKATIE
p63
sg10
g11
sa(dp64
g6
VI know that now.
p65
sg8
VC.J.
p66
sg10
g11
sa(dp67
g6
VYou can't bring that stuff when they're playing Michigan.
p68
sg8
VDANNY
p69
sg10
g11
sa(dp70
g6
VWell, I'll have a lot of time to think about that on the midnight ride to Portland, Danny. The wheels-up is 905. We'll touch down in Portland a little before midnight local time.
p71
sg8
VC.J.
p72
sg10
g11
sa(dp73
g6
VMr. President?
p74
sg8
VLEO
p75
sg10
g11
sa(dp76
g6
VHow're you doing?
p77
sg8
VBARTLET
p78
sg10
g15
sa(dp79
g6
VI just got off with Bruno and Hess.
p80
sg8
VLEO
p81
sg10
g11
sa(dp82
g6
VI'm sorry?
p83
sg8
VBARTLET
p84
sg10
g11
sa(dp85
g6
VI said I just got off with Bruno and Hess.
p86
sg8
VLEO
p87
sg10
g11
sa(dp88
g6
VYou didn't say 'Michigan sucks'?
p89
sg8
VBARTLET
p90
sg10
g11
sa(dp91
g6
VNo, sir.
p92
sg8
VLEO
p93
sg10
g11
sa(dp94
g6
VI thought you said 'Michigan sucks.'
p95
sg8
VBARTLET
p96
sg10
g11
sa(dp97
g6
VNo, sir. We're standing pretty close to the engines so it may have sounded like I said, 'Notre Dame is gonna get the ass-kicking they so richly deserve.' Bruno and Hess?
p98
sg8
VLEO
p99
sg10
g11
sa(dp100
g6
VYeah.
p101
sg8
VBARTLET
p102
sg10
g11
sa(dp103
g6
VWe stopped the tanker in the Gulf.
p104
sg8
VLEO
p105
sg10
g11
sa(dp106
g6
VWhose?
p107
sg8
VBARTLET
p108
sg10
g11
sa(dp109
g6
VIt's Cyprus-flagged but they tracked them coming out of Qais.
p110
sg8
VLEO
p111
sg10
g11
sa(dp112
g6
VYou think they've got oil?
p113
sg8
VBARTLET
p114
sg10
g11
sa(dp115
g6
VYeah.
p116
sg8
VLEO
p117
sg10
g11
sa(dp118
g6
VWe gonna board them?
p119
sg8
VBARTLET
p120
sg10
g11
sa(dp121
g6
VYeah.
p122
sg8
VLEO
p123
sg10
g11
sa(dp124
g6
VAnything else I should know?
p125
sg8
VBARTLET
p126
sg10
g11
sa(dp127
g6
VNo, sir.
p128
sg8
VLEO
p129
sg10
g11
sa(dp130
g6
VI'll see you tomorrow night.
p131
sg8
VBARTLET
p132
sg10
g15
sa(dp133
g6
VHave a good flight, Mr. President.
p134
sg8
VLEO
p135
sg10
g11
sa(dp136
g6
VThank you!
p137
sg8
VBARTLET
p138
sg10
g11
sa(dp139
g6
VHey, C.J.!
p140
sg8
VBARTLET
p141
sg10
g11
sa(dp142
g6
VGood evening, Mr. President.
p143
sg8
VC.J.
p144
sg10
g11
sa(dp145
g6
VI think it's great you decided to make the trip.
p146
sg8
VBARTLET
p147
sg10
g11
sa(dp148
g6
VI believe I was ordered to, Mr. President.
p149
sg8
VC.J.
p150
sg10
g11
sa(dp151
g6
VYes. I remember now. You made one of your funny, funny jokes.
p152
sg8
VBARTLET
p153
sg10
g11
sa(dp154
g6
VYes, sir.
p155
sg8
VC.J.
p156
sg10
g15
sa(dp157
g6
VPut it on.
p158
sg8
VBARTLET
p159
sg10
g11
sa(dp160
g6
VMr. President.
p161
sg8
VC.J.
p162
sg10
g11
sa(dp163
g6
VPut it on.
p164
sg8
VBARTLET
p165
sg10
g11
sa(dp166
g6
VSir, I'm wearing Max Mara. It's going to break up the...
p167
sg8
VC.J.
p168
sg10
g11
sa(dp169
g6
VPut it on!
p170
sg8
VBARTLET
p171
sg10
g11
sa(dp172
g6
VPlease let nobody see me like this.
p173
sg8
VC.J.
p174
sg10
S'negative'
p175
sa(dp176
g6
VHey, photo op.
p177
sg8
VBARTLET
p178
sg10
g11
sa(dp179
g6
VOh good god.
p180
sg8
VC.J.
p181
sg10
g11
sa(dp182
g6
VLet's hit the sky!
p183
sg8
VBARTLET
p184
sg10
g11
sa(dp185
g6
VDid he look tired?
p186
sg8
VJOSH
p187
sg10
g11
sa(dp188
g6
VNo, he looked fine.
p189
sg8
VLEO
p190
sg10
g11
sa(dp191
g6
VYou told him about the tanker?
p192
sg8
VJOSH
p193
sg10
g11
sa(dp194
g6
VYeah. I wish he'd cancel the event, it's a long flight.
p195
sg8
VLEO
p196
sg10
g11
sa(dp197
g6
VHe likes long flights, he gets to talk to everybody and think out loud.
p198
sg8
VJOSH
p199
sg10
g11
sa(dp200
g6
VYeah, but then he lands.
p201
sg8
VLEO
p202
sg10
g11
sa(dp203
g6
VYeah, so... well, then he lands. [beat] Anyway, I'm going to meet with Matt Skinner.
p204
sg8
VJOSH
p205
sg10
g11
sa(dp206
g6
VTonight?
p207
sg8
VLEO
p208
sg10
g11
sa(dp209
g6
VYeah.
p210
sg8
VJOSH
p211
sg10
g11
sa(dp212
g6
VHe's gonna say the language in the bill doesn't prohibit.
p213
sg8
VLEO
p214
sg10
g11
sa(dp215
g6
VYeah, but it creates a Federal Definition.
p216
sg8
VJOSH
p217
sg10
g11
sa(dp218
g6
VStill, at the State level...
p219
sg8
VLEO
p220
sg10
g11
sa(dp221
g6
VYeah. Are you sticking around tonight?
p222
sg8
VJOSH
p223
sg10
g11
sa(dp224
g6
VThe President's going to have to make a decision from the plane.
p225
sg8
VLEO
p226
sg10
g11
sa(dp227
g6
VOkay. I have to go. Donna is about to cease the phone.
p228
sg8
VJOSH
p229
sg10
g11
sa(dp230
g6
VAll right.
p231
sg8
VLEO
p232
sg10
g11
sa(dp233
g6
VLeo. He likes long plane rides.
p234
sg8
VJOSH
p235
sg10
g11
sa(dp236
g6
VYeah. Josh hangs up the phone.
p237
sg8
VLEO
p238
sg10
g11
sa(dp239
g6
VCan I have the electricity back on?
p240
sg8
VJOSH
p241
sg10
g11
sa(dp242
g6
VNo.
p243
sg8
VDONNA
p244
sg10
g11
sa(dp245
g6
VWhy not?
p246
sg8
VJOSH
p247
sg10
g11
sa(dp248
g6
VIt's time to go.
p249
sg8
VDONNA
p250
sg10
g11
sa(dp251
g6
VNot for me. Matt Skinner's coming down from the Hill.
p252
sg8
VJOSH
p253
sg10
g11
sa(dp254
g6
V[turns to Josh] When did this happen?
p255
sg8
VDONNA
p256
sg10
g11
sa(dp257
g6
VTwo minutes ago. Did you have plans?
p258
sg8
VJOSH
p259
sg10
g11
sa(dp260
g6
VDid I have plans!
p261
sg8
VDONNA
p262
sg10
g11
sa(dp263
g6
VDid you?
p264
sg8
VJOSH
p265
sg10
g15
sa(dp266
g6
VLook at me!
p267
sg8
VDONNA
p268
sg10
g11
sa(dp269
g6
VHey, you look GOOD!
p270
sg8
VJOSH
p271
sg10
g11
sa(dp272
g6
VYes, I do!
p273
sg8
VDONNA
p274
sg10
g11
sa(dp275
g6
VYou weren't wearing that during the day today.
p276
sg8
VJOSH
p277
sg10
g11
sa(dp278
g6
VPity the girl who tries to get something past you, Josh.
p279
sg8
VDONNA
p280
sg10
g11
sa(dp281
g6
VDid you steal that dress?
p282
sg8
VJOSH
p283
sg10
g15
sa(dp284
g6
VI bought this dress.
p285
sg8
VDONNA
p286
sg10
g175
sa(dp287
g6
VBut you're returning it tomorrow.
p288
sg8
VJOSH
p289
sg10
g11
sa(dp290
g6
VYes, I am.
p291
sg8
VDONNA
p292
sg10
g15
sa(dp293
g6
VThat's stealing!
p294
sg8
VJOSH
p295
sg10
g11
sa(dp296
g6
VI'm giving it back.
p297
sg8
VDONNA
p298
sg10
g11
sa(dp299
g6
VAfter wearing it once.
p300
sg8
VJOSH
p301
sg10
g15
sa(dp302
g6
VThere's a word for this.
p303
sg8
VDONNA
p304
sg10
g11
sa(dp305
g6
VIt's "stealing"!
p306
sg8
VJOSH
p307
sg10
g11
sa(dp308
g6
V[puts on her coat] I'm a girl on a budget, Josh. I'm being thrifty.
p309
sg8
VDONNA
p310
sg10
g11
sa(dp311
g6
VAnd felonious. What are your plans?
p312
sg8
VJOSH
p313
sg10
g11
sa(dp314
g6
VLook...
p315
sg8
VDONNA
p316
sg10
g11
sa(dp317
g6
VWhat are your plans?
p318
sg8
VJOSH
p319
sg10
g11
sa(dp320
g6
VWe're having drinks, we're having dinner, we are going dancing, we are having dessert.
p321
sg8
VDONNA
p322
sg10
g11
sa(dp323
g6
VNo problem. You can do all those things except for the drinks, the dancing, and the dessert.
p324
sg8
VJOSH
p325
sg10
g11
sa(dp326
g6
VJosh...
p327
sg8
VDONNA
p328
sg10
g11
sa(dp329
g6
VI need you to be done with dinner in an hour and five minutes.
p330
sg8
VJOSH
p331
sg10
g11
sa(dp332
g6
V[shows him her dress again] Do you see what I'm wearing?
p333
sg8
VDONNA
p334
sg10
g11
sa(dp335
g6
VIf you wanna have sex, you'd better do it during dinner.
p336
sg8
VJOSH
p337
sg10
g11
sa(dp338
g6
V[walks closer to him] This is the guy, Josh. This is a great guy. His name is Todd.
p339
sg8
VDONNA
p340
sg10
g11
sa(dp341
g6
V[smiling goofily] You met him for five minutes at a party.
p342
sg8
VJOSH
p343
sg10
g11
sa(dp344
g6
VI got the good vibe.
p345
sg8
VDONNA
p346
sg10
g11
sa(dp347
g6
VOkay. [turns back to his office]
p348
sg8
VJOSH
p349
sg10
g11
sa(dp350
g6
VI have an excellent sense about these things!
p351
sg8
VDONNA
p352
sg10
g11
sa(dp353
g6
V[turns back, yelling] Actually, you have NO sense about these things! You have no vibe, you have terrible taste in men, and your desire to be coupled up will always and forever drown out any small sense of self or self-worth that you may have.
p354
sg8
VJOSH
p355
sg10
g11
sa(dp356
g6
V[as her smile fades and about to cry] You're a downer, you know that? I'm calling you Deputy Downer from now on!
p357
sg8
VDONNA
p358
sg10
g11
sa(dp359
g6
VBe back by the time I'm done with Skinner!
p360
sg8
VJOSH
p361
sg10
g11
sa(dp362
g6
VToby?
p363
sg8
VSAM
p364
sg10
g11
sa(dp365
g6
VLet me see it.
p366
sg8
VTOBY
p367
sg10
g11
sa(dp368
g6
VCould I talk to you a second?
p369
sg8
VSAM
p370
sg10
g11
sa(dp371
g6
VIs it done?
p372
sg8
VTOBY
p373
sg10
g11
sa(dp374
g6
VIt... it's not... it's not good. It's not going well.
p375
sg8
VSAM
p376
sg10
g11
sa(dp377
g6
VWe've had meetings...
p378
sg8
VTOBY
p379
sg10
g11
sa(dp380
g6
VYeah, Toby...
p381
sg8
VSAM
p382
sg10
g11
sa(dp383
g6
VFor the past three weeks!
p384
sg8
VTOBY
p385
sg10
g11
sa(dp386
g6
VI'm not confused about policy.
p387
sg8
VSAM
p388
sg10
g11
sa(dp389
g6
VWhat's the problem?
p390
sg8
VTOBY
p391
sg10
g11
sa(dp392
g6
VI'm not writing well. I'm just... I'd rather not distribute this to the pool yet.
p393
sg8
VSAM
p394
sg10
g11
sa(dp395
g6
VMr. Ziegler, Mr. Seaborn, do you know what you'd like for dinner?
p396
sg8
VSTEWARD
p397
sg10
g11
sa(dp398
g6
V[gets up] We'll be eating in the conference room. I'll have a club sandwich, Jack Daniels and ice.
p399
sg8
VTOBY
p400
sg10
g11
sa(dp401
g6
VMr. Seaborn?
p402
sg8
VSTEWARD
p403
sg10
g11
sa(dp404
g6
VNothing for me.
p405
sg8
VSAM
p406
sg10
g11
sa(dp407
g6
VYou have to have something.
p408
sg8
VTOBY
p409
sg10
g11
sa(dp410
g6
VI'm fine. [He looks horrible.]
p411
sg8
VSAM
p412
sg10
g11
sa(dp413
g6
V[to the steward] Bring him a club sandwich.
p414
sg8
VTOBY
p415
sg10
g11
sa(dp416
g6
VYes, sir.
p417
sg8
VSTEWARD
p418
sg10
g15
sa(dp419
g6
VNice hat.
p420
sg8
VTOBY
p421
sg10
g11
sa(dp422
g6
VShut up!
p423
sg8
VC.J.
p424
sg10
g11
sa(dp425
g6
V[beat] Sam and I are going to work for a little bit, you'll have draft copies to distribute to the press in about three hours.
p426
sg8
VTOBY
p427
sg10
g11
sa(dp428
g6
VIt was already distributed.
p429
sg8
VC.J.
p430
sg10
g11
sa(dp431
g6
VW-what do you mean?
p432
sg8
VSAM
p433
sg10
g15
sa(dp434
g6
VIt was already distributed.
p435
sg8
VC.J.
p436
sg10
g11
sa(dp437
g6
VYou have to get it back!
p438
sg8
VSAM
p439
sg10
g11
sa(dp440
g6
VI can't get it back.
p441
sg8
VC.J.
p442
sg10
g11
sa(dp443
g6
VC.J....
p444
sg8
VSAM
p445
sg10
g11
sa(dp446
g6
VThey know you're polishing it...
p447
sg8
VC.J.
p448
sg10
g11
sa(dp449
g6
VI'm doing more than polishing it, C.J., you've got to get it back!
p450
sg8
VSAM
p451
sg10
g11
sa(dp452
g6
VI'll tell them there's a new draft and then you should...
p453
sg8
VC.J.
p454
sg10
g11
sa(dp455
g6
VYou've got to get the old draft back!
p456
sg8
VSAM
p457
sg10
g11
sa(dp458
g6
VThey're not going to read it!
p459
sg8
VC.J.
p460
sg10
g11
sa(dp461
g6
VThey might.
p462
sg8
VSAM
p463
sg10
g11
sa(dp464
g6
VSo what?
p465
sg8
VC.J.
p466
sg10
g11
sa(dp467
g6
VIt's very bad writing and it's got my fingerprints all over it!
p468
sg8
VSAM
p469
sg10
g11
sa(dp470
g6
V[laughs] Sam!
p471
sg8
VC.J.
p472
sg10
g11
sa(dp473
g6
VC.J., try to get it back. [walks past them, to Sam] C'mon.
p474
sg8
VTOBY
p475
sg10
g11
sa(dp476
g6
VMs. Cregg, do you know what you'd like for dinner?
p477
sg8
VSTEWARD
p478
sg10
g11
sa(dp479
g6
V[pops up on extreme right, whispers] Try to get it back?
p480
sg8
VSAM
p481
sg10
g11
sa(dp482
g6
VUh... yeah.
p483
sg8
VC.J.
p484
sg10
g11
sa(dp485
g6
VMs. Cregg, you know what you'd like for dinner?
p486
sg8
VSTEWARD
p487
sg10
g11
sa(dp488
g6
V[walking] We've got pasta... salad?
p489
sg8
VC.J.
p490
sg10
g11
sa(dp491
g6
VIt's good.
p492
sg8
VSTEWARD
p493
sg10
g11
sa(dp494
g6
VI'll take it.
p495
sg8
VC.J.
p496
sg10
g15
sa(dp497
g6
VC.J.!
p498
sg8
VBARTLET
p499
sg10
g11
sa(dp500
g6
VMr. President.
p501
sg8
VC.J.
p502
sg10
g11
sa(dp503
g6
VWhat does the island of Qais mean to you?
p504
sg8
VBARTLET
p505
sg10
g11
sa(dp506
g6
V[rolls her eyes, walks by him] I know it's known as a rendezvous point for Iraqi oil smugglers.
p507
sg8
VC.J.
p508
sg10
g11
sa(dp509
g6
VAbout two hours ago we stopped a Cyprus-flagged ship called "The Nicosia." We believe it to be carrying petroleum products out of Iraq, in violation of UN sanctions.
p510
sg8
VBARTLET
p511
sg10
g11
sa(dp512
g6
VWhat do we do when that happens?
p513
sg8
VC.J.
p514
sg10
g11
sa(dp515
g6
VWe board the stip, we test a sample of the oil, we determine its point of origin and if it's black-market, the oil company gets fined.
p516
sg8
VBARTLET
p517
sg10
g11
sa(dp518
g6
VDon't they also get to sell the oil?
p519
sg8
VC.J.
p520
sg10
g11
sa(dp521
g6
VYes.
p522
sg8
VBARTLET
p523
sg10
g15
sa(dp524
g6
VDoesn't the profit of the sale exceed the fine?
p525
sg8
VC.J.
p526
sg10
g11
sa(dp527
g6
VIt dramatically exceeds the fine! So what do you think we should do?
p528
sg8
VBARTLET
p529
sg10
g11
sa(dp530
g6
VIf you're going to have sanctions, have sanctions. There should be genuine disincentive.
p531
sg8
VC.J.
p532
sg10
g11
sa(dp533
g6
VI agree. Charlie?
p534
sg8
VBARTLET
p535
sg10
g11
sa(dp536
g6
V[hands C.J. some papers] Here you go.
p537
sg8
VCHARLIE
p538
sg10
g11
sa(dp539
g6
VWhat's this?
p540
sg8
VC.J.
p541
sg10
g11
sa(dp542
g6
VThe lyrics to the Notre Dame fight song.
p543
sg8
VCHARLIE
p544
sg10
g11
sa(dp545
g6
VIt would please me if you would lead the press in a rendition as we pass over South Bend.
p546
sg8
VBARTLET
p547
sg10
g11
sa(dp548
g6
VYes, sir.
p549
sg8
VC.J.
p550
sg10
g15
sa(dp551
g6
VAll five verses, please.
p552
sg8
VBARTLET
p553
sg10
g11
sa(dp554
g6
V[clutches her fists] Go Irish!
p555
sg8
VC.J.
p556
sg10
g11
sa(dp557
g6
VYou bet your ass!
p558
sg8
VBARTLET
p559
sg10
g11
sa(dp560
g6
VYes, ma'am?
p561
sg8
VWAITER
p562
sg10
g15
sa(dp563
g6
VYes, could I have a chocolate chip muffin, a can of Fresca and a bag of ice, please?
p564
sg8
VAINSLEY
p565
sg10
g11
sa(dp566
g6
VWe don't have Fresca.
p567
sg8
VWAITER
p568
sg10
g175
sa(dp569
g6
VReally?
p570
sg8
VAINSLEY
p571
sg10
g11
sa(dp572
g6
VNo, ma'am.
p573
sg8
VWAITER
p574
sg10
g11
sa(dp575
g6
VYou should really have Fresca.
p576
sg8
VAINSLEY
p577
sg10
g11
sa(dp578
g6
VYes, ma'am.
p579
sg8
VWAITER
p580
sg10
g15
sa(dp581
g6
V[comes up to Ainsley] Ainsley!
p582
sg8
VLEO
p583
sg10
g11
sa(dp584
g6
VGood evening, Leo!
p585
sg8
VAINSLEY
p586
sg10
g11
sa(dp587
g6
VWhat's with the fan?
p588
sg8
VLEO
p589
sg10
g11
sa(dp590
g6
VI just went and got it from my apartment. [picks up food and they walk to exit]
p591
sg8
VAINSLEY
p592
sg10
g11
sa(dp593
g6
VIt's seventeen degrees outside.
p594
sg8
VLEO
p595
sg10
g11
sa(dp596
g6
VThen I should move my desk outside, because it's a hundred and three in my office.
p597
sg8
VAINSLEY
p598
sg10
g11
sa(dp599
g6
VThe heat's not working?
p600
sg8
VLEO
p601
sg10
g11
sa(dp602
g6
VNo, the heat's working great, I can vouch for that personally.
p603
sg8
VAINSLEY
p604
sg10
g11
sa(dp605
g6
VOkay.
p606
sg8
VLEO
p607
sg10
g11
sa(dp608
g6
VYou should really have Fresca in the building!
p609
sg8
VAINSLEY
p610
sg10
g11
sa(dp611
g6
VHey, Matt.
p612
sg8
VJOSH
p613
sg10
g11
sa(dp614
g6
VYou let Donna out? [They shake hands.]
p615
sg8
VSKINNER
p616
sg10
g11
sa(dp617
g6
VTemporarily. She's having dinner.
p618
sg8
VJOSH
p619
sg10
g11
sa(dp620
g6
VOh, with who?
p621
sg8
VSKINNER
p622
sg10
g11
sa(dp623
g6
VI guy she has no future with.
p624
sg8
VJOSH
p625
sg10
g11
sa(dp626
g6
VWhy no future?
p627
sg8
VSKINNER
p628
sg10
g11
sa(dp629
g6
VBecause I say so. You want some coffee or something?
p630
sg8
VJOSH
p631
sg10
g11
sa(dp632
g6
VUh... you got a beer?
p633
sg8
VSKINNER
p634
sg10
g11
sa(dp635
g6
VYeah. [gets two bottles from the refrigerator] It's too bad this is going to be rushed.
p636
sg8
VJOSH
p637
sg10
g11
sa(dp638
g6
VSorry?
p639
sg8
VSKINNER
p640
sg10
g11
sa(dp641
g6
VIt's too bad we're talking about this for the first time right now.
p642
sg8
VJOSH
p643
sg10
g11
sa(dp644
g6
VI would have thought that was by design.
p645
sg8
VSKINNER
p646
sg10
g11
sa(dp647
g6
VReally?
p648
sg8
VJOSH
p649
sg10
g11
sa(dp650
g6
VTen days are up tomorrow.
p651
sg8
VSKINNER
p652
sg10
g11
sa(dp653
g6
VWe know.
p654
sg8
VJOSH
p655
sg10
g11
sa(dp656
g6
VWe know you know. [Josh and Skinner sit down.] Josh, the language doesn't prohibit same-sex marriage.
p657
sg8
VSKINNER
p658
sg10
g11
sa(dp659
g6
VOf course it does.
p660
sg8
VJOSH
p661
sg10
g11
sa(dp662
g6
VIt ensures that, for the purposes of Federal programs...
p663
sg8
VSKINNER
p664
sg10
g11
sa(dp665
g6
VThat government will define marriage as a union between a man and a woman.
p666
sg8
VJOSH
p667
sg10
g11
sa(dp668
g6
VThat's right, while doing nothing to prohibit gay marriage on a state level.
p669
sg8
VSKINNER
p670
sg10
g11
sa(dp671
g6
VWhile doing nothing to prohibit it?
p672
sg8
VJOSH
p673
sg10
g11
sa(dp674
g6
VIf you look at the language...
p675
sg8
VSKINNER
p676
sg10
g11
sa(dp677
g6
VMatt.
p678
sg8
VJOSH
p679
sg10
g11
sa(dp680
g6
VYeah?
p681
sg8
VSKINNER
p682
sg10
g11
sa(dp683
g6
VWhen this bill was being discussed on the floor, there were some very ugly things said about homosexuals.
p684
sg8
VJOSH
p685
sg10
g11
sa(dp686
g6
VYes.
p687
sg8
VSKINNER
p688
sg10
g15
sa(dp689
g6
VThey were said by members of your own party. In fact, they were said by one of the guys who escorted you here tonight, who's sitting out in the lobby.
p690
sg8
VJOSH
p691
sg10
g11
sa(dp692
g6
VYes, they were.
p693
sg8
VSKINNER
p694
sg10
g11
sa(dp695
g6
VYou support this bill?
p696
sg8
VJOSH
p697
sg10
g11
sa(dp698
g6
VYes, I do.
p699
sg8
VSKINNER
p700
sg10
g15
sa(dp701
g6
VCongressman... you're gay!
p702
sg8
VJOSH
p703
sg10
g11
sa(dp704
g6
VYes, I am.
p705
sg8
VSKINNER
p706
sg10
g15
sa(dp707
g6
VWhat's going on, Mark?
p708
sg8
VLEO
p709
sg10
g11
sa(dp710
g6
VOh, man.
p711
sg8
VLEO
p712
sg10
g11
sa(dp713
g6
VCH-47 Seahawk helicopter was dispatched from the destroyer 'USS Monterey.' The copter tried to land, but seamen obstructed the deck with freight.
p714
sg8
VMARK
p715
sg10
g11
sa(dp716
g6
VWhat else did they obstruct the deck with?
p717
sg8
VLEO
p718
sg10
g11
sa(dp719
g6
VThey fired warning shots.
p720
sg8
VMARK
p721
sg10
g11
sa(dp722
g6
VFrom what?
p723
sg8
VLEO
p724
sg10
g11
sa(dp725
g6
VRussian-made Kalashnikovs.
p726
sg8
VMARK
p727
sg10
g11
sa(dp728
g6
VAK-47s.
p729
sg8
VLEO
p730
sg10
g11
sa(dp731
g6
VYes, at which point the Seahawk retreated to its carrier group.
p732
sg8
VMARK
p733
sg10
g11
sa(dp734
g6
VWhere are we now?
p735
sg8
VLEO
p736
sg10
g11
sa(dp737
g6
VCentral Command's going to have two F-18s buzz the ship, fire warning shots over the bow.
p738
sg8
VMARK
p739
sg10
g11
sa(dp740
g6
VThere's no way this ends well. In fact, its' already over.
p741
sg8
VLEO
p742
sg10
g11
sa(dp743
g6
VIt's not over yet.
p744
sg8
VMARK
p745
sg10
g15
sa(dp746
g6
VTrust me. I'll call the President. [walks out]
p747
sg8
VLEO
p748
sg10
g11
sa(dp749
g6
VYeah?
p750
sg8
VLEO
p751
sg10
g11
sa(dp752
g6
VYou have a phone call.
p753
sg8
VMARGARET
p754
sg10
g11
sa(dp755
g6
VFrom whom?
p756
sg8
VLEO
p757
sg10
g11
sa(dp758
g6
VCan I just say that all I meant before was that if I was married and got divorced and my divorce papers came and I was an alcoholic, I would want to be...
p759
sg8
VMARGARET
p760
sg10
g11
sa(dp761
g6
VWho's on the phone?
p762
sg8
VLEO
p763
sg10
g11
sa(dp764
g6
VThe President.
p765
sg8
VMARGARET
p766
sg10
g11
sa(dp767
g6
V[gives her a glare, picking up phone quickly] Yes, sir?
p768
sg8
VLEO
p769
sg10
g11
sa(dp770
g6
VI'm sorry, sir?
p771
sg8
VLEO
p772
sg10
g11
sa(dp773
g6
VWhat are we trying to do?
p774
sg8
VBARTLET
p775
sg10
g11
sa(dp776
g6
VWe're trying to seize the ship and escort it to Bahrain.
p777
sg8
VLEO
p778
sg10
g11
sa(dp779
g6
VAll right. The F-18 pilots?
p780
sg8
VBARTLET
p781
sg10
g11
sa(dp782
g6
VThey fire warning shots, maybe take out the propeller...
p783
sg8
VLEO
p784
sg10
g11
sa(dp785
g6
VLeo, just so they know--it's a tanker full of crude oil. If they miss the propeller and hit something else---
p786
sg8
VBARTLET
p787
sg10
g11
sa(dp788
g6
VThey know. Excuse me, Mr. President. [whispering to Margaret] Would you stop looking at me like that?
p789
sg8
VLEO
p790
sg10
g11
sa(dp791
g6
VWhat was that?
p792
sg8
VBARTLET
p793
sg10
g11
sa(dp794
g6
VMargaret was giving me a look.
p795
sg8
VLEO
p796
sg10
g11
sa(dp797
g6
VWhy?
p798
sg8
VBARTLET
p799
sg10
g11
sa(dp800
g6
VMy divorce papers came today. She thinks I'm going to drink
p801
sg8
VLEO
p802
sg10
g11
sa(dp803
g6
VI didn't know that.
p804
sg8
VBARTLET
p805
sg10
g11
sa(dp806
g6
VDon't worry about it, Mr. President. I'll keep you posted.
p807
sg8
VLEO
p808
sg10
g11
sa(dp809
g6
VOkay. Why don't I have a final draft of tomorrow morning's...?
p810
sg8
VBARTLET
p811
sg10
g11
sa(dp812
g6
VToby and Sam are working on it.
p813
sg8
VLEO
p814
sg10
g11
sa(dp815
g6
VWhat's wrong with it?
p816
sg8
VBARTLET
p817
sg10
g11
sa(dp818
g6
VSam doesn't like the writing.
p819
sg8
VLEO
p820
sg10
g11
sa(dp821
g6
VSam wrote it.
p822
sg8
VBARTLET
p823
sg10
g11
sa(dp824
g6
VHe's taking another swing.
p825
sg8
VLEO
p826
sg10
g11
sa(dp827
g6
VAll right. [hangs up]
p828
sg8
VBARTLET
p829
sg10
g175
sa(dp830
g6
VRead it to me.
p831
sg8
VTOBY
p832
sg10
g11
sa(dp833
g6
V[reading] 'I'm calling on all Americans, young and old, Democrat and Republican, or none of the above, to make education a national priority.'
p834
sg8
VSAM
p835
sg10
g11
sa(dp836
g6
VOkay.
p837
sg8
VTOBY
p838
sg10
g11
sa(dp839
g6
V[sighing] "None of the above." It's a pedestrian phrase and has no place. [crosses it out]
p840
sg8
VSAM
p841
sg10
g11
sa(dp842
g6
VYeah.
p843
sg8
VTOBY
p844
sg10
g11
sa(dp845
g6
VAlso when was education not a national priority before?
p846
sg8
VSAM
p847
sg10
g11
sa(dp848
g6
VRight. [clearing throat] It's an easy fix. All we need to do is...
p849
sg8
VTOBY
p850
sg10
g11
sa(dp851
g6
VNo.
p852
sg8
VSAM
p853
sg10
g11
sa(dp854
g6
VNo what?
p855
sg8
VTOBY
p856
sg10
g11
sa(dp857
g6
VNo, it's not an easy fix.
p858
sg8
VSAM
p859
sg10
g11
sa(dp860
g6
VSam?
p861
sg8
VTOBY
p862
sg10
g11
sa(dp863
g6
VThis should...
p864
sg8
VSAM
p865
sg10
g11
sa(dp866
g6
VYeah?
p867
sg8
VTOBY
p868
sg10
g11
sa(dp869
g6
VOratory should raise your heart rate. Oratory should blow the doors off the place. We should be talking about not being satisfied with past solutions, we should be talking about a permanent revolution.
p870
sg8
VSAM
p871
sg10
g11
sa(dp872
g6
V[pausing and thinking] Where have I heard that?
p873
sg8
VTOBY
p874
sg10
g11
sa(dp875
g6
VPermanent revolution?
p876
sg8
VSAM
p877
sg10
g11
sa(dp878
g6
VYeah.
p879
sg8
VTOBY
p880
sg10
g11
sa(dp881
g6
V[darkly] I got it from a book.
p882
sg8
VSAM
p883
sg10
g11
sa(dp884
g6
VWhat book?
p885
sg8
VTOBY
p886
sg10
g11
sa(dp887
g6
VThe Little Red Book.
p888
sg8
VSAM
p889
sg10
g11
sa(dp890
g6
VYou think we should quote Mao Tse-tung?
p891
sg8
VTOBY
p892
sg10
g11
sa(dp893
g6
VWe do need a permanent revolution.
p894
sg8
VSAM
p895
sg10
g11
sa(dp896
g6
VStill, I think we'll stay away from quoting Communists.
p897
sg8
VTOBY
p898
sg10
g11
sa(dp899
g6
VYou think a Communist never wrote an elegant phrase?
p900
sg8
VSAM
p901
sg10
g11
sa(dp902
g6
VSam...
p903
sg8
VTOBY
p904
sg10
g11
sa(dp905
g6
VHow do you think they got every to be Communist?
p906
sg8
VSAM
p907
sg10
g11
sa(dp908
g6
V[sighing] Let's take a walk.
p909
sg8
VTOBY
p910
sg10
g11
sa(dp911
g6
VToby, you're the one for the last six months who's been saying we need a radical approach...
p912
sg8
VSAM
p913
sg10
g11
sa(dp914
g6
V[raising his voice] Yes, yes I have, and I got shouted down in every meeting! I'd love to write a speech about a radical new approach to education, but we don't have one! So unless we can come up with an idea and implement it before land in Portland, I'd prefer not to paint a picture in the interest of great oratory. [sighs] Let's take a walk.
p915
sg8
VTOBY
p916
sg10
g11
sa(dp917
g6
VCan't great oratory inspire an idea that can be implemented?
p918
sg8
VSAM
p919
sg10
g11
sa(dp920
g6
VWe had six months. We're not doing it half-assed, we're not doing it tonight. Let's go.
p921
sg8
VTOBY
p922
sg10
g11
sa(dp923
g6
VWhere?
p924
sg8
VSAM
p925
sg10
g11
sa(dp926
g6
VUp and down the plane, get the blood flowing.
p927
sg8
VTOBY
p928
sg10
g11
sa(dp929
g6
VMao knew how to get the blood flowing.
p930
sg8
VSAM
p931
sg10
g11
sa(dp932
g6
VLet's go.
p933
sg8
VTOBY
p934
sg10
g11
sa(dp935
g6
VHey, Donna.
p936
sg8
VLEO
p937
sg10
g11
sa(dp938
g6
VGood evening.
p939
sg8
VDONNA
p940
sg10
g11
sa(dp941
g6
VThat's a nice dress.
p942
sg8
VLEO
p943
sg10
g11
sa(dp944
g6
VThank you, sir.
p945
sg8
VDONNA
p946
sg10
g15
sa(dp947
g6
VYou weren't wearing that dress earlier today, were you?
p948
sg8
VLEO
p949
sg10
g11
sa(dp950
g6
VYou guys are sharp as tacks, you know that?
p951
sg8
VDONNA
p952
sg10
g11
sa(dp953
g6
VDid you have a date?
p954
sg8
VLEO
p955
sg10
g11
sa(dp956
g6
VYeah.
p957
sg8
VDONNA
p958
sg10
g11
sa(dp959
g6
VWith who?
p960
sg8
VLEO
p961
sg10
g11
sa(dp962
g6
VIt doesn't matter.
p963
sg8
VDONNA
p964
sg10
g11
sa(dp965
g6
VWhere'd ya eat?
p966
sg8
VLEO
p967
sg10
g11
sa(dp968
g6
VPhoebe's.
p969
sg8
VDONNA
p970
sg10
g11
sa(dp971
g6
VAh, good. You know what you get there? Tell Dario, the chef, that you work for me and that you want flash-seared escolar with foie gras butter and a fresh juniper berry gravlax on a bed of shaved fennel. You have a nice '87 Petrus with that. [beat] What did you have?
p972
sg8
VLEO
p973
sg10
g11
sa(dp974
g6
VTwo whiskey sours and a bowl of soup.
p975
sg8
VDONNA
p976
sg10
g11
sa(dp977
g6
VAh, okay.
p978
sg8
VLEO
p979
sg10
g11
sa(dp980
g6
VI should tell Josh I'm back.
p981
sg8
VDONNA
p982
sg10
g11
sa(dp983
g6
VHe's in the mess.
p984
sg8
VLEO
p985
sg10
g11
sa(dp986
g6
VThanks. Hey, Leo. I hope you don't mind. [clears throat] Margaret mentioned that your divorce...
p987
sg8
VDONNA
p988
sg10
g11
sa(dp989
g6
VOh, come on.
p990
sg8
VLEO
p991
sg10
g11
sa(dp992
g6
VShe mentioned the papers came today...
p993
sg8
VDONNA
p994
sg10
g11
sa(dp995
g6
VYeah.
p996
sg8
VLEO
p997
sg10
g11
sa(dp998
g6
VAnd she was worried that maybe...
p999
sg8
VDONNA
p1000
sg10
g11
sa(dp1001
g6
VMargaret worries if the sun is gonna rise. Go check in with Josh.
p1002
sg8
VLEO
p1003
sg10
g11
sa(dp1004
g6
VOkay. He's in the mess?
p1005
sg8
VDONNA
p1006
sg10
g11
sa(dp1007
g6
VYeah.
p1008
sg8
VLEO
p1009
sg10
g11
sa(dp1010
g6
VIt passed.
p1011
sg8
VSKINNER
p1012
sg10
g11
sa(dp1013
g6
VI know.
p1014
sg8
VJOSH
p1015
sg10
g11
sa(dp1016
g6
VIt passed the Senate...
p1017
sg8
VSKINNER
p1018
sg10
g11
sa(dp1019
g6
VI know, man.
p1020
sg8
VJOSH
p1021
sg10
g11
sa(dp1022
g6
VWith 85 votes. 29 Democrats voted for it. It passed the House with 342 votes. Our polling numbers are the same as yours. 60% of Americans oppose legally sanctioned gay marriage. The people want the bill. Congress wants the bill. The President needs to sign the bill.
p1023
sg8
VSKINNER
p1024
sg10
g11
sa(dp1025
g6
VPublic opinion can be wrong, Matt. The public opposed interracial marriage and school integration. You want me to reach back into the nostalgia file?
p1026
sg8
VJOSH
p1027
sg10
g11
sa(dp1028
g6
VThat's entirely different.
p1029
sg8
VSKINNER
p1030
sg10
g11
sa(dp1031
g6
V[exasperated] How's it different?
p1032
sg8
VJOSH
p1033
sg10
g11
sa(dp1034
g6
VThe government has a responsibility to protect the rights of minorities, but it can't impose the minority's values on the majority.
p1035
sg8
VSKINNER
p1036
sg10
g11
sa(dp1037
g6
VFreedom of choice isn't a minority value just because the majority doesn't agree with the minority's choice.
p1038
sg8
VJOSH
p1039
sg10
g11
sa(dp1040
g6
V[enters] Excuse me.
p1041
sg8
VDONNA
p1042
sg10
g11
sa(dp1043
g6
VHey.
p1044
sg8
VJOSH
p1045
sg10
g11
sa(dp1046
g6
VI'm back.
p1047
sg8
VDONNA
p1048
sg10
g11
sa(dp1049
g6
VHey, Donna.
p1050
sg8
VSKINNER
p1051
sg10
g11
sa(dp1052
g6
VHey, Congressman.
p1053
sg8
VDONNA
p1054
sg10
g11
sa(dp1055
g6
VHow was your date?
p1056
sg8
VSKINNER
p1057
sg10
g11
sa(dp1058
g6
VUh, it was good. Josh, I'll be around.
p1059
sg8
VDONNA
p1060
sg10
g11
sa(dp1061
g6
VThanks.
p1062
sg8
VJOSH
p1063
sg10
g11
sa(dp1064
g6
VJosh, all the Marriage Recognition Act does is ensure that a radical social agenda isn't thrust upon an entire country that isn't ready for it yet.
p1065
sg8
VSKINNER
p1066
sg10
g11
sa(dp1067
g6
V32 States have passed laws banning same-sex marriage. The States are doing a fine job protecting themselves from a radical social agenda without a federal shield.
p1068
sg8
VJOSH
p1069
sg10
g11
sa(dp1070
g6
VJosh...
p1071
sg8
VSKINNER
p1072
sg10
g11
sa(dp1073
g6
VI like you guys who want to reduce the size of government and make it just small enough so it can fit in our bedrooms!
p1074
sg8
VJOSH
p1075
sg10
g11
sa(dp1076
g6
VWhen do you have to call the President?
p1077
sg8
VSKINNER
p1078
sg10
g11
sa(dp1079
g6
V[glancing at his watch] I got time.
p1080
sg8
VJOSH
p1081
sg10
g11
sa(dp1082
g6
V[loosening his tie] Let's have another beer.
p1083
sg8
VSKINNER
p1084
sg10
g11
sa(dp1085
g6
VHow's everybody doing?
p1086
sg8
VC.J.
p1087
sg10
g11
sa(dp1088
g6
VC.J., why'd the flight take off so late?
p1089
sg8
VSTEVE
p1090
sg10
g11
sa(dp1091
g6
VWe took off on time.
p1092
sg8
VC.J.
p1093
sg10
g11
sa(dp1094
g6
VNo, I mean why was it scheduled late? I'm doing a side-bar.
p1095
sg8
VSTEVE
p1096
sg10
g11
sa(dp1097
g6
VI'm not sure. The President had a budget meeting earlier, maybe they were expecting it to run long, I'll find out. Listen, I'd like you to give me back the draft copies of the morning education speech. We're going to replace them.
p1098
sg8
VC.J.
p1099
sg10
g11
sa(dp1100
g6
VWhy the change?
p1101
sg8
VREPORTER
p1102
sg10
g11
sa(dp1103
g6
VToby and Sam are doing some work.
p1104
sg8
VC.J.
p1105
sg10
g11
sa(dp1106
g6
VIs there a policy shift?
p1107
sg8
VSTEVE
p1108
sg10
g11
sa(dp1109
g6
VNo.
p1110
sg8
VC.J..
p1111
sg10
g11
sa(dp1112
g6
VA new program?
p1113
sg8
VSTEVE
p1114
sg10
g15
sa(dp1115
g6
VThey're just polishing the language.
p1116
sg8
VC.J.
p1117
sg10
g11
sa(dp1118
g6
VWell, C.J., if there's a policy shift or a new program, it'd help to have the old text to compare it with...
p1119
sg8
VSTEVE
p1120
sg10
g11
sa(dp1121
g6
VThere isn't a policy shift, there isn't a new program, this is Sam being Sam.
p1122
sg8
VC.J.
p1123
sg10
g11
sa(dp1124
g6
VHas political pressure from the NEA forced changes in the...
p1125
sg8
VREPORTER
p1126
sg10
g11
sa(dp1127
g6
VNothing's forced changes in the speech, there are no policy shifts and no new initiatives, I guarantee you. Carol?
p1128
sg8
VC.J.
p1129
sg10
g11
sa(dp1130
g6
VYeah.
p1131
sg8
VCAROL
p1132
sg10
g11
sa(dp1133
g6
V[leaving with Charlie] Excuse me.
p1134
sg8
VC.J.
p1135
sg10
g15
sa(dp1136
g6
VGuys, they're in your press packets, if you could just hand them forward...
p1137
sg8
VCAROL
p1138
sg10
g11
sa(dp1139
g6
VHe wanted me to tell you that we're approaching South Bend and that he likes to hear the song at a brisk and steady tempo.
p1140
sg8
VCHARLIE
p1141
sg10
g11
sa(dp1142
g6
V[staring at Charlie] Oh, kill me now!
p1143
sg8
VC.J.
p1144
sg10
g11
sa(dp1145
g6
VLeo.
p1146
sg8
VMARGARET
p1147
sg10
g11
sa(dp1148
g6
V[motions her to wait a second] Yeah?
p1149
sg8
VLEO
p1150
sg10
g11
sa(dp1151
g6
VColonel Chase.
p1152
sg8
VMARGARET
p1153
sg10
g11
sa(dp1154
g6
V[as Mark enters] Mark, tell me we didn't hit anything.
p1155
sg8
VLEO
p1156
sg10
g11
sa(dp1157
g6
VNo, F-18s fired over the bow and the tanker stopped.
p1158
sg8
VMARK
p1159
sg10
g11
sa(dp1160
g6
VWe boarded?
p1161
sg8
VLEO
p1162
sg10
g11
sa(dp1163
g6
VYeah, but the crew threw the log and the registry overboard.
p1164
sg8
VMARK
p1165
sg10
g11
sa(dp1166
g6
VMark!
p1167
sg8
VLEO
p1168
sg10
g11
sa(dp1169
g6
VAlso the ship's manifest.
p1170
sg8
VMARK
p1171
sg10
g11
sa(dp1172
g6
VHow do these people think this is going to end? What is their best-case scenario?
p1173
sg8
VLEO
p1174
sg10
g11
sa(dp1175
g6
VI just go where you point me. I'm going to have to brief Fitzwallace now.
p1176
sg8
VMARK
p1177
sg10
g11
sa(dp1178
g6
VYeah, thanks, Mark.
p1179
sg8
VLEO
p1180
sg10
g11
sa(dp1181
g6
VMargaret!
p1182
sg8
VLEO
p1183
sg10
g11
sa(dp1184
g6
V[entering] Yeah?
p1185
sg8
VMARGARET
p1186
sg10
g11
sa(dp1187
g6
VCan you get me Secretaries Hutchinson and Berryhill?
p1188
sg8
VLEO
p1189
sg10
g11
sa(dp1190
g6
VYeah.
p1191
sg8
VMARGARET
p1192
sg10
g11
sa(dp1193
g6
VAnd I need Air Force One the next free minute he's got, okay?
p1194
sg8
VLEO
p1195
sg10
g11
sa(dp1196
g6
VYeah.
p1197
sg8
VMARGARET
p1198
sg10
g11
sa(dp1199
g6
VThat's usually pretty hard to get through Congress.
p1200
sg8
VSTEVE
p1201
sg10
g11
sa(dp1202
g6
VWhy?
p1203
sg8
VBARTLET
p1204
sg10
g11
sa(dp1205
g6
VSubway money.
p1206
sg8
VSTEVE
p1207
sg10
g11
sa(dp1208
g6
VIt's a northeastern thing?
p1209
sg8
VBARTLET
p1210
sg10
g11
sa(dp1211
g6
VOnce you get south of DC or west of Chicago, there aren't any subways, and the ones they've got, nobody's using.
p1212
sg8
VSTEVE
p1213
sg10
g11
sa(dp1214
g6
VWhat about Miami and San Francisco?
p1215
sg8
VBARTLET
p1216
sg10
g11
sa(dp1217
g6
VCome in!
p1218
sg8
VBARTLET
p1219
sg10
g11
sa(dp1220
g6
VL.A., Miami, San Francisco, maybe someday, but nobody's using them now.
p1221
sg8
VSTEVE
p1222
sg10
g11
sa(dp1223
g6
VSo pavement's going to win this battle?
p1224
sg8
VBARTLET
p1225
sg10
g11
sa(dp1226
g6
VOkay, thanks, Steve.
p1227
sg8
VBARTLET
p1228
sg10
g11
sa(dp1229
g6
VThank you, Mr. President.
p1230
sg8
VSTEVE
p1231
sg10
g15
sa(dp1232
g6
VThank you.
p1233
sg8
VMIKE
p1234
sg10
g15
sa(dp1235
g6
VThank you, Mike.
p1236
sg8
VBARTLET
p1237
sg10
g15
sa(dp1238
g6
V[to C.J.] Nice hat.
p1239
sg8
VSTEVE
p1240
sg10
g11
sa(dp1241
g6
VThank you.
p1242
sg8
VC.J.
p1243
sg10
g15
sa(dp1244
g6
V[putting on jacket] Ernesto Perez Balladares, former President of Panama. You know where he went to school? Notre Dame.
p1245
sg8
VBARTLET
p1246
sg10
g11
sa(dp1247
g6
VYes, sir, also Joe Garagiola.
p1248
sg8
VC.J.
p1249
sg10
g15
sa(dp1250
g6
VWas that a crack?
p1251
sg8
VBARTLET
p1252
sg10
g11
sa(dp1253
g6
VNo, sir. I understand you'd like to hear the song now?
p1254
sg8
VC.J.
p1255
sg10
g11
sa(dp1256
g6
V[as he and C.J. walk out] Yeah, but we gotta do it later. The Tokyo Exchange just opened and I'm gonna gauge the impact on Pacific Rim Banking Reforms. A subject economics scholars could take years on, I will take 20 minutes.
p1257
sg8
VBARTLET
p1258
sg10
g11
sa(dp1259
g6
VSpeaking of which, Mr. President, I was asked about the late departure tonight.
p1260
sg8
VC.J.
p1261
sg10
g11
sa(dp1262
g6
VI thought we left on time.
p1263
sg8
VBARTLET
p1264
sg10
g11
sa(dp1265
g6
VThe late scheduled departure.
p1266
sg8
VC.J.
p1267
sg10
g11
sa(dp1268
g6
VYou don't like late flights?
p1269
sg8
VBARTLET
p1270
sg10
g11
sa(dp1271
g6
VNo, I was just repeating-
p1272
sg8
VC.J.
p1273
sg10
g11
sa(dp1274
g6
VA long flight across the night? You know why late flights are good? Because we cease to be earthbound and burdened with practicality. Ask the impertinent question. Talk about the idea nobody has thought about yet. [pointing to Sam] Put it a different way.
p1275
sg8
VBARTLET
p1276
sg10
g11
sa(dp1277
g6
VBe poets.
p1278
sg8
VSAM
p1279
sg10
g11
sa(dp1280
g6
VIf you absolutely must.
p1281
sg8
VBARTLET
p1282
sg10
g11
sa(dp1283
g6
VTell Toby.
p1284
sg8
VSAM
p1285
sg10
g11
sa(dp1286
g6
VSam...
p1287
sg8
VTOBY
p1288
sg10
g11
sa(dp1289
g6
VHe doesn't want to use the phrase "permanent revolution."
p1290
sg8
VSAM
p1291
sg10
g11
sa(dp1292
g6
VIn education?
p1293
sg8
VBARTLET
p1294
sg10
g11
sa(dp1295
g6
VYes.
p1296
sg8
VSAM
p1297
sg10
g15
sa(dp1298
g6
VMr. President...
p1299
sg8
VTOBY
p1300
sg10
g11
sa(dp1301
g6
VMao took a lot of long plane flights, Toby. Look out your window. Is there anything more romantic than that? [pointing out cabin window]
p1302
sg8
VBARTLET
p1303
sg10
g11
sa(dp1304
g6
VAnd that's why we left at 905?
p1305
sg8
VC.J.
p1306
sg10
g11
sa(dp1307
g6
VNo, we left at 905 because they thought my budget meeting might run over. But wouldn't that have been great if that was the reason?
p1308
sg8
VBARTLET
p1309
sg10
g11
sa(dp1310
g6
V[looking up] Yes.
p1311
sg8
VSAM
p1312
sg10
g11
sa(dp1313
g6
V[to Toby] You don't like "permanent revolution"?
p1314
sg8
VBARTLET
p1315
sg10
g11
sa(dp1316
g6
VIt's a nifty phrase, but I think if we call for a permanent revolution, people are, you know, gonna expect one.
p1317
sg8
VTOBY
p1318
sg10
g11
sa(dp1319
g6
V[holding phone] Mr. President?
p1320
sg8
VCHARLIE
p1321
sg10
g11
sa(dp1322
g6
VWe're flying, Toby. Live a little. [standing and walking to Charlie] Yeah?
p1323
sg8
VBARTLET
p1324
sg10
g11
sa(dp1325
g6
VMr. McGarry.
p1326
sg8
VCHARLIE
p1327
sg10
g11
sa(dp1328
g6
VOh, Leo, just take the damn boat...
p1329
sg8
VBARTLET
p1330
sg10
g11
sa(dp1331
g6
VHello?
p1332
sg8
VDONNA
p1333
sg10
g11
sa(dp1334
g6
VIs that C.J.?
p1335
sg8
VAINSLEY
p1336
sg10
g11
sa(dp1337
g6
V[opening door] No, it's Donna Moss.
p1338
sg8
VDONNA
p1339
sg10
g11
sa(dp1340
g6
VHi.
p1341
sg8
VAINSLEY
p1342
sg10
g11
sa(dp1343
g6
V[looks around the office] What happened?
p1344
sg8
VDONNA
p1345
sg10
g11
sa(dp1346
g6
VI cant't turn the heat down.
p1347
sg8
VAINSLEY
p1348
sg10
g11
sa(dp1349
g6
VDid you try?
p1350
sg8
VDONNA
p1351
sg10
g15
sa(dp1352
g6
VNo. I just looked at the thermostat and got frustrated.
p1353
sg8
VAINSLEY
p1354
sg10
g11
sa(dp1355
g6
V[in disbelief] Really.
p1356
sg8
VDONNA
p1357
sg10
g11
sa(dp1358
g6
VOf course, I tried! I could grow papayas in here.
p1359
sg8
VAINSLEY
p1360
sg10
g11
sa(dp1361
g6
VIt's a nice office.
p1362
sg8
VDONNA
p1363
sg10
g11
sa(dp1364
g6
VIt's the steam pipe distribution venue.
p1365
sg8
VAINSLEY
p1366
sg10
g11
sa(dp1367
g6
VIt's got character.
p1368
sg8
VDONNA
p1369
sg10
g11
sa(dp1370
g6
VI think I'm losing weight.
p1371
sg8
VAINSLEY
p1372
sg10
g11
sa(dp1373
g6
VWanna come work upstairs in the bullpen?
p1374
sg8
VDONNA
p1375
sg10
g11
sa(dp1376
g6
VI need to concentrate.
p1377
sg8
VAINSLEY
p1378
sg10
g11
sa(dp1379
g6
VNobody's here.
p1380
sg8
VDONNA
p1381
sg10
g11
sa(dp1382
g6
VNo, I'm fine.
p1383
sg8
VAINSLEY
p1384
sg10
g11
sa(dp1385
g6
VOkay. I just came down to say hi.
p1386
sg8
VDONNA
p1387
sg10
g11
sa(dp1388
g6
VAnd I'd talk but I just... I need to get this done.
p1389
sg8
VAINSLEY
p1390
sg10
g11
sa(dp1391
g6
VI'll leave you alone.
p1392
sg8
VDONNA
p1393
sg10
g15
sa(dp1394
g6
VThanks.
p1395
sg8
VAINSLEY
p1396
sg10
g11
sa(dp1397
g6
VWhat are you working on?
p1398
sg8
VDONNA
p1399
sg10
g11
sa(dp1400
g6
VI'm making notes for Josh.
p1401
sg8
VAINSLEY
p1402
sg10
g11
sa(dp1403
g6
VAh. [sits down]
p1404
sg8
VDONNA
p1405
sg10
g11
sa(dp1406
g6
VYeah.
p1407
sg8
VAINSLEY
p1408
sg10
g11
sa(dp1409
g6
VInteresting.
p1410
sg8
VDONNA
p1411
sg10
g11
sa(dp1412
g6
VYeah.
p1413
sg8
VAINSLEY
p1414
sg10
g11
sa(dp1415
g6
VThe Constitutional questions involved.
p1416
sg8
VDONNA
p1417
sg10
g11
sa(dp1418
g6
VYeah.
p1419
sg8
VAINSLEY
p1420
sg10
g11
sa(dp1421
g6
VFull faith and credit.
p1422
sg8
VDONNA
p1423
sg10
g11
sa(dp1424
g6
V[looks up from her computer] Right.
p1425
sg8
VAINSLEY
p1426
sg10
g11
sa(dp1427
g6
V[pauses] Do you and I look alike?
p1428
sg8
VDONNA
p1429
sg10
g11
sa(dp1430
g6
VI'm sorry?
p1431
sg8
VAINSLEY
p1432
sg10
g11
sa(dp1433
g6
VDo we look alike?
p1434
sg8
VDONNA
p1435
sg10
g11
sa(dp1436
g6
VNo.
p1437
sg8
VAINSLEY
p1438
sg10
g11
sa(dp1439
g6
VThat's what I thought. I didn't think we looked alike.
p1440
sg8
VDONNA
p1441
sg10
g11
sa(dp1442
g6
VYeah.
p1443
sg8
VAINSLEY
p1444
sg10
g11
sa(dp1445
g6
VHave you ever thought about dying your hair red?
p1446
sg8
VDONNA
p1447
sg10
g11
sa(dp1448
g6
VNo.
p1449
sg8
VAINSLEY
p1450
sg10
g11
sa(dp1451
g6
VYou should.
p1452
sg8
VDONNA
p1453
sg10
g11
sa(dp1454
g6
VWhy?
p1455
sg8
VAINSLEY
p1456
sg10
g11
sa(dp1457
g6
VIt'd look good.
p1458
sg8
VDONNA
p1459
sg10
g11
sa(dp1460
g6
VWe don't look alike.
p1461
sg8
VAINSLEY
p1462
sg10
g11
sa(dp1463
g6
VNo, and I tell people that. [pause] I'm going to work upstairs. [stands]
p1464
sg8
VDONNA
p1465
sg10
g11
sa(dp1466
g6
VI'll see you tomorrow.
p1467
sg8
VAINSLEY
p1468
sg10
g15
sa(dp1469
g6
VI think it's because of the alabaster skin and the farm girl looks that...
p1470
sg8
VDONNA
p1471
sg10
g11
sa(dp1472
g6
VYou're wigging out, Donna.
p1473
sg8
VAINSLEY
p1474
sg10
g11
sa(dp1475
g6
VYes. Are you sure you don't want to work upstairs?
p1476
sg8
VDONNA
p1477
sg10
g11
sa(dp1478
g6
VNo. It may be hot down here but at least it's quiet.
p1479
sg8
VAINSLEY
p1480
sg10
g11
sa(dp1481
g6
VOkay.
p1482
sg8
VAINSLEY
p1483
sg10
g11
sa(dp1484
g6
VBoy, I could use a Fresca.
p1485
sg8
VAINSLEY
p1486
sg10
g11
sa(dp1487
g6
VYou're going to quote the bible to me?
p1488
sg8
VJOSH
p1489
sg10
g11
sa(dp1490
g6
VI didn't...
p1491
sg8
VSKINNER
p1492
sg10
g11
sa(dp1493
g6
VReally?
p1494
sg8
VJOSH
p1495
sg10
g11
sa(dp1496
g6
VMy point was hat the founders based the country on Judeo-Christian morality...
p1497
sg8
VSKINNER
p1498
sg10
g11
sa(dp1499
g6
V[pacing] Matt...
p1500
sg8
VJOSH
p1501
sg10
g11
sa(dp1502
g6
V...and that the biblical concept of marriage maybe can't be separated from the law quite as easily as you'd like.
p1503
sg8
VSKINNER
p1504
sg10
g11
sa(dp1505
g6
VThe founding fathers made it very clear that they didn't want Judeo-Christian morality within 10 city blocks of the law. Matt! [pause]
p1506
sg8
VJOSH
p1507
sg10
g11
sa(dp1508
g6
VWhat?
p1509
sg8
VSKINNER
p1510
sg10
g11
sa(dp1511
g6
VWhat?
p1512
sg8
VSKINNER
p1513
sg10
g11
sa(dp1514
g6
VNothing. [sits] You understand that gay partners will be permanently ineligable for survivor benefits, Medicare, Medicaid....
p1515
sg8
VJOSH
p1516
sg10
g11
sa(dp1517
g6
VWhich the government can't afford to pay anyway.
p1518
sg8
VSKINNER
p1519
sg10
g11
sa(dp1520
g6
VSo we caught a break there. [sighs]
p1521
sg8
VJOSH
p1522
sg10
g11
sa(dp1523
g6
VIt's getting pretty late.
p1524
sg8
VSKINNER
p1525
sg10
g11
sa(dp1526
g6
VI had more notes.
p1527
sg8
VJOSH
p1528
sg10
g11
sa(dp1529
g6
VCarol?
p1530
sg8
VC.J.
p1531
sg10
g11
sa(dp1532
g6
VYeah?
p1533
sg8
VCAROL
p1534
sg10
g11
sa(dp1535
g6
VDid you get the old drafts back?
p1536
sg8
VC.J.
p1537
sg10
g11
sa(dp1538
g6
VOf the education speech?
p1539
sg8
VCAROL
p1540
sg10
g11
sa(dp1541
g6
VYeah.
p1542
sg8
VC.J.
p1543
sg10
g11
sa(dp1544
g6
VYeah.
p1545
sg8
VCAROL
p1546
sg10
g11
sa(dp1547
g6
VExcept Danny's.
p1548
sg8
VCAROL
p1549
sg10
g11
sa(dp1550
g6
V[turns back toward Carol] Excuse me?
p1551
sg8
VC.J.
p1552
sg10
g11
sa(dp1553
g6
VDanny wanted to keep his.
p1554
sg8
VCAROL
p1555
sg10
g11
sa(dp1556
g6
VExcuse me.
p1557
sg8
VC.J.
p1558
sg10
g11
sa(dp1559
g6
VWhat's the problem?
p1560
sg8
VC.J.
p1561
sg10
g11
sa(dp1562
g6
V[looks up at her from his seat] How ya doing?
p1563
sg8
VDANNY
p1564
sg10
g11
sa(dp1565
g6
VWhat's the problem, Danny?
p1566
sg8
VC.J.
p1567
sg10
g11
sa(dp1568
g6
VC.J., there's no earthly reason why I should give you that draft back and you know it. You can't even believe you're asking me for it. So unless you're going to give me a hot towel and some chocolate chip cookies, you better...
p1569
sg8
VDANNY
p1570
sg10
g11
sa(dp1571
g6
VEverybody else gave it back, Danny.
p1572
sg8
VC.J.
p1573
sg10
g11
sa(dp1574
g6
VThen everybody else can read my paper tomorrow.
p1575
sg8
VDANNY
p1576
sg10
g15
sa(dp1577
g6
V[looks up and addresses all the reporters] I'm guaranteeing you all no substantive changes, no new policy initiatives.
p1578
sg8
VC.J.
p1579
sg10
g11
sa(dp1580
g6
VYou don't have to guarantee me anything. I've got the old draft right here.
p1581
sg8
VDANNY
p1582
sg10
g11
sa(dp1583
g6
V[leans over and stage whispers to Danny] I certainly hope we don't accidentally send your luggage to Belgium on the way back. [walks away]
p1584
sg8
VC.J.
p1585
sg10
g11
sa(dp1586
g6
V[raising his voice] Yeah, I wouldn't want to find out what it's like to be inconvenianced by the White House!
p1587
sg8
VDANNY
p1588
sg10
g11
sa(dp1589
g6
VIt was the budget meeting, by the way.
p1590
sg8
VC.J.
p1591
sg10
g11
sa(dp1592
g6
VWhat's that?
p1593
sg8
VSTEVE
p1594
sg10
g11
sa(dp1595
g6
VThe reason we took off late. It was the budget meeting. Although there's something to be said for... [pause] something to be said for...
p1596
sg8
VC.J.
p1597
sg10
g11
sa(dp1598
g6
VSomething to be said for what?
p1599
sg8
VREPORTER
p1600
sg10
g11
sa(dp1601
g6
VNothing.
p1602
sg8
VC.J.
p1603
sg10
g11
sa(dp1604
g6
V[reading from speech] "I was raised to appreciate the value of teachers and teaching. My grandmother, who began her teaching career in a one-room schoolhouse..."
p1605
sg8
VTOBY
p1606
sg10
g11
sa(dp1607
g6
VActually, it was two rooms.
p1608
sg8
VBARTLET
p1609
sg10
g11
sa(dp1610
g6
VOkay.
p1611
sg8
VTOBY
p1612
sg10
g11
sa(dp1613
g6
VItalian stonecutters were paying her to teach their kids English in the basement of the rectory. They put up a wall and made it two rooms as a thank you gift.
p1614
sg8
VBARTLET
p1615
sg10
g11
sa(dp1616
g6
VWe'll change it to two rooms.
p1617
sg8
VTOBY
p1618
sg10
g11
sa(dp1619
g6
VI haven't heard the big idea yet.
p1620
sg8
VBARTLET
p1621
sg10
g11
sa(dp1622
g6
VSir, the speech is in pretty good shape.
p1623
sg8
VTOBY
p1624
sg10
g11
sa(dp1625
g6
VYeah. [reads from speech] "As you know, I began my campaign...'' [looks at Toby] What happened to 100,000 new teachers?
p1626
sg8
VBARTLET
p1627
sg10
g11
sa(dp1628
g6
VSir?
p1629
sg8
VTOBY
p1630
sg10
g11
sa(dp1631
g6
VNo money?
p1632
sg8
VBARTLET
p1633
sg10
g11
sa(dp1634
g6
VNo teachers.
p1635
sg8
VTOBY
p1636
sg10
g11
sa(dp1637
g6
VToby!
p1638
sg8
VBARTLET
p1639
sg10
g11
sa(dp1640
g6
VThere aren't a 100,000 new teachers. We can't make people be teachers.
p1641
sg8
VTOBY
p1642
sg10
g11
sa(dp1643
g6
VWe can give incentives.
p1644
sg8
VBARTLET
p1645
sg10
g11
sa(dp1646
g6
VIn certain public districts there are tax incentives...
p1647
sg8
VTOBY
p1648
sg10
g11
sa(dp1649
g6
VWell, it's not doing the trick.
p1650
sg8
VBARTLET
p1651
sg10
g11
sa(dp1652
g6
VNo. No. I know. But for right now...
p1653
sg8
VTOBY
p1654
sg10
g11
sa(dp1655
g6
V[looking at what Charlie is writing] What's that mean?
p1656
sg8
VSAM
p1657
sg10
g11
sa(dp1658
g6
VI'm sorry?
p1659
sg8
VCHARLIE
p1660
sg10
g11
sa(dp1661
g6
VWhat does that mean?
p1662
sg8
VSAM
p1663
sg10
g11
sa(dp1664
g6
VI was just scribbling.
p1665
sg8
VCHARLIE
p1666
sg10
g11
sa(dp1667
g6
VYou wrote down, "Send them to college."
p1668
sg8
VSAM
p1669
sg10
g11
sa(dp1670
g6
V[sounding scared] I was just scribbling.
p1671
sg8
VCHARLIE
p1672
sg10
g11
sa(dp1673
g6
VWhat did you mean when you wrote down, "send them to college"?
p1674
sg8
VSAM
p1675
sg10
g11
sa(dp1676
g6
VNo, 'cause it's like circling horses in the paper but not making the bet.
p1677
sg8
VCHARLIE
p1678
sg10
g11
sa(dp1679
g6
V[stands and walks toward Charlie] Tuition incentives.
p1680
sg8
VBARTLET
p1681
sg10
g11
sa(dp1682
g6
VMr. President...
p1683
sg8
VTOBY
p1684
sg10
g11
sa(dp1685
g6
VTalk, Charlie.
p1686
sg8
VBARTLET
p1687
sg10
g11
sa(dp1688
g6
VMr. President, if this was an idea, somebody would have had it already.
p1689
sg8
VCHARLIE
p1690
sg10
g11
sa(dp1691
g6
VI find fault with that formula.
p1692
sg8
VBARTLET
p1693
sg10
g15
sa(dp1694
g6
VWell...
p1695
sg8
VCHARLIE
p1696
sg10
g11
sa(dp1697
g6
VWhat?
p1698
sg8
VBARTLET
p1699
sg10
g11
sa(dp1700
g6
VThe government will send you to college or law school or medical school if you spend three years in the armed forces. Why not...
p1701
sg8
VCHARLIE
p1702
sg10
g11
sa(dp1703
g6
V[pacing] College tuition to anyone who wants to go college in exchange for they teach in a public school where we send'em for three years.
p1704
sg8
VSAM
p1705
sg10
g11
sa(dp1706
g6
VWhy can't that idea be floated?
p1707
sg8
VBARTLET
p1708
sg10
g11
sa(dp1709
g6
VAnybody know how we pay for it?
p1710
sg8
VTOBY
p1711
sg10
g11
sa(dp1712
g6
VThat comes later.
p1713
sg8
VBARTLET
p1714
sg10
g11
sa(dp1715
g6
VYes, it does come next, so for the moment why don't we...
p1716
sg8
VTOBY
p1717
sg10
g11
sa(dp1718
g6
VKick this around.
p1719
sg8
VBARTLET
p1720
sg10
g11
sa(dp1721
g6
VMr. President...
p1722
sg8
VTOBY
p1723
sg10
g11
sa(dp1724
g6
V[walks to the door] I'll be in my study. It's an incredible sky tonight.
p1725
sg8
VBARTLET
p1726
sg10
g11
sa(dp1727
g6
V58% of the people say that gay spouses should receive health benefits and 54% say Social Security benefits and by the way we haven't talked about the 14th amendment.
p1728
sg8
VJOSH
p1729
sg10
g11
sa(dp1730
g6
VUh, Josh, the 14th amend...
p1731
sg8
VSKINNER
p1732
sg10
g11
sa(dp1733
g6
VI think a strict interpretation of the Equal Protection Clause would dictate that homophobia can't be made into a law.
p1734
sg8
VJOSH
p1735
sg10
g11
sa(dp1736
g6
VThat's for the court to decide; but I think they'll uphold it.
p1737
sg8
VSKINNER
p1738
sg10
g11
sa(dp1739
g6
VLawrence Tribe disagrees with you.
p1740
sg8
VJOSH
p1741
sg10
g15
sa(dp1742
g6
VLawrence Tribe doesn't sit on the U.S. Supreme Court.
p1743
sg8
VSKINNER
p1744
sg10
g11
sa(dp1745
g6
VFive Justices!
p1746
sg8
VJOSH
p1747
sg10
g11
sa(dp1748
g6
VJosh, I came here as a friend. I think you know that.
p1749
sg8
VSKINNER
p1750
sg10
g11
sa(dp1751
g6
VWhat does that have to do with it?
p1752
sg8
VJOSH
p1753
sg10
g11
sa(dp1754
g6
VI came here 'cause I came here. Look. This is gonna be a law whether the President vetoes it or not. They have the votes in the Senate to override it.
p1755
sg8
VSKINNER
p1756
sg10
g11
sa(dp1757
g6
VThe Senate's not in session. The President could stick this in his pants pocket and it's vetoed.
p1758
sg8
VJOSH
p1759
sg10
g11
sa(dp1760
g6
VAnd it will come back in January and you will have to live through this twice. And you will lose both times.
p1761
sg8
VSKINNER
p1762
sg10
g11
sa(dp1763
g6
VMatt!
p1764
sg8
VJOSH
p1765
sg10
g11
sa(dp1766
g6
VAsk me the question.
p1767
sg8
VSKINNER
p1768
sg10
g11
sa(dp1769
g6
VHe compared homosexuality to kleptomania and sex addition, Matt.
p1770
sg8
VJOSH
p1771
sg10
g11
sa(dp1772
g6
VYes.
p1773
sg8
VSKINNER
p1774
sg10
g15
sa(dp1775
g6
VThe Majority Leader. The leader of your own party.
p1776
sg8
VJOSH
p1777
sg10
g11
sa(dp1778
g6
VHe was wrong and I told him so.
p1779
sg8
VSKINNER
p1780
sg10
g11
sa(dp1781
g6
VFor cryin' out loud!
p1782
sg8
VJOSH
p1783
sg10
g11
sa(dp1784
g6
VAsk me the question, Josh!
p1785
sg8
VSKINNER
p1786
sg10
g11
sa(dp1787
g6
VHow can you be a member of this party?!?
p1788
sg8
VJOSH
p1789
sg10
g11
sa(dp1790
g6
VYou've been holding that in for way too long, man.
p1791
sg8
VSKINNER
p1792
sg10
g11
sa(dp1793
g6
VThis party who says that who you are is against the law.
p1794
sg8
VJOSH
p1795
sg10
g11
sa(dp1796
g6
VYou know, I never understand why you gun control people don't all join the N.R.A. They've got two million members. You bring three million to the next meeting... call a vote... All those in favor of tossing guns - [Snaps fingers] - Bam! Move on.
p1797
sg8
VSKINNER
p1798
sg10
g11
sa(dp1799
g6
VThat's a heck of a strategy, Matt. I'll bring that up in a meeting.
p1800
sg8
VJOSH
p1801
sg10
g11
sa(dp1802
g6
VI agree with 95% of the Republican platform. I believe in local government. I'm in favor of individual rights rather than group rights. I believe free markets lead to free people and that the country needs a strong national defense. My life doesn't have to be about being a homosexual. It doesn't have to be entirely about that.
p1803
sg8
VSKINNER
p1804
sg10
g11
sa(dp1805
g6
VThanks for coming by.
p1806
sg8
VJOSH
p1807
sg10
g11
sa(dp1808
g6
VThanks for the beer. [exits]
p1809
sg8
VSKINNER
p1810
sg10
g11
sa(dp1811
g6
VHe'll sign it.
p1812
sg8
VSKINNER
p1813
sg10
g11
sa(dp1814
g6
V[puts on his coat] Yeah.
p1815
sg8
VSKINNER
p1816
sg10
g11
sa(dp1817
g6
VTake your hand off my shoulder, Congressman.
p1818
sg8
VSKINNER
p1819
sg10
g11
sa(dp1820
g6
VThe speech is fine now.
p1821
sg8
VTOBY
p1822
sg10
g11
sa(dp1823
g6
VToby.
p1824
sg8
VSAM
p1825
sg10
g11
sa(dp1826
g6
VSpeech is fine.
p1827
sg8
VTOBY
p1828
sg10
g11
sa(dp1829
g6
V100,000 college scholarships...
p1830
sg8
VSAM
p1831
sg10
g11
sa(dp1832
g6
VIt's an overly simplistic...
p1833
sg8
VTOBY
p1834
sg10
g11
sa(dp1835
g6
VToby...
p1836
sg8
VSAM
p1837
sg10
g11
sa(dp1838
g6
VYou wanted me?
p1839
sg8
VC.J.
p1840
sg10
g11
sa(dp1841
g6
VYou should tip the press off we might float an education initiative.
p1842
sg8
VSAM
p1843
sg10
g11
sa(dp1844
g6
V[confused] But, I just told them...
p1845
sg8
VC.J.
p1846
sg10
g11
sa(dp1847
g6
VWe're not floating.
p1848
sg8
VTOBY
p1849
sg10
g11
sa(dp1850
g6
VWe might float, I'm sayin' and you should give them a heads up.
p1851
sg8
VSAM
p1852
sg10
g11
sa(dp1853
g6
VExcuse me. I need to go look like an idiot.
p1854
sg8
VC.J.
p1855
sg10
g11
sa(dp1856
g6
VWe're not floating a policy initiative, Sam. I don't care if it's a trip to the moon on gossamer wings.
p1857
sg8
VTOBY
p1858
sg10
g11
sa(dp1859
g6
VLook...
p1860
sg8
VSAM
p1861
sg10
g11
sa(dp1862
g6
VIt's pie in the sky to say nothing of patronizing to have privileged Ivy Leaguers play teacher to America's most vulnerable children.
p1863
sg8
VTOBY
p1864
sg10
g11
sa(dp1865
g6
VThe people taking advantage of this aren't going to be over-privileged.
p1866
sg8
VSAM
p1867
sg10
g11
sa(dp1868
g6
VHow do you suppose the teacher's union will feel about it?
p1869
sg8
VTOBY
p1870
sg10
g11
sa(dp1871
g6
VThey'll have 100,000 new members.
p1872
sg8
VSAM
p1873
sg10
g11
sa(dp1874
g6
VAll of whom will leave after three years.
p1875
sg8
VTOBY
p1876
sg10
g11
sa(dp1877
g6
VMost of whom...
p1878
sg8
VSAM
p1879
sg10
g11
sa(dp1880
g6
VAnd the kids will be abandoned as well.
p1881
sg8
VTOBY
p1882
sg10
g11
sa(dp1883
g6
VThey won't be abandoned.
p1884
sg8
VSAM
p1885
sg10
g11
sa(dp1886
g6
VTheir teachers will leave!
p1887
sg8
VTOBY
p1888
sg10
g11
sa(dp1889
g6
VOnce you're in fifth grade what do you care what your fourth grade teacher is doing?
p1890
sg8
VSAM
p1891
sg10
g11
sa(dp1892
g6
VSam.
p1893
sg8
VTOBY
p1894
sg10
g11
sa(dp1895
g6
VToby, these people are gonna be role models, to kids that don't have much contact with young, successful, college graduates many of whom will have grown up in neighborhoods just like theirs.
p1896
sg8
VSAM
p1897
sg10
g11
sa(dp1898
g6
VSam.
p1899
sg8
VTOBY
p1900
sg10
g11
sa(dp1901
g6
VToby, we could have...
p1902
sg8
VSAM
p1903
sg10
g11
sa(dp1904
g6
VSam! Where are we getting the money? [pauses to reign in his temper] Where are we getting the money?
p1905
sg8
VTOBY
p1906
sg10
g11
sa(dp1907
g6
VI was really mortified that I froze up on that speech.
p1908
sg8
VSAM
p1909
sg10
g11
sa(dp1910
g6
VYeah. [pause] You should've told me a few days ago.
p1911
sg8
VTOBY
p1912
sg10
g11
sa(dp1913
g6
VYeah.
p1914
sg8
VSAM
p1915
sg10
g11
sa(dp1916
g6
VI played the flute. I'm a flutist. In high school I was the best in my row. And, so I ask myself, if I pursued the flute professionally, would I be meeting interesting men? And the answer comes back to me. Probably not.
p1917
sg8
VDONNA
p1918
sg10
g11
sa(dp1919
g6
VI played the trombone.
p1920
sg8
VAINSLEY
p1921
sg10
g11
sa(dp1922
g6
VDid you meet interesting men?
p1923
sg8
VDONNA
p1924
sg10
g15
sa(dp1925
g6
VYeah.
p1926
sg8
VAINSLEY
p1927
sg10
g11
sa(dp1928
g6
VIs, is it a hard instrument to learn? If I took it up now...
p1929
sg8
VDONNA
p1930
sg10
g11
sa(dp1931
g6
VTalk to me about the Full Faith and Credit Clause.
p1932
sg8
VJOSH
p1933
sg10
g11
sa(dp1934
g6
VIt says that full faith and credit shall be given by each state to the public acts, records, and judicial proceedings of every other state - it means if you're married in Maryland it's got to be recognized by Nebraska.
p1935
sg8
VAINSLEY
p1936
sg10
g11
sa(dp1937
g6
VSo, how is the Marriage Recognition Act not unconstitutional?
p1938
sg8
VJOSH
p1939
sg10
g11
sa(dp1940
g6
V'Cause it also says that Congress can proscribe the manner in which such acts and records are proved - which means they can decide what being married means within the context of Article IV.
p1941
sg8
VAINSLEY
p1942
sg10
g11
sa(dp1943
g6
VJosh.
p1944
sg8
VDONNA
p1945
sg10
g11
sa(dp1946
g6
VYeah?
p1947
sg8
VJOSH
p1948
sg10
g11
sa(dp1949
g6
V[pointing to phone sitting in cradle] Toby.
p1950
sg8
VDONNA
p1951
sg10
g11
sa(dp1952
g6
VYeah?
p1953
sg8
VJOSH
p1954
sg10
g11
sa(dp1955
g6
VWhat's goin' on?
p1956
sg8
VTOBY
p1957
sg10
g11
sa(dp1958
g6
VI'm going to tell him to sign the damn thing.
p1959
sg8
VJOSH
p1960
sg10
g11
sa(dp1961
g6
VOkay.
p1962
sg8
VTOBY
p1963
sg10
g11
sa(dp1964
g6
VHow's his mood?
p1965
sg8
VJOSH
p1966
sg10
g11
sa(dp1967
g6
VHe's frustrated. He's feeling...
p1968
sg8
VTOBY
p1969
sg10
g11
sa(dp1970
g6
VYou know when he goes off on a thing Toby, he expects you to bring him in. He wants you to do it so he doesn't have to do it himself.
p1971
sg8
VJOSH
p1972
sg10
g11
sa(dp1973
g6
VJosh, off the top of your head, what do you think about tuition incentives for...
p1974
sg8
VTOBY
p1975
sg10
g11
sa(dp1976
g6
VWhat was that?
p1977
sg8
VJOSH
p1978
sg10
g11
sa(dp1979
g6
VWe're landing.
p1980
sg8
VTOBY
p1981
sg10
g11
sa(dp1982
g6
VNo, I mean, what were you going to...
p1983
sg8
VJOSH
p1984
sg10
g11
sa(dp1985
g6
VNothing.
p1986
sg8
VTOBY
p1987
sg10
g11
sa(dp1988
g6
VAll right. I'll talk to you later.
p1989
sg8
VJOSH
p1990
sg10
g11
sa(dp1991
g6
VI'm gonna talk to Leo.
p1992
sg8
VJOSH
p1993
sg10
g11
sa(dp1994
g6
VI'll see you guys Monday.
p1995
sg8
VAINSLEY
p1996
sg10
g15
sa(dp1997
g6
VGood night.
p1998
sg8
VDONNA
p1999
sg10
g11
sa(dp2000
g6
VTake it easy.
p2001
sg8
VJOSH
p2002
sg10
g11
sa(dp2003
g6
VDid you know she plays the trombone?
p2004
sg8
VDONNA
p2005
sg10
g11
sa(dp2006
g6
VI didn't.
p2007
sg8
VJOSH
p2008
sg10
g11
sa(dp2009
g6
VTonight stunk, Josh.
p2010
sg8
VDONNA
p2011
sg10
g11
sa(dp2012
g6
VI'm sorry about that.
p2013
sg8
VJOSH
p2014
sg10
g11
sa(dp2015
g6
VI didn't mean having to work, although that was a treat. I meant the guy.
p2016
sg8
VDONNA
p2017
sg10
g11
sa(dp2018
g6
VWho was he?
p2019
sg8
VJOSH
p2020
sg10
g11
sa(dp2021
g6
VA lobbyist with Travis West. He was pretty full of himself and without a lot of cause to be.
p2022
sg8
VDONNA
p2023
sg10
g11
sa(dp2024
g6
VAn obnoxious insurance lobbyist? What were the odds?
p2025
sg8
VJOSH
p2026
sg10
g11
sa(dp2027
g6
VThat isn't funny, Josh.
p2028
sg8
VDONNA
p2029
sg10
g11
sa(dp2030
g6
VI gotta go see Leo.
p2031
sg8
VJOSH
p2032
sg10
g11
sa(dp2033
g6
VI'll call you in the morning.
p2034
sg8
VDONNA
p2035
sg10
g11
sa(dp2036
g6
VYou look really great in that dress tonight, Donna. You should buy it for yourself.
p2037
sg8
VJOSH
p2038
sg10
g11
sa(dp2039
g6
V[on speakerphone] Yeah?
p2040
sg8
VBARTLET
p2041
sg10
g11
sa(dp2042
g6
VYeah?
p2043
sg8
VBARTLET
p2044
sg10
g11
sa(dp2045
g6
VWe hold the ship in Bahrain.
p2046
sg8
VLEO
p2047
sg10
g11
sa(dp2048
g6
VIt doesn't do anything to hold the ship in Bahrain
p2049
sg8
VBARTLET
p2050
sg10
g11
sa(dp2051
g6
VSir, we hold the ship in Bahrain and then send a sample of the oil to the U.S. customs lab in San Francisco. If the point of origin violates sanctions...
p2052
sg8
VLEO
p2053
sg10
g11
sa(dp2054
g6
VYeah. You know what's going to happen? They'll sell off the cargo in a friendly port. 780,000 metric tons of gas oil against a two million dollar fine for the oil company.
p2055
sg8
VBARTLET
p2056
sg10
g11
sa(dp2057
g6
VMr. President.
p2058
sg8
VLEO
p2059
sg10
g11
sa(dp2060
g6
VWhich their profits from the sale will more than cover. We're not providing much of a disincentive to evade U.N. sanctions.
p2061
sg8
VBARTLET
p2062
sg10
g11
sa(dp2063
g6
VWhat else is there to do?
p2064
sg8
VLEO
p2065
sg10
g11
sa(dp2066
g6
VIf we're going to have sanctions at all, I think we should make them stick. I think that we should confiscate the cargo, seize the ship, sell the oil and use the money to beef up anti-smuggling operations.
p2067
sg8
VBARTLET
p2068
sg10
g11
sa(dp2069
g6
VYou don't mean tonight. You mean in the future...
p2070
sg8
VLEO
p2071
sg10
g11
sa(dp2072
g6
VWe're landing, Mr. President.
p2073
sg8
VC.J.
p2074
sg10
g11
sa(dp2075
g6
V[to Leo] Yeah. In the future.
p2076
sg8
VBARTLET
p2077
sg10
g11
sa(dp2078
g6
VOkay. Josh wants to talk about the...
p2079
sg8
VLEO
p2080
sg10
g11
sa(dp2081
g6
V[to Leo] Hang on. [to C.J.] You need me?
p2082
sg8
VBARTLET
p2083
sg10
g11
sa(dp2084
g6
VI can wait.
p2085
sg8
VC.J.
p2086
sg10
g11
sa(dp2087
g6
V[into phone] Yeah.
p2088
sg8
VBARTLET
p2089
sg10
g11
sa(dp2090
g6
VThe Marriage Recognition Act.
p2091
sg8
VJOSH
p2092
sg10
g11
sa(dp2093
g6
V[sighs] Yeah.
p2094
sg8
VBARTLET
p2095
sg10
g11
sa(dp2096
g6
VFolks, we'll be landing in just a few minutes. Follow the blue signs to your bus. Oh, one thing before we land, when I said before that there'd be absolutely no policy shifts or new initiatives in the education speech tomorrow... That was correct, except it's possible there might be a policy shift or new initiative in the education speech tomorrow.
p2097
sg8
VC.J.
p2098
sg10
g11
sa(dp2099
g6
VThere isn't going to be a change.
p2100
sg8
VTOBY
p2101
sg10
g11
sa(dp2102
g6
VToby!
p2103
sg8
VREPORTER
p2104
sg10
g11
sa(dp2105
g6
VThere isn't going to be a change! [to C.J.] Danny?
p2106
sg8
VTOBY
p2107
sg10
g11
sa(dp2108
g6
VHe's not going to give it back.
p2109
sg8
VC.J.
p2110
sg10
g11
sa(dp2111
g6
VDanny, Sam choked hard on the last draft and wants to burn it.
p2112
sg8
VTOBY
p2113
sg10
g11
sa(dp2114
g6
VNo problem.
p2115
sg8
VDANNY
p2116
sg10
g11
sa(dp2117
g6
V[incredulous] No problem?
p2118
sg8
VC.J.
p2119
sg10
g11
sa(dp2120
g6
V[to Toby] Tell him to relax. He'll get his swing back.
p2121
sg8
VDANNY
p2122
sg10
g11
sa(dp2123
g6
VYeah.
p2124
sg8
VTOBY
p2125
sg10
g11
sa(dp2126
g6
VTell him I didn't read it.
p2127
sg8
VDANNY
p2128
sg10
g11
sa(dp2129
g6
V[smiling slightly] Thanks.
p2130
sg8
VTOBY
p2131
sg10
g11
sa(dp2132
g6
VYou were just having a little go at me, weren't you?
p2133
sg8
VC.J.
p2134
sg10
g11
sa(dp2135
g6
VYeah. It's a long flight.
p2136
sg8
VDANNY
p2137
sg10
g11
sa(dp2138
g6
VSo you decided to kill time by...
p2139
sg8
VC.J.
p2140
sg10
g11
sa(dp2141
g6
VYeah. You know why?
p2142
sg8
VDANNY
p2143
sg10
g11
sa(dp2144
g6
VTell me you went to Notre Dame.
p2145
sg8
VC.J.
p2146
sg10
g11
sa(dp2147
g6
VMaybe next time you won't be so quick to mock on the eve of a Michigan game.
p2148
sg8
VDANNY
p2149
sg10
g11
sa(dp2150
g6
V[to herself] There must be an escape hatch here of some kind.
p2151
sg8
VC.J.
p2152
sg10
g11
sa(dp2153
g6
VThe constitutional argument...
p2154
sg8
VJOSH
p2155
sg10
g11
sa(dp2156
g6
VI don't care about the constitutional argument. It's gay bashing. It's legislative gay bashing. How do I put my name on it?
p2157
sg8
VBARTLET
p2158
sg10
g11
sa(dp2159
g6
VI wouldn't, sir. I'd put it away.
p2160
sg8
VJOSH
p2161
sg10
g11
sa(dp2162
g6
VPocket veto's a politician's way out.
p2163
sg8
VBARTLET
p2164
sg10
g11
sa(dp2165
g6
VThey'll send the bill again when they're in session. Meanwhile, we focus on the Employment Non-discrimination Act.
p2166
sg8
VJOSH
p2167
sg10
g11
sa(dp2168
g6
VIf I'm going to sign it in January, why am I vetoing it now?
p2169
sg8
VBARTLET
p2170
sg10
g11
sa(dp2171
g6
VAs a symbolic gesture to the gay community.
p2172
sg8
VJOSH
p2173
sg10
g11
sa(dp2174
g6
VI'm sure the gay community can't wait to thank me.
p2175
sg8
VBARTLET
p2176
sg10
g11
sa(dp2177
g6
VMr. President.
p2178
sg8
VLEO
p2179
sg10
g11
sa(dp2180
g6
VThis is just wrong.
p2181
sg8
VBARTLET
p2182
sg10
g11
sa(dp2183
g6
VYeah.
p2184
sg8
VLEO
p2185
sg10
g11
sa(dp2186
g6
V[getting worked up] You can look at the policy numbers and Article IV and Social Security benefits. It doesn't matter. It's just wrong. We shouldn't be defining love and we certainly shouldn't be ill-defining it. It's wrong. This is the job for... This is the job of somebody else.
p2187
sg8
VBARTLET
p2188
sg10
g11
sa(dp2189
g6
VWell, right now it's ours.
p2190
sg8
VLEO
p2191
sg10
g11
sa(dp2192
g6
VIt's wrong.
p2193
sg8
VBARTLET
p2194
sg10
g11
sa(dp2195
g6
VSir.
p2196
sg8
VLEO
p2197
sg10
g11
sa(dp2198
g6
VI should get out a rubber stamp that says 'Josiah Bartlet votes no.'
p2199
sg8
VBARTLET
p2200
sg10
g11
sa(dp2201
g6
VThat's just what the conservatives are hoping you'll do.
p2202
sg8
VJOSH
p2203
sg10
g11
sa(dp2204
g6
VI should get out a rubber stamp!
p2205
sg8
VBARTLET
p2206
sg10
g11
sa(dp2207
g6
VSir.
p2208
sg8
VLEO
p2209
sg10
g11
sa(dp2210
g6
VPut it in a drawer.
p2211
sg8
VBARTLET
p2212
sg10
g11
sa(dp2213
g6
VYes, sir.
p2214
sg8
VLEO
p2215
sg10
g15
sa(dp2216
g6
VThank you, Mr. President.
p2217
sg8
VJOSH
p2218
sg10
g15
sa(dp2219
g6
VWe'll talk at the hotel. [hangs up]
p2220
sg8
VLEO
p2221
sg10
g11
sa(dp2222
g6
VOkay.
p2223
sg8
VJOSH
p2224
sg10
g11
sa(dp2225
g6
VAll right.
p2226
sg8
VLEO
p2227
sg10
g11
sa(dp2228
g6
VHave a good night.
p2229
sg8
VJOSH
p2230
sg10
g11
sa(dp2231
g6
VYou too.
p2232
sg8
VLEO
p2233
sg10
g11
sa(dp2234
g6
VHey Leo, Margaret mentioned...
p2235
sg8
VJOSH
p2236
sg10
g11
sa(dp2237
g6
VOh, come on Josh!
p2238
sg8
VLEO
p2239
sg10
g11
sa(dp2240
g6
VNo, she just said...
p2241
sg8
VJOSH
p2242
sg10
g11
sa(dp2243
g6
VMy divorce papers came today. She thinks I'm going to drink.
p2244
sg8
VLEO
p2245
sg10
g11
sa(dp2246
g6
VIt seems like a pretty good reason to.
p2247
sg8
VJOSH
p2248
sg10
g11
sa(dp2249
g6
VI'm an alcoholic, I don't need a good reason to.
p2250
sg8
VLEO
p2251
sg10
g11
sa(dp2252
g6
VYou wanna have coffee someplace?
p2253
sg8
VJOSH
p2254
sg10
g11
sa(dp2255
g6
VI wanna go home.
p2256
sg8
VLEO
p2257
sg10
g11
sa(dp2258
g6
VOkay.
p2259
sg8
VJOSH
p2260
sg10
g11
sa(dp2261
g6
VI'll see you on Monday.
p2262
sg8
VLEO
p2263
sg10
g11
sa(dp2264
g6
V[calls] Margaret, I'm going.
p2265
sg8
VLEO
p2266
sg10
g11
sa(dp2267
g6
V[with a resigned tone, yet worried expression] Okay.
p2268
sg8
VMARGARET
p2269
sg10
g15
sa(dp2270
g6
V[quietly] You're a good girl.
p2271
sg8
VLEO
p2272
sg10
g11
sa(dp2273
g6
V[pacified] Okay.
p2274
sg8
VMARGARET
p2275
sg10
g11
sa(dp2276
g6
VSir?
p2277
sg8
VC.J.
p2278
sg10
g11
sa(dp2279
g6
VYeah?
p2280
sg8
VBARTLET
p2281
sg10
g11
sa(dp2282
g6
VYou're off the phone?
p2283
sg8
VC.J.
p2284
sg10
g11
sa(dp2285
g6
VYeah.
p2286
sg8
VBARTLET
p2287
sg10
g11
sa(dp2288
g6
VThere was a question?
p2289
sg8
VBARTLET
p2290
sg10
g11
sa(dp2291
g6
VFor a sidebar, on the game tomorrow.
p2292
sg8
VC.J.
p2293
sg10
g11
sa(dp2294
g6
VWhy did you go to Notre Dame?
p2295
sg8
VC.J.
p2296
sg10
g11
sa(dp2297
g6
VWhy not?
p2298
sg8
VBARTLET
p2299
sg10
g11
sa(dp2300
g6
VBearing in mind that I'm just repeating someone else's question. You were accepted at Harvard, Yale, and Williams. Why did you go to Notre Dame?
p2301
sg8
VC.J.
p2302
sg10
g11
sa(dp2303
g6
VBecause I was thinking about becoming a priest.
p2304
sg8
VBARTLET
p2305
sg10
g11
sa(dp2306
g6
VReally?
p2307
sg8
VC.J.
p2308
sg10
g11
sa(dp2309
g6
VYeah.
p2310
sg8
VBARTLET
p2311
sg10
g11
sa(dp2312
g6
VWhat happened?
p2313
sg8
VC.J.
p2314
sg10
g11
sa(dp2315
g6
VI met Abbey.
p2316
sg8
VBARTLET
p2317
sg10
g11
sa(dp2318
g6
V[obviously touched] Why don't you ever give me answers like that when we're running for something?
p2319
sg8
VC.J.
p2320
sg10
g11
sa(dp2321
g6
VBecause I like to bother you.
p2322
sg8
VBARTLET
p2323
sg10
g11
sa(dp2324
g6
VWell, I shall not be defeated.
p2325
sg8
VC.J.
p2326
sg10
g11
sa(dp2327
g6
VSit down.
p2328
sg8
VBARTLET
p2329
sg10
g11
sa(dp2330
g6
VOkay. [sits]
p2331
sg8
VC.J.
p2332
sg10
g11
sa(dp2333
g6
VMr. President.
p2334
sg8
VTOBY
p2335
sg10
g11
sa(dp2336
g6
VToby.
p2337
sg8
VBARTLET
p2338
sg10
g11
sa(dp2339
g6
VHere's the final draft.
p2340
sg8
VTOBY
p2341
sg10
g11
sa(dp2342
g6
VToby, you should sit down. We're landing in one minute and ten seconds.
p2343
sg8
VBARTLET
p2344
sg10
g11
sa(dp2345
g6
VHow do you know that?
p2346
sg8
VTOBY
p2347
sg10
g11
sa(dp2348
g6
VI set my watch to the cockpit computer. You should sit down.
p2349
sg8
VBARTLET
p2350
sg10
g11
sa(dp2351
g6
VThank you.
p2352
sg8
VTOBY
p2353
sg10
g15
sa(dp2354
g6
VDo you know why the Assistant Energy Secretary is on the plane?
p2355
sg8
VBARTLET
p2356
sg10
g11
sa(dp2357
g6
VYou have a meeting with him on the way back.
p2358
sg8
VTOBY
p2359
sg10
g11
sa(dp2360
g6
VThat's right.
p2361
sg8
VBARTLET
p2362
sg10
g11
sa(dp2363
g6
VI think Charlie's idea was a good one. I think you should ask Leo to put together a team to study the feasibility of appropriations for a pilot program with 100 teachers.
p2364
sg8
VTOBY
p2365
sg10
g11
sa(dp2366
g6
VThey're taking the tanker to Bahrain and then the company's going to make a profit.
p2367
sg8
VBARTLET
p2368
sg10
g11
sa(dp2369
g6
VYes, sir.
p2370
sg8
VTOBY
p2371
sg10
g15
sa(dp2372
g6
VThe Marriage Recognition Act is going to be law.
p2373
sg8
VBARTLET
p2374
sg10
g11
sa(dp2375
g6
VYeah.
p2376
sg8
VTOBY
p2377
sg10
g11
sa(dp2378
g6
V100 new teachers?
p2379
sg8
VBARTLET
p2380
sg10
g11
sa(dp2381
g6
VYeah.
p2382
sg8
VTOBY
p2383
sg10
g11
sa(dp2384
g6
VInstead of 100,000.
p2385
sg8
VBARTLET
p2386
sg10
g11
sa(dp2387
g6
VYeah.
p2388
sg8
VTOBY
p2389
sg10
g11
sa(dp2390
g6
VWell, it's a start I guess.
p2391
sg8
VBARTLET
p2392
sg10
g11
sas.