(dp0
S'season'
p1
I3
sS'episode'
p2
I15
sS'script'
p3
(lp4
(dp5
S'text'
p6
VDo you like these earrings?
p7
sS'bow_score'
p8
S'neutral'
p9
sS'character'
p10
VABBEY
p11
sS'maxent_score'
p12
g9
sa(dp13
g6
V[without looking] I do.
p14
sg8
g9
sg10
VBARTLET
p15
sg12
S'negative'
p16
sa(dp17
g6
VYou want to look at them first?
p18
sg8
g9
sg10
VABBEY
p19
sg12
g9
sa(dp20
g6
V[still not looking] Are they new?
p21
sg8
g9
sg10
VBARTLET
p22
sg12
S'positive'
p23
sa(dp24
g6
VNo.
p25
sg8
g9
sg10
VABBEY
p26
sg12
g9
sa(dp27
g6
V[still not looking] You've worn them?
p28
sg8
g16
sg10
VBARTLET
p29
sg12
g9
sa(dp30
g6
VYeah.
p31
sg8
g9
sg10
VABBEY
p32
sg12
g9
sa(dp33
g6
V[still into his puzzle] I love them. "Laissez-faire doctrine." 15 letters.
p34
sg8
g23
sg10
VBARTLET
p35
sg12
g9
sa(dp36
g6
V[walking away] Social Darwinism.
p37
sg8
g9
sg10
VABBEY
p38
sg12
g9
sa(dp39
g6
VNo, that's not the answer. See, 'cause Social Darwinism isn't a doctrine. It's a force of nature. The answer is "libertarianism." [scribbles down his answer]
p40
sg8
g16
sg10
VBARTLET
p41
sg12
g9
sa(dp42
g6
VI'm gonna be ready in two minutes.
p43
sg8
g9
sg10
VABBEY
p44
sg12
g9
sa(dp45
g6
VTake your time.
p46
sg8
g9
sg10
VBARTLET
p47
sg12
g9
sa(dp48
g6
VPassive-aggression is not gonna get me out the door any faster.
p49
sg8
g9
sg10
VABBEY
p50
sg12
g9
sa(dp51
g6
VBoo boo, I gave up on getting you out the door in the late 70's. Plus, it's your birthday. You're old, and you don't move around that fast.
p52
sg8
g16
sg10
VBARTLET
p53
sg12
g9
sa(dp54
g6
VLibertarianism has 14 letters not 15.
p55
sg8
g9
sg10
VABBEY
p56
sg12
g9
sa(dp57
g6
VI know, so I'm shading in the extra box. [scribbles on the puzzle]
p58
sg8
g23
sg10
VBARTLET
p59
sg12
g9
sa(dp60
g6
VAnd it's not my birthday.
p61
sg8
g23
sg10
VABBEY
p62
sg12
g16
sa(dp63
g6
VIt's your birthday week. It's a week of festivities like Mardi Gras or Lent. Three letters. "It may be bitter." "Tea," right?
p64
sg8
g23
sg10
VBARTLET
p65
sg12
g9
sa(dp66
g6
V"It may be bitter?"
p67
sg8
g9
sg10
VABBEY
p68
sg12
g9
sa(dp69
g6
VYeah.
p70
sg8
g9
sg10
VBARTLET
p71
sg12
g9
sa(dp72
g6
VWhy "tea"?
p73
sg8
g9
sg10
VABBEY
p74
sg12
g9
sa(dp75
g6
V'Cause "woman" doesn't fit.
p76
sg8
g9
sg10
VBARTLET
p77
sg12
g9
sa(dp78
g6
V"End," you idiot. "Bitter end."
p79
sg8
g16
sg10
VABBEY
p80
sg12
g9
sa(dp81
g6
VHey, when the Medical Board gives you the results of the hearing, do they slap it up on one of those X-ray light boards? "Here's where the problem is with your testimony, Abbey. Here and here."
p82
sg8
g16
sg10
VBARTLET
p83
sg12
g9
sa(dp84
g6
VThat! That's funny? The other 23 jokes weren't funny. Well, it's not that they weren't funny. It's just they weren't ha ha funny, you know, but 12 years of medical school, my life, my work, my future, everything, up on the X-ray board? That's comedy!
p85
sg8
g23
sg10
VABBEY
p86
sg12
g9
sa(dp87
g6
VSee, I know it sounds like you're praising me, but...
p88
sg8
g9
sg10
VBARTLET
p89
sg12
g9
sa(dp90
g6
VOh, shut up.
p91
sg8
g9
sg10
VABBEY
p92
sg12
g16
sa(dp93
g6
V[pause] It's not your life or 12 years of anything or anything. They're gonna give you the very least they can give you.
p94
sg8
g9
sg10
VBARTLET
p95
sg12
g9
sa(dp96
g6
VThey can't give me the very least they can give me. The least they can give me is a letter of concern, which is private and unpublished, but that isn't available to me because I fought the case and stood by my convictions.
p97
sg8
g16
sg10
VABBEY
p98
sg12
g16
sa(dp99
g6
VWell, that was stupid.
p100
sg8
g16
sg10
VBARTLET
p101
sg12
g16
sa(dp102
g6
VDo your crossword puzzle. [sits on the bed]
p103
sg8
g9
sg10
VABBEY
p104
sg12
g9
sa(dp105
g6
VStanding by your convictions isn't gonna get you anywhere. This isn't some guy off the street talking. I'm a very successful politician.
p106
sg8
g23
sg10
VBARTLET
p107
sg12
g9
sa(dp108
g6
VHow many people are at this party?
p109
sg8
g9
sg10
VABBEY
p110
sg12
g9
sa(dp111
g6
VAbout 200, but that was five or six hours ago when it started.
p112
sg8
g9
sg10
VBARTLET
p113
sg12
g9
sa(dp114
g6
VOnce more with the passive-aggressive.
p115
sg8
g9
sg10
VABBEY
p116
sg12
g9
sa(dp117
g6
V"Body organ, produces hydrochloric acid." That's the kidney, right? Or the lima bean?
p118
sg8
g16
sg10
VBARTLET
p119
sg12
g9
sa(dp120
g6
VPancreas.
p121
sg8
g9
sg10
VABBEY
p122
sg12
g9
sa(dp123
g6
VSee, they can't take medical school away from you.
p124
sg8
g23
sg10
VBARTLET
p125
sg12
g23
sa(dp126
g6
VJed?
p127
sg8
g9
sg10
VABBEY
p128
sg12
g9
sa(dp129
g6
VAbbey, come here.
p130
sg8
g9
sg10
VBARTLET
p131
sg12
g16
sa(dp132
g6
VI know you're scared. I'm very confident. So you be whatever you want. Whatever happens happens tomorrow. Tonight is your birthday party, and your earrings are great, so are your shoes. So can we, for the love of God, get out of this room?!
p133
sg8
g23
sg10
VBARTLET
p134
sg12
g9
sa(dp135
g6
VGood to get that off your chest?
p136
sg8
g9
sg10
VABBEY
p137
sg12
g9
sa(dp138
g6
VYeah.
p139
sg8
g9
sg10
VBARTLET
p140
sg12
g9
sa(dp141
g6
VPheasant and morel consomme, miniature ravioli of fois gras and smoked goose confit, a little Canary melon sorbet as a palate cleanser, all served on the finest Lenox china.
p142
sg8
g9
sg10
VBARTLET
p143
sg12
g9
sa(dp144
g6
VAh. You planned this all yourself?
p145
sg8
g9
sg10
VABBEY
p146
sg12
g9
sa(dp147
g6
VA '97 Willamette Valley Pinot Noir. A '94 Hog Cellars Zinfandel.
p148
sg8
g9
sg10
VBARTLET
p149
sg12
g23
sa(dp150
g6
VYou really planned this all yourself?
p151
sg8
g9
sg10
VABBEY
p152
sg12
g16
sa(dp153
g6
VI'm like Gatsby, but without the problems.
p154
sg8
g9
sg10
VBARTLET
p155
sg12
g16
sa(dp156
g6
VListen, we're gonna keep this relaxed, right? I-I'm not sure I'm up for a lot of First Lady fanfare tonight.
p157
sg8
g23
sg10
VABBEY
p158
sg12
g9
sa(dp159
g6
VHmm.
p160
sg8
g9
sg10
VBARTLET
p161
sg12
g9
sa(dp162
g6
VWhat?
p163
sg8
g9
sg10
VABBEY
p164
sg12
g9
sa(dp165
g6
VI kind of wished you'd mentioned that before.
p166
sg8
g23
sg10
VBARTLET
p167
sg12
g23
sa(dp168
g6
VWhy?
p169
sg8
g9
sg10
VABBEY
p170
sg12
g9
sa(dp171
g6
VLadies and gentlemen, Abbey Bartlet!
p172
sg8
g9
sg10
VHERALD
p173
sg12
g23
sa(dp174
g6
V[quietly to Abbey] It's gonna be relaxed. It's gonna be relaxed.
p175
sg8
g9
sg10
VBARTLET
p176
sg12
g9
sa(dp177
g6
V[to Abbey] For dessert, we're having Kumquat Napoleons.
p178
sg8
g9
sg10
VBARTLET
p179
sg12
g16
sa(dp180
g6
VShut up.
p181
sg8
g9
sg10
VABBEY
p182
sg12
g16
sa(dp183
g6
VOkay.
p184
sg8
g9
sg10
VBARTLET
p185
sg12
g9
sa(dp186
g6
VHappy birthday, Mrs. B.
p187
sg8
g23
sg10
VJOSH
p188
sg12
g23
sa(dp189
g6
VOh, thank you, Josh. [gives a friendly kiss to Josh then to Amy] Amy, a friend.
p190
sg8
g23
sg10
VABBEY
p191
sg12
g23
sa(dp192
g6
VHappy birthday. You look beautiful.
p193
sg8
g23
sg10
VAMY
p194
sg12
g23
sa(dp195
g6
VAmy.
p196
sg8
g9
sg10
VBARTLET
p197
sg12
g9
sa(dp198
g6
VYou know, I'm responsible for the two of you. I haven't gotten credit for that yet.
p199
sg8
g23
sg10
VABBEY
p200
sg12
g9
sa(dp201
g6
VThe jury's still out.
p202
sg8
g9
sg10
VJOSH
p203
sg12
g9
sa(dp204
g6
VYeah. We'll see.
p205
sg8
g9
sg10
VAMY
p206
sg12
g16
sa(dp207
g6
VI hope Donna's coming.
p208
sg8
g23
sg10
VABBEY
p209
sg12
g23
sa(dp210
g6
VDonna was invited. All the women of the west wing. We're doing a calendar.
p211
sg8
g9
sg10
VBARTLET
p212
sg12
g9
sa(dp213
g6
VI'm not sure what's keeping her.
p214
sg8
g9
sg10
VJOSH
p215
sg12
g9
sa(dp216
g6
V[approaching] Abigail!
p217
sg8
g9
sg10
VMARBURY
p218
sg12
g9
sa(dp219
g6
VNow, it's a party!
p220
sg8
g9
sg10
VBARTLET
p221
sg12
g9
sa(dp222
g6
VOh, yes, Your Lordship! [laughs]
p223
sg8
g9
sg10
VABBEY
p224
sg12
g9
sa(dp225
g6
VYour breasts are magnificent.
p226
sg8
g23
sg10
VMARBURY
p227
sg12
g9
sa(dp228
g6
VAll right.
p229
sg8
g9
sg10
VBARTLET
p230
sg12
g9
sa(dp231
g6
VOh, um, thank you, John.
p232
sg8
g9
sg10
VABBEY
p233
sg12
g9
sa(dp234
g6
VMay I inquire, Mr. President, the first thing that attracted you to Abigail, was it her magnificent breasts?
p235
sg8
g23
sg10
VMARBURY
p236
sg12
g9
sa(dp237
g6
VIt was.
p238
sg8
g9
sg10
VABBEY
p239
sg12
g16
sa(dp240
g6
VYou know, John, there are places in the world where it might be considered rude to talk about the physical attributes of another man's wife.
p241
sg8
g23
sg10
VBARTLET
p242
sg12
g9
sa(dp243
g6
VMy God! Really?
p244
sg8
g9
sg10
VMARBURY
p245
sg12
g9
sa(dp246
g6
VYeah.
p247
sg8
g9
sg10
VABBEY
p248
sg12
g9
sa(dp249
g6
V[takes two glasses of wine from a waiter and gives one to Abbey] Abbey, I bring you warm wishes from Her Royal Majesty.
p250
sg8
g9
sg10
VMARBURY
p251
sg12
g9
sa(dp252
g6
VThat was nice of her. [reaches for the other glass but pulls back when Marbury takes it for himself]
p253
sg8
g9
sg10
VBARTLET
p254
sg12
g9
sa(dp255
g6
VWould that I could deliver the same wishes for you, Mr. President.
p256
sg8
g9
sg10
VMARBURY
p257
sg12
g9
sa(dp258
g6
VWhat did I do?
p259
sg8
g9
sg10
VBARTLET
p260
sg12
g16
sa(dp261
g6
VBrendan McGann cannot visit the White House.
p262
sg8
g23
sg10
VMARBURY
p263
sg12
g9
sa(dp264
g6
VLook, obviously, we knew this was gonna be a thing, but it doesn't have to be tonight, right?
p265
sg8
g9
sg10
VBARTLET
p266
sg12
g9
sa(dp267
g6
VNo, absolutely not. I shall take it up with Gerald.
p268
sg8
g9
sg10
VMARBURY
p269
sg12
g16
sa(dp270
g6
VWho's Gerald?
p271
sg8
g9
sg10
VABBEY
p272
sg12
g9
sa(dp273
g6
VI'm pretty sure he means Leo.
p274
sg8
g23
sg10
VBARTLET
p275
sg12
g16
sa(dp276
g6
V[drinks] Hmm. Oh, do you have a new chief of staff?
p277
sg8
g9
sg10
VMARBURY
p278
sg12
g9
sa(dp279
g6
VNo.
p280
sg8
g9
sg10
VBARTLET
p281
sg12
g9
sa(dp282
g6
VWell, then Gerald, it is. Abbey, enjoy your birthday gala. [growls] I shall await a dance.
p283
sg8
g23
sg10
VMARBURY
p284
sg12
g23
sa(dp285
g6
VI won't make you wait long, Your Lordship.
p286
sg8
g16
sg10
VABBEY
p287
sg12
g16
sa(dp288
g6
VExcellent. [walks off]
p289
sg8
g9
sg10
VMARBURY
p290
sg12
g9
sa(dp291
g6
V[to Abbey] So! So far so good.
p292
sg8
g23
sg10
VBARTLET
p293
sg12
g23
sa(dp294
g6
VLeo?
p295
sg8
g9
sg10
VC.J.
p296
sg12
g9
sa(dp297
g6
VYeah. Do me a favor, would you? Check out a rumor that a Robert Nolan, who's the chairman of the New Hampshire State Medical Board is gonna recuse himself from Abbey's hearing.
p298
sg8
g16
sg10
VLEO
p299
sg12
g9
sa(dp300
g6
VN-O-L-A-N?
p301
sg8
g9
sg10
VC.J.
p302
sg12
g9
sa(dp303
g6
VYeah.
p304
sg8
g9
sg10
VLEO
p305
sg12
g9
sa(dp306
g6
VAnd what's the source?
p307
sg8
g9
sg10
VC.J.
p308
sg12
g9
sa(dp309
g6
VI don't know the original source, but it's coming from the Manchester Union Leader, and you got to change taxicabs a couple of times because I don't want the paper knowing we're asking questions.
p310
sg8
g23
sg10
VLEO
p311
sg12
g9
sa(dp312
g6
VThat's no problem. What's going on?
p313
sg8
g16
sg10
VC.J.
p314
sg12
g9
sa(dp315
g6
VWell, let's confirm the story first. If it's true, bring it to the President.
p316
sg8
g23
sg10
VLEO
p317
sg12
g9
sa(dp318
g6
VOkay, and one of us... well, you... need to talk to Abbey tonight about tomorrow.
p319
sg8
g23
sg10
VC.J.
p320
sg12
g9
sa(dp321
g6
VHappy birthday, Abbey.
p322
sg8
g23
sg10
VLEO
p323
sg12
g23
sa(dp324
g6
VI'll get this other thing.
p325
sg8
g9
sg10
VC.J.
p326
sg12
g9
sa(dp327
g6
VHey.
p328
sg8
g9
sg10
VC.J.
p329
sg12
g9
sa(dp330
g6
VHey. Jack Enlow?
p331
sg8
g9
sg10
VSAM
p332
sg12
g9
sa(dp333
g6
VNo, it's C.J. Cregg. We've met.
p334
sg8
g9
sg10
VC.J.
p335
sg12
g16
sa(dp336
g6
VAnd laughed and laughed. Is Jack Enlow at the party yet?
p337
sg8
g9
sg10
VSAM
p338
sg12
g9
sa(dp339
g6
VI'm not at the party yet.
p340
sg8
g9
sg10
VC.J.
p341
sg12
g9
sa(dp342
g6
VFair point.
p343
sg8
g9
sg10
VSAM
p344
sg12
g16
sa(dp345
g6
VLook, if you're planning on starting a rumble with Enlow, can I send the press home?
p346
sg8
g23
sg10
VC.J.
p347
sg12
g9
sa(dp348
g6
VI'm not an instigator.
p349
sg8
g9
sg10
VSAM
p350
sg12
g16
sa(dp351
g6
VYes, you are.
p352
sg8
g9
sg10
VC.J.
p353
sg12
g23
sa(dp354
g6
VYeah, but I'm on the side of the angels.
p355
sg8
g9
sg10
VSAM
p356
sg12
g9
sa(dp357
g6
VI can say this about you. You can wear a tuxedo.
p358
sg8
g16
sg10
VC.J.
p359
sg12
g9
sa(dp360
g6
VI know.
p361
sg8
g9
sg10
VSAM
p362
sg12
g16
sa(dp363
g6
VI know you know.
p364
sg8
g9
sg10
VC.J.
p365
sg12
g9
sa(dp366
g6
VGood evening.
p367
sg8
g9
sg10
VSAM
p368
sg12
g23
sa(dp369
g6
VWhy is Dalton Millgate coming here?
p370
sg8
g9
sg10
VLEO
p371
sg12
g16
sa(dp372
g6
VHow did you know he was coming here?
p373
sg8
g9
sg10
VSAM
p374
sg12
g9
sa(dp375
g6
VHow do you think?
p376
sg8
g9
sg10
VLEO
p377
sg12
g9
sa(dp378
g6
VBecause you know everything.
p379
sg8
g9
sg10
VSAM
p380
sg12
g9
sa(dp381
g6
VYes.
p382
sg8
g9
sg10
VLEO
p383
sg12
g23
sa(dp384
g6
VI had him for a semester at school. He and his people are having trouble getting funding for a superconductor, and I told him I'd use this opportunity to put him up with Jack Enlow.
p385
sg8
g23
sg10
VSAM
p386
sg12
g9
sa(dp387
g6
VYou're gonna get into a fight with Jack Enlow?
p388
sg8
g16
sg10
VLEO
p389
sg12
g9
sa(dp390
g6
VWhy does everybody think...? Never mind. I'm just doing him a favor.
p391
sg8
g9
sg10
VSAM
p392
sg12
g16
sa(dp393
g6
VOkay.
p394
sg8
g9
sg10
VLEO
p395
sg12
g9
sa(dp396
g6
VHow you feeling about the First Lady?
p397
sg8
g9
sg10
VSAM
p398
sg12
g9
sa(dp399
g6
VI was feeling good, and now I'm not.
p400
sg8
g23
sg10
VLEO
p401
sg12
g9
sa(dp402
g6
VWhy?
p403
sg8
g9
sg10
VSAM
p404
sg12
g9
sa(dp405
g6
VWe're checking out, but I think the swing vote's gonna recuse himself. He's a friend of the family.
p406
sg8
g23
sg10
VLEO
p407
sg12
g9
sa(dp408
g6
VThat means the President's gonna want to call him.
p409
sg8
g9
sg10
VSAM
p410
sg12
g9
sa(dp411
g6
VMaybe.
p412
sg8
g9
sg10
VLEO
p413
sg12
g9
sa(dp414
g6
VYeah, he can't.
p415
sg8
g9
sg10
VSAM
p416
sg12
g16
sa(dp417
g6
VWhat?
p418
sg8
g9
sg10
VLEO
p419
sg12
g9
sa(dp420
g6
VHe can't call him. It could send us into a whole new thing.
p421
sg8
g9
sg10
VSAM
p422
sg12
g16
sa(dp423
g6
VYou ever mix politics and the President's family and get a good result?
p424
sg8
g23
sg10
VLEO
p425
sg12
g23
sa(dp426
g6
VNo.
p427
sg8
g9
sg10
VSAM
p428
sg12
g9
sa(dp429
g6
VMe neither, and I've been a this a lot longer.
p430
sg8
g9
sg10
VLEO
p431
sg12
g9
sa(dp432
g6
VOkay. Seriously, he can't pick up the phone.
p433
sg8
g23
sg10
VSAM
p434
sg12
g9
sa(dp435
g6
VIsn't it called a Supercollider?
p436
sg8
g9
sg10
VLEO
p437
sg12
g16
sa(dp438
g6
VIs it?
p439
sg8
g9
sg10
VSAM
p440
sg12
g9
sa(dp441
g6
VYou called it a Superconductor.
p442
sg8
g9
sg10
VLEO
p443
sg12
g9
sa(dp444
g6
VWhatever.
p445
sg8
g9
sg10
VSAM
p446
sg12
g9
sa(dp447
g6
VKeep blood off your shirt.
p448
sg8
g9
sg10
VLEO
p449
sg12
g16
sa(dp450
g6
VI'm not an instigator. [exits]
p451
sg8
g9
sg10
VSAM
p452
sg12
g16
sa(dp453
g6
VDonna.
p454
sg8
g9
sg10
VJOSH
p455
sg12
g9
sa(dp456
g6
VHello.
p457
sg8
g9
sg10
VDONNA
p458
sg12
g9
sa(dp459
g6
VWhat are you doing here?
p460
sg8
g9
sg10
VJOSH
p461
sg12
g9
sa(dp462
g6
VAre you having a good time?
p463
sg8
g23
sg10
VDONNA
p464
sg12
g23
sa(dp465
g6
VThe party's started.
p466
sg8
g9
sg10
VJOSH
p467
sg12
g9
sa(dp468
g6
VIs the champagne flowing as smoothly as the badinage? Are there elegant men and beautiful gowns?
p469
sg8
g23
sg10
VDONNA
p470
sg12
g9
sa(dp471
g6
VThe men are in tuxes.
p472
sg8
g9
sg10
VJOSH
p473
sg12
g9
sa(dp474
g6
V'And beautiful gowns,' I said. Not 'in beautiful gowns.'
p475
sg8
g23
sg10
VDONNA
p476
sg12
g9
sa(dp477
g6
VWhat are you doing here?
p478
sg8
g9
sg10
VJOSH
p479
sg12
g9
sa(dp480
g6
VThere's a problem when the Secret Service did its routine background check on the guest list.
p481
sg8
g9
sg10
VDONNA
p482
sg12
g9
sa(dp483
g6
VA problem with what?
p484
sg8
g16
sg10
VJOSH
p485
sg12
g9
sa(dp486
g6
VWith me.
p487
sg8
g9
sg10
VDONNA
p488
sg12
g16
sa(dp489
g6
VDonna, you work in the White House. You fly with the President. What's the problem?
p490
sg8
g16
sg10
VJOSH
p491
sg12
g9
sa(dp492
g6
VI do not know.
p493
sg8
g9
sg10
VDONNA
p494
sg12
g16
sa(dp495
g6
VCome with me. Come to the party.
p496
sg8
g9
sg10
VJOSH
p497
sg12
g16
sa(dp498
g6
VI don't think I should do that.
p499
sg8
g9
sg10
VDONNA
p500
sg12
g16
sa(dp501
g6
VWhy?
p502
sg8
g9
sg10
VJOSH
p503
sg12
g9
sa(dp504
g6
VWell, they'll shoot me.
p505
sg8
g16
sg10
VDONNA
p506
sg12
g16
sa(dp507
g6
VThey didn't tell you what the problem was?
p508
sg8
g16
sg10
VJOSH
p509
sg12
g9
sa(dp510
g6
VThey said they'll get back to me.
p511
sg8
g9
sg10
VDONNA
p512
sg12
g9
sa(dp513
g6
VYou want me to get into it?
p514
sg8
g9
sg10
VJOSH
p515
sg12
g9
sa(dp516
g6
VThat would be very nice.
p517
sg8
g9
sg10
VDONNA
p518
sg12
g16
sa(dp519
g6
VYeah. You look good.
p520
sg8
g23
sg10
VJOSH
p521
sg12
g23
sa(dp522
g6
VThanks.
p523
sg8
g9
sg10
VDONNA
p524
sg12
g9
sa(dp525
g6
VDr. Millgate?
p526
sg8
g9
sg10
VSAM
p527
sg12
g9
sa(dp528
g6
VIt's been a long time.
p529
sg8
g9
sg10
VSAM
p530
sg12
g9
sa(dp531
g6
VYes.
p532
sg8
g9
sg10
VMILLGATE
p533
sg12
g23
sa(dp534
g6
VAnd now the student becomes the teacher, huh?
p535
sg8
g23
sg10
VSAM
p536
sg12
g9
sa(dp537
g6
VNot really. No.
p538
sg8
g9
sg10
VMILLGATE
p539
sg12
g9
sa(dp540
g6
VOkay. So did I disappoint you when I didn't go into physics?
p541
sg8
g9
sg10
VSAM
p542
sg12
g16
sa(dp543
g6
VNo.
p544
sg8
g9
sg10
VMILLGATE
p545
sg12
g9
sa(dp546
g6
VWhy?
p547
sg8
g9
sg10
VSAM
p548
sg12
g9
sa(dp549
g6
VYou were bad at it.
p550
sg8
g16
sg10
VMILLGATE
p551
sg12
g9
sa(dp552
g6
VNo, I wasn't.
p553
sg8
g9
sg10
VSAM
p554
sg12
g16
sa(dp555
g6
VYeah.
p556
sg8
g9
sg10
VMILLGATE
p557
sg12
g9
sa(dp558
g6
VI just needed a little encouragement.
p559
sg8
g23
sg10
VSAM
p560
sg12
g16
sa(dp561
g6
VNo.
p562
sg8
g9
sg10
VMILLGATE
p563
sg12
g9
sa(dp564
g6
VLook, Congress isn't gonna fund your damn Superconductor, all right?
p565
sg8
g16
sg10
VSAM
p566
sg12
g9
sa(dp567
g6
VSupercollider. Superconducting Supercollider. This is exactly what I'm talking about. A 54-mile tunnel, 150 feet below ground in which protons and antiprotons would be flung into each other at the speed of light. Can you remember that?
p568
sg8
g9
sg10
VMILLGATE
p569
sg12
g9
sa(dp570
g6
VYes.
p571
sg8
g9
sg10
VSAM
p572
sg12
g23
sa(dp573
g6
VGood 'cause when you talk about it, you should sound like an idiot.
p574
sg8
g9
sg10
VMILLGATE
p575
sg12
g9
sa(dp576
g6
VOkay.
p577
sg8
g9
sg10
VSAM
p578
sg12
g9
sa(dp579
g6
VThere's no lobby for this, Sam. There's no presence in Washington. It's just me on the Amtrak coming to see you. That's how seriously the government takes it.
p580
sg8
g9
sg10
VMILLGATE
p581
sg12
g9
sa(dp582
g6
VWell, there was a time...
p583
sg8
g9
sg10
VSAM
p584
sg12
g9
sa(dp585
g6
VI know.
p586
sg8
g9
sg10
VMILLGATE
p587
sg12
g16
sa(dp588
g6
VCongress spent two billion.
p589
sg8
g16
sg10
VSAM
p590
sg12
g9
sa(dp591
g6
VYeah, but all they did was clear the land and build the lab. We need the thing. Now, is he there?
p592
sg8
g23
sg10
VMILLGATE
p593
sg12
g9
sa(dp594
g6
VThe senator?
p595
sg8
g9
sg10
VSAM
p596
sg12
g9
sa(dp597
g6
VYeah.
p598
sg8
g9
sg10
VMILLGATE
p599
sg12
g9
sa(dp600
g6
VYeah.
p601
sg8
g9
sg10
VSAM
p602
sg12
g9
sa(dp603
g6
V'Cause you said he'd be there. You said he'd be at the party.
p604
sg8
g9
sg10
VMILLGATE
p605
sg12
g9
sa(dp606
g6
VHe's there.
p607
sg8
g9
sg10
VSAM
p608
sg12
g9
sa(dp609
g6
VGo talk to him. [sits]
p610
sg8
g23
sg10
VMILLGATE
p611
sg12
g9
sa(dp612
g6
VOkay. I said I'd do this, but it's likely he's gonna say this is an unaffordable luxury.
p613
sg8
g23
sg10
VSAM
p614
sg12
g9
sa(dp615
g6
VWe're losing the race for discovery, Sam. For discovery. Tonight, it's just me and you.
p616
sg8
g23
sg10
VMILLGATE
p617
sg12
g9
sa(dp618
g6
VThat doesn't really sound like enough.
p619
sg8
g9
sg10
VSAM
p620
sg12
g16
sa(dp621
g6
VNo.
p622
sg8
g9
sg10
VMILLGATE
p623
sg12
g9
sa(dp624
g6
VWhat hotel are you staying in?
p625
sg8
g9
sg10
VSAM
p626
sg12
g9
sa(dp627
g6
VI'm not staying in a hotel.
p628
sg8
g9
sg10
VMILLGATE
p629
sg12
g9
sa(dp630
g6
VWhere can I call you?
p631
sg8
g9
sg10
VSAM
p632
sg12
g16
sa(dp633
g6
VI'm gonna be right here.
p634
sg8
g9
sg10
VMILLGATE
p635
sg12
g16
sa(dp636
g6
VIt's not like a drive-up window, Dr. Millgate.
p637
sg8
g9
sg10
VSAM
p638
sg12
g16
sa(dp639
g6
VYou're wasting time.
p640
sg8
g16
sg10
VMILLGATE
p641
sg12
g9
sa(dp642
g6
VOkay. [exits]
p643
sg8
g9
sg10
VSAM
p644
sg12
g9
sa(dp645
g6
V[calls] Charlie!
p646
sg8
g16
sg10
VBARTLET
p647
sg12
g9
sa(dp648
g6
V[walks up] Yes, sir.
p649
sg8
g23
sg10
VCHARLIE
p650
sg12
g23
sa(dp651
g6
VI'm gonna need you later.
p652
sg8
g9
sg10
VBARTLET
p653
sg12
g9
sa(dp654
g6
VSure.
p655
sg8
g9
sg10
VCHARLIE
p656
sg12
g16
sa(dp657
g6
VI want to work on my toast.
p658
sg8
g23
sg10
VBARTLET
p659
sg12
g9
sa(dp660
g6
VDon't you want Sam or Toby?
p661
sg8
g9
sg10
VCHARLIE
p662
sg12
g9
sa(dp663
g6
VI don't need help writing it. I can write a damn toast. I just want to say it out loud to somebody. Any warm body is fine.
p664
sg8
g9
sg10
VBARTLET
p665
sg12
g16
sa(dp666
g6
VThank you, sir.
p667
sg8
g23
sg10
VCHARLIE
p668
sg12
g23
sa(dp669
g6
VSo when I give you the signal, we'll go off someplace.
p670
sg8
g9
sg10
VBARTLET
p671
sg12
g9
sa(dp672
g6
VWhat's the signal?
p673
sg8
g9
sg10
VCHARLIE
p674
sg12
g9
sa(dp675
g6
VIt'll be something like "Charlie, we're gonna go work on the toast now."
p676
sg8
g23
sg10
VBARTLET
p677
sg12
g9
sa(dp678
g6
VYes, sir. [leaves]
p679
sg8
g23
sg10
VCHARLIE
p680
sg12
g23
sa(dp681
g6
V[walks up] Excuse me.
p682
sg8
g9
sg10
VLEO
p683
sg12
g16
sa(dp684
g6
VYou finally got here.
p685
sg8
g23
sg10
VBARTLET
p686
sg12
g23
sa(dp687
g6
VYeah.
p688
sg8
g9
sg10
VLEO
p689
sg12
g9
sa(dp690
g6
VI think Abbey's gonna pull a hamstring about tomorrow.
p691
sg8
g9
sg10
VBARTLET
p692
sg12
g23
sa(dp693
g6
VYou mind if I talk to her a little bit?
p694
sg8
g23
sg10
VLEO
p695
sg12
g9
sa(dp696
g6
VAbout what?
p697
sg8
g9
sg10
VBARTLET
p698
sg12
g9
sa(dp699
g6
VYou know, what she should be saying tomorrow.
p700
sg8
g9
sg10
VLEO
p701
sg12
g9
sa(dp702
g6
VI'm feeling all right about it.
p703
sg8
g9
sg10
VBARTLET
p704
sg12
g9
sa(dp705
g6
VWell, just in case.
p706
sg8
g16
sg10
VLEO
p707
sg12
g16
sa(dp708
g6
V[turns to look at Abbey] I don't know. She's pretty pissed.
p709
sg8
g23
sg10
VBARTLET
p710
sg12
g9
sa(dp711
g6
VYeah, but at you, right?
p712
sg8
g9
sg10
VLEO
p713
sg12
g23
sa(dp714
g6
VYeah.
p715
sg8
g9
sg10
VBARTLET
p716
sg12
g9
sa(dp717
g6
VYeah. So?
p718
sg8
g9
sg10
VLEO
p719
sg12
g23
sa(dp720
g6
VAll right.
p721
sg8
g9
sg10
VBARTLET
p722
sg12
g9
sa(dp723
g6
VDid she like the fanfare?
p724
sg8
g23
sg10
VLEO
p725
sg12
g9
sa(dp726
g6
VLoved it.
p727
sg8
g9
sg10
VBARTLET
p728
sg12
g16
sa(dp729
g6
VOkay.
p730
sg8
g9
sg10
VLEO
p731
sg12
g9
sa(dp732
g6
VChuck!
p733
sg8
g9
sg10
VJOSH
p734
sg12
g9
sa(dp735
g6
VGood to see you.
p736
sg8
g9
sg10
VCHUCK
p737
sg12
g23
sa(dp738
g6
VI didn't know you were friends with the First Lady.
p739
sg8
g9
sg10
VJOSH
p740
sg12
g9
sa(dp741
g6
VMy wife.
p742
sg8
g9
sg10
VCHUCK
p743
sg12
g9
sa(dp744
g6
VOh, sure, yeah. You know Amy Gardner?
p745
sg8
g9
sg10
VJOSH
p746
sg12
g9
sa(dp747
g6
VJust by reputation.
p748
sg8
g9
sg10
VCHUCK
p749
sg12
g16
sa(dp750
g6
VUh-oh.
p751
sg8
g9
sg10
VAMY
p752
sg12
g9
sa(dp753
g6
VI thought you were great on Crossfire yesterday.
p754
sg8
g9
sg10
VCHUCK
p755
sg12
g9
sa(dp756
g6
VI don't think I was on Crossfire yesterday.
p757
sg8
g9
sg10
VAMY
p758
sg12
g16
sa(dp759
g6
VI meant Josh.
p760
sg8
g9
sg10
VCHUCK
p761
sg12
g16
sa(dp762
g6
VActually, you meant Sam.
p763
sg8
g9
sg10
VJOSH
p764
sg12
g23
sa(dp765
g6
VI heard it was you.
p766
sg8
g9
sg10
VCHUCK
p767
sg12
g9
sa(dp768
g6
VNo, but as long as you heard I was great.
p769
sg8
g9
sg10
VJOSH
p770
sg12
g9
sa(dp771
g6
VListen, uh, you still got my number right? About the thing?
p772
sg8
g9
sg10
VCHUCK
p773
sg12
g9
sa(dp774
g6
VYeah.
p775
sg8
g9
sg10
VJOSH
p776
sg12
g9
sa(dp777
g6
VNice meeting you.
p778
sg8
g9
sg10
VCHUCK
p779
sg12
g23
sa(dp780
g6
VGood seeing you, Chuck.
p781
sg8
g9
sg10
VJOSH
p782
sg12
g23
sa(dp783
g6
VAbout the thing? You guys pulling a heist?
p784
sg8
g9
sg10
VAMY
p785
sg12
g9
sa(dp786
g6
VNo.
p787
sg8
g9
sg10
VJOSH
p788
sg12
g9
sa(dp789
g6
VCome on. Let me in on the action. I can be a dame. I won't blow the whistle, get you cheesed.
p790
sg8
g23
sg10
VAMY
p791
sg12
g9
sa(dp792
g6
VNo, Mugsy. Chuck Kane heads Intergovernmental Affairs at Treasury, and he wants a job on the campaign as Deputy Political Director.
p793
sg8
g23
sg10
VJOSH
p794
sg12
g9
sa(dp795
g6
VIs he gonna get it?
p796
sg8
g9
sg10
VAMY
p797
sg12
g9
sa(dp798
g6
VI don't think so.
p799
sg8
g9
sg10
VJOSH
p800
sg12
g16
sa(dp801
g6
VWho else are you considering?
p802
sg8
g9
sg10
VAMY
p803
sg12
g9
sa(dp804
g6
VMark Rothman and Robbie Gill.
p805
sg8
g9
sg10
VJOSH
p806
sg12
g9
sa(dp807
g6
VHmm.
p808
sg8
g9
sg10
VAMY
p809
sg12
g9
sa(dp810
g6
VWhat?
p811
sg8
g9
sg10
VJOSH
p812
sg12
g9
sa(dp813
g6
VI was just thinking Mark and Robbie are funny names for women.
p814
sg8
g9
sg10
VAMY
p815
sg12
g16
sa(dp816
g6
VThey're men.
p817
sg8
g9
sg10
VJOSH
p818
sg12
g9
sa(dp819
g6
VI know.
p820
sg8
g9
sg10
VAMY
p821
sg12
g16
sa(dp822
g6
VThey happen to be men. [pulls Amy to the dance floor for a dance] They happen to be men.
p823
sg8
g23
sg10
VJOSH
p824
sg12
g9
sa(dp825
g6
VYou're not hiring enough women in senior positions for the campaign.
p826
sg8
g9
sg10
VAMY
p827
sg12
g9
sa(dp828
g6
VHow do you know?
p829
sg8
g9
sg10
VJOSH
p830
sg12
g9
sa(dp831
g6
VIt's my job to know.
p832
sg8
g23
sg10
VAMY
p833
sg12
g9
sa(dp834
g6
VWe're in a dangerous area right now.
p835
sg8
g16
sg10
VJOSH
p836
sg12
g9
sa(dp837
g6
VIf women were the only voters, the Democrats would win in a landslide every time. If men were the only voters, the GOP would be the left-wing party. Women are gonna be 60% of the vote. Don't you think they should make up, I don't know, 40% of the campaign staff?
p838
sg8
g16
sg10
VAMY
p839
sg12
g9
sa(dp840
g6
VLet me tell you why this is a dangerous area. Because I can't make decisions based on the fact that I like your smooth skin.
p841
sg8
g16
sg10
VJOSH
p842
sg12
g9
sa(dp843
g6
V[pause] You're right.
p844
sg8
g9
sg10
VAMY
p845
sg12
g9
sa(dp846
g6
VDon't try and trick me.
p847
sg8
g16
sg10
VJOSH
p848
sg12
g16
sa(dp849
g6
VNo, you're really right. This should be off limits to us.
p850
sg8
g9
sg10
VAMY
p851
sg12
g9
sa(dp852
g6
VYes.
p853
sg8
g9
sg10
VJOSH
p854
sg12
g23
sa(dp855
g6
VI apologize.
p856
sg8
g23
sg10
VAMY
p857
sg12
g23
sa(dp858
g6
VYou're trying to trick me.
p859
sg8
g16
sg10
VJOSH
p860
sg12
g16
sa(dp861
g6
VNo.
p862
sg8
g9
sg10
VAMY
p863
sg12
g9
sa(dp864
g6
VI'm gonna be scared for the rest of the night.
p865
sg8
g23
sg10
VJOSH
p866
sg12
g9
sa(dp867
g6
VHey, what happened to Donna?
p868
sg8
g9
sg10
VAMY
p869
sg12
g9
sa(dp870
g6
VDonna. Yes. Excuse me.
p871
sg8
g9
sg10
VJOSH
p872
sg12
g16
sa(dp873
g6
VJosh.
p874
sg8
g9
sg10
VLEO
p875
sg12
g9
sa(dp876
g6
VYeah.
p877
sg8
g9
sg10
VJOSH
p878
sg12
g9
sa(dp879
g6
VWhere's the President?
p880
sg8
g9
sg10
VLEO
p881
sg12
g9
sa(dp882
g6
VHe went off with Charlie to work on his toast.
p883
sg8
g23
sg10
VJOSH
p884
sg12
g9
sa(dp885
g6
VAll right. I'm gonna need a few minutes of uninterrupted time...
p886
sg8
g9
sg10
VLEO
p887
sg12
g9
sa(dp888
g6
V[annoyed] Yeah.
p889
sg8
g9
sg10
VLEO
p890
sg12
g9
sa(dp891
g6
VGerald, old sock.
p892
sg8
g9
sg10
VMARBURY
p893
sg12
g9
sa(dp894
g6
VI got to go. [walks off]
p895
sg8
g9
sg10
VJOSH
p896
sg12
g9
sa(dp897
g6
VYeah.
p898
sg8
g9
sg10
VLEO
p899
sg12
g9
sa(dp900
g6
VBrendan McGann cannot come to the White House.
p901
sg8
g9
sg10
VMARBURY
p902
sg12
g9
sa(dp903
g6
VHow are you, John?
p904
sg8
g9
sg10
VLEO
p905
sg12
g9
sa(dp906
g6
VI'm well, thank you very much, but Brendan McGann cannot come to the White House.
p907
sg8
g9
sg10
VMARBURY
p908
sg12
g9
sa(dp909
g6
VHang on. [calls] Toby!
p910
sg8
g16
sg10
VLEO
p911
sg12
g9
sa(dp912
g6
V[to Marbury] You know Toby Ziegler?
p913
sg8
g9
sg10
VLEO
p914
sg12
g9
sa(dp915
g6
VYeah. We've met on occasion.
p916
sg8
g9
sg10
VMARBURY
p917
sg12
g16
sa(dp918
g6
VToby, come here. [He does.] Lord John Marbury.
p919
sg8
g9
sg10
VLEO
p920
sg12
g9
sa(dp921
g6
VYes.
p922
sg8
g9
sg10
VMARBURY
p923
sg12
g23
sa(dp924
g6
V[clears throat] Good evening, Your, uh, Lordship.
p925
sg8
g9
sg10
VTOBY
p926
sg12
g9
sa(dp927
g6
VUh, well, good evening, yes.
p928
sg8
g23
sg10
VMARBURY
p929
sg12
g23
sa(dp930
g6
V[to Marbury] Talk to him about McGann. [walks off]
p931
sg8
g9
sg10
VLEO
p932
sg12
g9
sa(dp933
g6
VYou have objections to him coming to the White House?
p934
sg8
g9
sg10
VTOBY
p935
sg12
g9
sa(dp936
g6
VMy objections are irrelevant. I convey the objections of Her Majesty's Government.
p937
sg8
g16
sg10
VMARBURY
p938
sg12
g9
sa(dp939
g6
VWhich are?
p940
sg8
g9
sg10
VTOBY
p941
sg12
g23
sa(dp942
g6
VHe's a terrorist.
p943
sg8
g16
sg10
VMARBURY
p944
sg12
g16
sa(dp945
g6
VWell, let's hang on a second. Sinn Fein is a political party. In fact, the oldest in Ireland.
p946
sg8
g9
sg10
VTOBY
p947
sg12
g9
sa(dp948
g6
VAnd the political wing of the IRA...
p949
sg8
g9
sg10
VMARBURY
p950
sg12
g9
sa(dp951
g6
VSir...
p952
sg8
g9
sg10
VTOBY
p953
sg12
g9
sa(dp954
g6
VA terrorist cell.
p955
sg8
g16
sg10
VMARBURY
p956
sg12
g9
sa(dp957
g6
VI wouldn't...
p958
sg8
g9
sg10
VTOBY
p959
sg12
g16
sa(dp960
g6
VYou are honoring a man at your St. Patrick's Day dinner allied with car bombers and murderers of British soldiers. This not to mention Irish men, women and children.
p961
sg8
g23
sg10
VMARBURY
p962
sg12
g9
sa(dp963
g6
VYes, sir.
p964
sg8
g23
sg10
VTOBY
p965
sg12
g23
sa(dp966
g6
VAnd you're doing it to appease Democrats from New York City and Boston.
p967
sg8
g9
sg10
VMARBURY
p968
sg12
g9
sa(dp969
g6
VHe's not being honored. He's just been given an invitation.
p970
sg8
g23
sg10
VTOBY
p971
sg12
g16
sa(dp972
g6
VHe shouldn't be given a visa.
p973
sg8
g9
sg10
VMARBURY
p974
sg12
g16
sa(dp975
g6
VAnd I think we have to be careful how we use the word "terrorist." [pause] Can I call you John?
p976
sg8
g23
sg10
VTOBY
p977
sg12
g9
sa(dp978
g6
VI am John, Lord Marbury, Earl of Croy, Marquess of Needham and Dolby, Baronet of Brycey, England's Ambassador to the United States, and a terrorist is a terrorist even if he wears a green necktie and sings "Danny Boy." Yes, you can call me John.
p979
sg8
g16
sg10
VMARBURY
p980
sg12
g9
sa(dp981
g6
V[smiles a little] You feel like a drink?
p982
sg8
g9
sg10
VTOBY
p983
sg12
g16
sa(dp984
g6
VYeah, I was looking for some Lagavulin. It's a 16 year old islay single malt.
p985
sg8
g9
sg10
VMARBURY
p986
sg12
g9
sa(dp987
g6
VI know Lagavulin.
p988
sg8
g9
sg10
VTOBY
p989
sg12
g16
sa(dp990
g6
VThey usually have it here.
p991
sg8
g9
sg10
VMARBURY
p992
sg12
g9
sa(dp993
g6
VLet's go down the street. The guy keeps a bottle there.
p994
sg8
g9
sg10
VTOBY
p995
sg12
g9
sa(dp996
g6
VOh. Lead on.
p997
sg8
g9
sg10
VMARBURY
p998
sg12
g9
sa(dp999
g6
VExcuse me, Senator.
p1000
sg8
g9
sg10
VSAM
p1001
sg12
g16
sa(dp1002
g6
VSam Seaborn.
p1003
sg8
g9
sg10
VSAM
p1004
sg12
g9
sa(dp1005
g6
VSure.
p1006
sg8
g9
sg10
VENLOW
p1007
sg12
g16
sa(dp1008
g6
VI was wondering if you had a moment.
p1009
sg8
g9
sg10
VSAM
p1010
sg12
g16
sa(dp1011
g6
VActually, I promised my wife a dance.
p1012
sg8
g23
sg10
VENLOW
p1013
sg12
g23
sa(dp1014
g6
VThis will just take a moment. Believe it or not, I have an eminent physicist in my office. Dr. Millgate. You heard of him?
p1015
sg8
g23
sg10
VSAM
p1016
sg12
g9
sa(dp1017
g6
V[stops and turns] Yes.
p1018
sg8
g9
sg10
VENLOW
p1019
sg12
g16
sa(dp1020
g6
VHe was asking me about the Supercollider, and I didn't have any answers, and...
p1021
sg8
g9
sg10
VSAM
p1022
sg12
g16
sa(dp1023
g6
VIt's dead.
p1024
sg8
g9
sg10
VENLOW
p1025
sg12
g9
sa(dp1026
g6
VIt is?
p1027
sg8
g9
sg10
VSAM
p1028
sg12
g9
sa(dp1029
g6
VAs a Greek poet.
p1030
sg8
g9
sg10
VENLOW
p1031
sg12
g23
sa(dp1032
g6
VWell, I'm sure there's some poets alive in Greece someplace. Can you tell me how it died?
p1033
sg8
g23
sg10
VSAM
p1034
sg12
g9
sa(dp1035
g6
VI don't know.
p1036
sg8
g9
sg10
VENLOW
p1037
sg12
g16
sa(dp1038
g6
VForgive me, sir. You're ranking member of the authorizing subcommittee. How can you not know?
p1039
sg8
g23
sg10
VSAM
p1040
sg12
g9
sa(dp1041
g6
VIt was put on anonymous hold.
p1042
sg8
g16
sg10
VENLOW
p1043
sg12
g9
sa(dp1044
g6
VThat only applies to nominations.
p1045
sg8
g9
sg10
VSAM
p1046
sg12
g9
sa(dp1047
g6
VApparently, you're wrong.
p1048
sg8
g16
sg10
VENLOW
p1049
sg12
g16
sa(dp1050
g6
VSenator...
p1051
sg8
g9
sg10
VSAM
p1052
sg12
g9
sa(dp1053
g6
VAnyone can hold any bill for any reason.
p1054
sg8
g23
sg10
VENLOW
p1055
sg12
g16
sa(dp1056
g6
VI don't understand. You file an objection. How long does it last?
p1057
sg8
g16
sg10
VSAM
p1058
sg12
g16
sa(dp1059
g6
VUntil the senator loses or dies. All you have to do is tell your party's floor leader.
p1060
sg8
g23
sg10
VENLOW
p1061
sg12
g9
sa(dp1062
g6
VThat's insane.
p1063
sg8
g16
sg10
VSAM
p1064
sg12
g16
sa(dp1065
g6
VSays you.
p1066
sg8
g9
sg10
VENLOW
p1067
sg12
g23
sa(dp1068
g6
VSenator, this isn't a duck hunter with a gripe in my office. It's Dalton Millgate. Now who's blocking the damn Supercollider.
p1069
sg8
g16
sg10
VSAM
p1070
sg12
g9
sa(dp1071
g6
VTo guess would compromise the spirit of the anonymous hold.
p1072
sg8
g9
sg10
VENLOW
p1073
sg12
g9
sa(dp1074
g6
VTo tell me would compromise the spirit of autocratic obstructionism.
p1075
sg8
g9
sg10
VSAM
p1076
sg12
g9
sa(dp1077
g6
VWe're talking about the U.S. Senate, kid. We're the saucer that cools the coffee.
p1078
sg8
g9
sg10
VENLOW
p1079
sg12
g9
sa(dp1080
g6
VAnd the drain that swallows it, sir.
p1081
sg8
g23
sg10
VSAM
p1082
sg12
g23
sa(dp1083
g6
VCheck around. I'm on record in favor of it.
p1084
sg8
g9
sg10
VENLOW
p1085
sg12
g9
sa(dp1086
g6
VThank God the hold's anonymous. [pause, realizes] It's you.
p1087
sg8
g16
sg10
VSAM
p1088
sg12
g9
sa(dp1089
g6
VSam, you really care about the Superconducting Supercollider?
p1090
sg8
g9
sg10
VENLOW
p1091
sg12
g9
sa(dp1092
g6
VI didn't before. It's a long night, and we're not done yet. Go dance with your wife.
p1093
sg8
g23
sg10
VSAM
p1094
sg12
g9
sa(dp1095
g6
VHi.
p1096
sg8
g9
sg10
VJOSH
p1097
sg12
g9
sa(dp1098
g6
VThey covered the arrivals on the news. Everyone looked so nice. And happy.
p1099
sg8
g23
sg10
VDONNA
p1100
sg12
g9
sa(dp1101
g6
VI brought you some food.
p1102
sg8
g23
sg10
VJOSH
p1103
sg12
g23
sa(dp1104
g6
VWhat's going on?
p1105
sg8
g9
sg10
VDONNA
p1106
sg12
g9
sa(dp1107
g6
VWell, I-I don't have all the answers, but it's pretty weird, so far.
p1108
sg8
g9
sg10
VJOSH
p1109
sg12
g16
sa(dp1110
g6
VWhat?
p1111
sg8
g9
sg10
VDONNA
p1112
sg12
g9
sa(dp1113
g6
VSecret Service says there's an INS notation next to your name.
p1114
sg8
g9
sg10
VJOSH
p1115
sg12
g9
sa(dp1116
g6
VWhat kind of notation?
p1117
sg8
g23
sg10
VDONNA
p1118
sg12
g23
sa(dp1119
g6
VU.S. Citizen: N.
p1120
sg8
g9
sg10
VJOSH
p1121
sg12
g9
sa(dp1122
g6
VThey're saying I'm not a U.S. citizen?
p1123
sg8
g23
sg10
VDONNA
p1124
sg12
g9
sa(dp1125
g6
VNo, it... Yes.
p1126
sg8
g9
sg10
VJOSH
p1127
sg12
g9
sa(dp1128
g6
VI-I don't understand.
p1129
sg8
g9
sg10
VDONNA
p1130
sg12
g16
sa(dp1131
g6
VT-They're saying...
p1132
sg8
g9
sg10
VJOSH
p1133
sg12
g9
sa(dp1134
g6
VI'm a U.S. citizen. I was born in Minnesota. We moved to Wisconsin. Now, I live in Washington. What the hell happened?
p1135
sg8
g9
sg10
VDONNA
p1136
sg12
g9
sa(dp1137
g6
VA mistake of some kind.
p1138
sg8
g9
sg10
VJOSH
p1139
sg12
g9
sa(dp1140
g6
VYou think?
p1141
sg8
g9
sg10
VDONNA
p1142
sg12
g9
sa(dp1143
g6
VWe're sorting it out.
p1144
sg8
g9
sg10
VJOSH
p1145
sg12
g16
sa(dp1146
g6
VI voted in every election since I... I paid, by the way, taxes as a citizen of this country. I have a birth certificate and a passport.
p1147
sg8
g23
sg10
VDONNA
p1148
sg12
g9
sa(dp1149
g6
VIt'll just take a few more minutes.
p1150
sg8
g9
sg10
VJOSH
p1151
sg12
g9
sa(dp1152
g6
VYou brought food?
p1153
sg8
g23
sg10
VDONNA
p1154
sg12
g23
sa(dp1155
g6
VOlives. [fishes his pockets]
p1156
sg8
g9
sg10
VJOSH
p1157
sg12
g9
sa(dp1158
g6
VGo away.
p1159
sg8
g9
sg10
VDONNA
p1160
sg12
g9
sa(dp1161
g6
VAll right.
p1162
sg8
g9
sg10
VJOSH
p1163
sg12
g9
sa(dp1164
g6
VGive me the olives.
p1165
sg8
g9
sg10
VDONNA
p1166
sg12
g16
sa(dp1167
g6
VOkay.
p1168
sg8
g9
sg10
VJOSH
p1169
sg12
g9
sa(dp1170
g6
VI'd kind of like to wait until we know something for sure before we start planning.
p1171
sg8
g23
sg10
VABBEY
p1172
sg12
g9
sa(dp1173
g6
VYeah. The thing is though, the first day's important. What I like to do, for instance, is schedule a public event, show we're not scared.
p1174
sg8
g23
sg10
VLEO
p1175
sg12
g9
sa(dp1176
g6
V[clears throat] What about a comment?
p1177
sg8
g9
sg10
VABBEY
p1178
sg12
g9
sa(dp1179
g6
VYou'll make a comment, but body language is gonna be just as important. Can't hang your head. You got to smile, but you look smug...
p1180
sg8
g23
sg10
VLEO
p1181
sg12
g23
sa(dp1182
g6
VYeah.
p1183
sg8
g9
sg10
VABBEY
p1184
sg12
g9
sa(dp1185
g6
VYou got to...
p1186
sg8
g9
sg10
VLEO
p1187
sg12
g23
sa(dp1188
g6
VYeah. Yeah.
p1189
sg8
g9
sg10
VABBEY
p1190
sg12
g9
sa(dp1191
g6
VAnd there can't be... Obviously, there can't be no reaction.
p1192
sg8
g9
sg10
VLEO
p1193
sg12
g16
sa(dp1194
g6
VWhat about the campaign?
p1195
sg8
g9
sg10
VABBEY
p1196
sg12
g9
sa(dp1197
g6
V[pause] I'm not gonna tell a man's wife she can't campaign.
p1198
sg8
g9
sg10
VLEO
p1199
sg12
g9
sa(dp1200
g6
VI don't know what that means.
p1201
sg8
g9
sg10
VABBEY
p1202
sg12
g16
sa(dp1203
g6
VI think we can get a lot of use out of you in targeted Democratic areas. Big cities, evening fundraisers. We'll keep you out of the South.
p1204
sg8
g9
sg10
VLEO
p1205
sg12
g9
sa(dp1206
g6
V[pause] Can we talk about this tomorrow?
p1207
sg8
g23
sg10
VABBEY
p1208
sg12
g9
sa(dp1209
g6
VWe just need to...
p1210
sg8
g9
sg10
VLEO
p1211
sg12
g16
sa(dp1212
g6
VHow about tomorrow?
p1213
sg8
g9
sg10
VABBEY
p1214
sg12
g9
sa(dp1215
g6
VIt's important.
p1216
sg8
g23
sg10
VLEO
p1217
sg12
g23
sa(dp1218
g6
VA lot of things are important.
p1219
sg8
g23
sg10
VABBEY
p1220
sg12
g23
sa(dp1221
g6
VOf course.
p1222
sg8
g9
sg10
VLEO
p1223
sg12
g9
sa(dp1224
g6
VI'm sorry. Enjoy the party.
p1225
sg8
g9
sg10
VLEO
p1226
sg12
g16
sa(dp1227
g6
VThanks you.
p1228
sg8
g9
sg10
VABBEY
p1229
sg12
g23
sa(dp1230
g6
V"I've known my wife, Abbey, for nearly 150 years." No, I'm not gonna do that. She's not gonna think that's funny.
p1231
sg8
g9
sg10
VBARTLET
p1232
sg12
g9
sa(dp1233
g6
VYeah.
p1234
sg8
g9
sg10
VCHARLIE
p1235
sg12
g9
sa(dp1236
g6
VOkay. I should... Yeah. Okay. "Thank you all for being here tonight." By the way, do you know where the term "toast" comes from?
p1237
sg8
g23
sg10
VBARTLET
p1238
sg12
g9
sa(dp1239
g6
VCan I say something, sir?
p1240
sg8
g23
sg10
VCHARLIE
p1241
sg12
g9
sa(dp1242
g6
VYeah.
p1243
sg8
g9
sg10
VBARTLET
p1244
sg12
g9
sa(dp1245
g6
VI'd stick to Mrs. Bartlet and not get into entomology so much.
p1246
sg8
g9
sg10
VCHARLIE
p1247
sg12
g16
sa(dp1248
g6
VI was talking to you.
p1249
sg8
g9
sg10
VBARTLET
p1250
sg12
g9
sa(dp1251
g6
VAh.
p1252
sg8
g9
sg10
VCHARLIE
p1253
sg12
g9
sa(dp1254
g6
VThe Stuarts. They put a piece of toast in your wine cup to improve the flavor.
p1255
sg8
g23
sg10
VBARTLET
p1256
sg12
g9
sa(dp1257
g6
VInteresting.
p1258
sg8
g9
sg10
VCHARLIE
p1259
sg12
g9
sa(dp1260
g6
V1643. Members of the Middle Temple toasted Princess Elizabeth by pledging to die in her service.
p1261
sg8
g16
sg10
VBARTLET
p1262
sg12
g9
sa(dp1263
g6
VHey, that could be the button.
p1264
sg8
g9
sg10
VCHARLIE
p1265
sg12
g16
sa(dp1266
g6
V[walks up] Excuse me, Mr. President.
p1267
sg8
g9
sg10
VC.J.
p1268
sg12
g9
sa(dp1269
g6
VC.J., I haven't seen you all night.
p1270
sg8
g9
sg10
VBARTLET
p1271
sg12
g9
sa(dp1272
g6
VI haven't been able to make it out there yet, sir. I've been tracking something down.
p1273
sg8
g23
sg10
VC.J.
p1274
sg12
g16
sa(dp1275
g6
VCharlie.
p1276
sg8
g9
sg10
VBARTLET
p1277
sg12
g9
sa(dp1278
g6
VYes, sir. [walks back to the party]
p1279
sg8
g23
sg10
VCHARLIE
p1280
sg12
g9
sa(dp1281
g6
V[to C.J.] What is it?
p1282
sg8
g9
sg10
VBARTLET
p1283
sg12
g9
sa(dp1284
g6
VA piece on the Manchester Union-Leader. [reads from a note] "Sources close to Robert Nolan, president of the New Hampshire Medical Board, predict that he will announce his recusal from the case because of his personal..."
p1285
sg8
g9
sg10
VC.J.
p1286
sg12
g9
sa(dp1287
g6
VNo. Damn it.
p1288
sg8
g9
sg10
VBARTLET
p1289
sg12
g9
sa(dp1290
g6
V"...relationship with the Bartlets." What does this mean for her?
p1291
sg8
g9
sg10
VC.J.
p1292
sg12
g9
sa(dp1293
g6
VWe're pretty sure the Board was evenly divided, and Nolan was the deciding vote, which dictated a lot of her... Damn it!
p1294
sg8
g23
sg10
VBARTLET
p1295
sg12
g9
sa(dp1296
g6
VThere was a personal relationship.
p1297
sg8
g9
sg10
VC.J.
p1298
sg12
g9
sa(dp1299
g6
VYeah, they worked together for 20 years, and I was the governor who appointed him to the Board.
p1300
sg8
g9
sg10
VBARTLET
p1301
sg12
g9
sa(dp1302
g6
V[walks up] Excuse me, sir.
p1303
sg8
g23
sg10
VLEO
p1304
sg12
g16
sa(dp1305
g6
VC.J., you should probably tell Abbey.
p1306
sg8
g9
sg10
VBARTLET
p1307
sg12
g9
sa(dp1308
g6
VYes, sir.
p1309
sg8
g23
sg10
VC.J.
p1310
sg12
g23
sa(dp1311
g6
VThanks.
p1312
sg8
g9
sg10
VBARTLET
p1313
sg12
g9
sa(dp1314
g6
VThank you, Mr. President. [leaves]
p1315
sg8
g9
sg10
VC.J.
p1316
sg12
g9
sa(dp1317
g6
VThe Union-Leader says Nolan's gonna recuse himself.
p1318
sg8
g9
sg10
VBARTLET
p1319
sg12
g9
sa(dp1320
g6
VWhat's gonna happen?
p1321
sg8
g9
sg10
VLEO
p1322
sg12
g9
sa(dp1323
g6
VThey're gonna suspend her license for a year.
p1324
sg8
g9
sg10
VBARTLET
p1325
sg12
g9
sa(dp1326
g6
VWe just talked for a little bit.
p1327
sg8
g9
sg10
VLEO
p1328
sg12
g16
sa(dp1329
g6
VAnd?
p1330
sg8
g9
sg10
VBARTLET
p1331
sg12
g16
sa(dp1332
g6
VI don't think you need to be concerned about her leaving you for me.
p1333
sg8
g9
sg10
VLEO
p1334
sg12
g9
sa(dp1335
g6
VI was pretty concerned about that.
p1336
sg8
g23
sg10
VBARTLET
p1337
sg12
g9
sa(dp1338
g6
VShe's definitely leaving you for somebody, so don't be so...
p1339
sg8
g9
sg10
VLEO
p1340
sg12
g9
sa(dp1341
g6
VCan you leave me alone? I'm trying to be a husband, and your mojo's getting all over me.
p1342
sg8
g16
sg10
VBARTLET
p1343
sg12
g16
sa(dp1344
g6
V[pause] Marbury's sitting with Toby.
p1345
sg8
g9
sg10
VLEO
p1346
sg12
g9
sa(dp1347
g6
VThis is Brendan McGann, right?
p1348
sg8
g9
sg10
VBARTLET
p1349
sg12
g23
sa(dp1350
g6
VYeah.
p1351
sg8
g9
sg10
VLEO
p1352
sg12
g9
sa(dp1353
g6
VYeah. I don't know what to say about that.
p1354
sg8
g9
sg10
VBARTLET
p1355
sg12
g9
sa(dp1356
g6
V[pause] I'll see you inside.
p1357
sg8
g9
sg10
VLEO
p1358
sg12
g9
sa(dp1359
g6
VYeah.
p1360
sg8
g9
sg10
VBARTLET
p1361
sg12
g9
sa(dp1362
g6
VThank you, Mr. President.
p1363
sg8
g9
sg10
VLEO
p1364
sg12
g9
sa(dp1365
g6
VJosh.
p1366
sg8
g9
sg10
VABBEY
p1367
sg12
g9
sa(dp1368
g6
VGood evening, ma'am.
p1369
sg8
g9
sg10
VJOSH
p1370
sg12
g23
sa(dp1371
g6
VListen, I'm sorry to do this at a party, but this is a list of names I'd like you to consider for Deputy Political Director. [hands him a piece of paper]
p1372
sg8
g9
sg10
VABBEY
p1373
sg12
g9
sa(dp1374
g6
VUh... we got it down to a few finals.
p1375
sg8
g9
sg10
VJOSH
p1376
sg12
g9
sa(dp1377
g6
VYeah. I'd like you to add these names.
p1378
sg8
g9
sg10
VABBEY
p1379
sg12
g16
sa(dp1380
g6
VI can't help noticing these are all women.
p1381
sg8
g9
sg10
VJOSH
p1382
sg12
g9
sa(dp1383
g6
VWomen are 60% of our vote, Josh. Don't you think they should make up at least 40% of our campaign staff?
p1384
sg8
g9
sg10
VABBEY
p1385
sg12
g9
sa(dp1386
g6
VI'm sorry?
p1387
sg8
g9
sg10
VJOSH
p1388
sg12
g16
sa(dp1389
g6
V[walks up] Mrs. Bartlet?
p1390
sg8
g9
sg10
VC.J.
p1391
sg12
g16
sa(dp1392
g6
V[to Josh] I said women are 60% of our vote. Don't you think...?
p1393
sg8
g9
sg10
VABBEY
p1394
sg12
g9
sa(dp1395
g6
VYeah.
p1396
sg8
g9
sg10
VJOSH
p1397
sg12
g9
sa(dp1398
g6
VYou'll get on it?
p1399
sg8
g9
sg10
VABBEY
p1400
sg12
g9
sa(dp1401
g6
VYes, ma'am.
p1402
sg8
g9
sg10
VJOSH
p1403
sg12
g23
sa(dp1404
g6
VHaving a good time?
p1405
sg8
g23
sg10
VABBEY
p1406
sg12
g23
sa(dp1407
g6
VYou bet. [walks off]
p1408
sg8
g9
sg10
VJOSH
p1409
sg12
g16
sa(dp1410
g6
V[to C.J.] You look beautiful.
p1411
sg8
g23
sg10
VABBEY
p1412
sg12
g23
sa(dp1413
g6
VThank you, ma'am, and so do you.
p1414
sg8
g9
sg10
VC.J.
p1415
sg12
g23
sa(dp1416
g6
VI need to speak with you for a second.
p1417
sg8
g9
sg10
VC.J.
p1418
sg12
g9
sa(dp1419
g6
VOh, this can't be good.
p1420
sg8
g23
sg10
VABBEY
p1421
sg12
g16
sa(dp1422
g6
VNo, I'm afraid not. Abbey, the Union-Leader's got sources saying Dr. Nolan's gonna recuse himself from the case.
p1423
sg8
g16
sg10
VC.J.
p1424
sg12
g9
sa(dp1425
g6
VClaudia Jean?
p1426
sg8
g9
sg10
VABBEY
p1427
sg12
g9
sa(dp1428
g6
VYes, ma'am?
p1429
sg8
g9
sg10
VC.J.
p1430
sg12
g23
sa(dp1431
g6
VLet's get drunk.
p1432
sg8
g9
sg10
VABBEY
p1433
sg12
g9
sa(dp1434
g6
V[surprised] Oh, okay.
p1435
sg8
g9
sg10
VC.J.
p1436
sg12
g23
sa(dp1437
g6
VHey, it's a list of women.
p1438
sg8
g9
sg10
VAMY
p1439
sg12
g9
sa(dp1440
g6
V[sits] Yes, it is.
p1441
sg8
g9
sg10
VJOSH
p1442
sg12
g23
sa(dp1443
g6
VShe got right on it.
p1444
sg8
g9
sg10
VAMY
p1445
sg12
g23
sa(dp1446
g6
VYes, she did.
p1447
sg8
g9
sg10
VJOSH
p1448
sg12
g9
sa(dp1449
g6
VDo you love me?
p1450
sg8
g23
sg10
VAMY
p1451
sg12
g9
sa(dp1452
g6
VYou went over my head, and you did it behind my back.
p1453
sg8
g9
sg10
VJOSH
p1454
sg12
g16
sa(dp1455
g6
VQuite the contortionist, am I.
p1456
sg8
g9
sg10
VAMY
p1457
sg12
g9
sa(dp1458
g6
VWhat kind of position is Abbey Bartlet in to know anything...?
p1459
sg8
g23
sg10
VJOSH
p1460
sg12
g9
sa(dp1461
g6
VAmy.
p1462
sg8
g9
sg10
VABBEY
p1463
sg12
g9
sa(dp1464
g6
VYes, ma'am.
p1465
sg8
g9
sg10
VAMY
p1466
sg12
g23
sa(dp1467
g6
VC.J. and I are gonna get drunk. Come on.
p1468
sg8
g9
sg10
VABBEY
p1469
sg12
g16
sa(dp1470
g6
VYes, ma'am.
p1471
sg8
g9
sg10
VAMY
p1472
sg12
g23
sa(dp1473
g6
VYou're going?
p1474
sg8
g9
sg10
VJOSH
p1475
sg12
g9
sa(dp1476
g6
VThe First Lady just asked me to get boozy with her. You don't think I want to write a book one day?
p1477
sg8
g9
sg10
VAMY
p1478
sg12
g9
sa(dp1479
g6
VAmy... [his pager beeps]
p1480
sg8
g9
sg10
VJOSH
p1481
sg12
g9
sa(dp1482
g6
VYou're beeping. [walks off]
p1483
sg8
g9
sg10
VAMY
p1484
sg12
g9
sa(dp1485
g6
VAll right. Listen.
p1486
sg8
g9
sg10
VSAM
p1487
sg12
g9
sa(dp1488
g6
VYes? [stands]
p1489
sg8
g9
sg10
VMILLGATE
p1490
sg12
g23
sa(dp1491
g6
VWell, first of all, you're not allowed to smoke in the White House.
p1492
sg8
g9
sg10
VSAM
p1493
sg12
g9
sa(dp1494
g6
VYou're kidding.
p1495
sg8
g9
sg10
VMILLGATE
p1496
sg12
g9
sa(dp1497
g6
VNo.
p1498
sg8
g9
sg10
VSAM
p1499
sg12
g9
sa(dp1500
g6
VAnd the search for civilization continues.
p1501
sg8
g23
sg10
VMILLGATE
p1502
sg12
g9
sa(dp1503
g6
VCome outside.
p1504
sg8
g9
sg10
VSAM
p1505
sg12
g9
sa(dp1506
g6
VI need you to tell me everything you can tell me about the Superconducting Supercollider.
p1507
sg8
g9
sg10
VSAM
p1508
sg12
g9
sa(dp1509
g6
VHow much time do we have?
p1510
sg8
g9
sg10
VMILLGATE
p1511
sg12
g9
sa(dp1512
g6
VAbout ten minutes.
p1513
sg8
g9
sg10
VSAM
p1514
sg12
g9
sa(dp1515
g6
VIf you pay close attention, stay very, very quiet, I can teach you how to spell it.
p1516
sg8
g23
sg10
VMILLGATE
p1517
sg12
g23
sa(dp1518
g6
VListen. This is what I do. I get things fast.
p1519
sg8
g9
sg10
VSAM
p1520
sg12
g16
sa(dp1521
g6
VSince when?
p1522
sg8
g9
sg10
VMILLGATE
p1523
sg12
g9
sa(dp1524
g6
VWhat is it?
p1525
sg8
g9
sg10
VSAM
p1526
sg12
g9
sa(dp1527
g6
VIt's a machine that reveals the origin of matter, and I'm assuming from the look on your face $1000 on the table, you couldn't tell me what matter is.
p1528
sg8
g9
sg10
VMILLGATE
p1529
sg12
g9
sa(dp1530
g6
VYou know what? I had four years. There's a lot of knowledge out there. I may have missed some... things.
p1531
sg8
g23
sg10
VSAM
p1532
sg12
g9
sa(dp1533
g6
VBy smashing protons together at very high speeds and at very high temperatures, we can recreate the Big Bang in a laboratory setting, creating the kinds of particles that only existed in the first trillionth of a second after the universe was created.
p1534
sg8
g9
sg10
VMILLGATE
p1535
sg12
g9
sa(dp1536
g6
VOkay, terrific. I understand that. What kind of practical applications does it have?
p1537
sg8
g23
sg10
VSAM
p1538
sg12
g16
sa(dp1539
g6
VNone at all.
p1540
sg8
g9
sg10
VMILLGATE
p1541
sg12
g9
sa(dp1542
g6
VYou're not in any way a helpful person.
p1543
sg8
g23
sg10
VSAM
p1544
sg12
g9
sa(dp1545
g6
VDon't have to be. I have tenure.
p1546
sg8
g9
sg10
VMILLGATE
p1547
sg12
g16
sa(dp1548
g6
VDoctor.
p1549
sg8
g9
sg10
VSAM
p1550
sg12
g9
sa(dp1551
g6
VThere are no practical applications, Sam. Anybody who says different is lying.
p1552
sg8
g16
sg10
VMILLGATE
p1553
sg12
g16
sa(dp1554
g6
VI need to be able to show him I can paint him against something. Children, baseball, campaign finance. What does it mean to be against the Supercollider?
p1555
sg8
g9
sg10
VSAM
p1556
sg12
g9
sa(dp1557
g6
VI really don't know where to start.
p1558
sg8
g9
sg10
VMILLGATE
p1559
sg12
g16
sa(dp1560
g6
VCome on.
p1561
sg8
g9
sg10
VSAM
p1562
sg12
g9
sa(dp1563
g6
VI really don't. Listen, what's your motivation?
p1564
sg8
g9
sg10
VMILLGATE
p1565
sg12
g16
sa(dp1566
g6
VWhat are you talking about? You called me and asked me...
p1567
sg8
g9
sg10
VSAM
p1568
sg12
g9
sa(dp1569
g6
VWell, you did me the favor, but now you're still going.
p1570
sg8
g9
sg10
VMILLGATE
p1571
sg12
g9
sa(dp1572
g6
V[pause] I have a history with this particular senator.
p1573
sg8
g9
sg10
VSAM
p1574
sg12
g9
sa(dp1575
g6
VOh, well, uh, that's a really stupid ass reason, Sam.
p1576
sg8
g16
sg10
VMILLGATE
p1577
sg12
g9
sa(dp1578
g6
VI like to win.
p1579
sg8
g9
sg10
VSAM
p1580
sg12
g9
sa(dp1581
g6
VSo this guy ate your Fruit Loops...?
p1582
sg8
g9
sg10
VMILLGATE
p1583
sg12
g9
sa(dp1584
g6
VWhat do you care?
p1585
sg8
g9
sg10
VSAM
p1586
sg12
g9
sa(dp1587
g6
VI don't.
p1588
sg8
g9
sg10
VMILLGATE
p1589
sg12
g16
sa(dp1590
g6
VWhat's your motivation?
p1591
sg8
g9
sg10
VSAM
p1592
sg12
g9
sa(dp1593
g6
VI'm a particle physicist.
p1594
sg8
g9
sg10
VMILLGATE
p1595
sg12
g16
sa(dp1596
g6
VNot suddenly. Why now?
p1597
sg8
g9
sg10
VSAM
p1598
sg12
g9
sa(dp1599
g6
VThe budget resolution has to be passed by April 15. That means the authorizing bill to Senate Appropriations has to go up mid-March. Now, you can shoehorn a road or a bridge at the last minute, but not $12 million for a Supercollider. Also... I have Non-Hodgkins Lymphoma.
p1600
sg8
g9
sg10
VMILLGATE
p1601
sg12
g9
sa(dp1602
g6
VI think there's something to be said for giving McGann credibility by inviting him to the White House. It strengthens his hand in-in dealing with the more violent members of the party.
p1603
sg8
g23
sg10
VTOBY
p1604
sg12
g9
sa(dp1605
g6
VDegrees of violent.
p1606
sg8
g16
sg10
VMARBURY
p1607
sg12
g16
sa(dp1608
g6
VWe also think if we legitimize him, the Protestants will wake up and accept they've got to negotiate with somebody.
p1609
sg8
g23
sg10
VTOBY
p1610
sg12
g9
sa(dp1611
g6
VToby, you were the author, were you not, of the President's speech at the General Assembly?
p1612
sg8
g23
sg10
VMARBURY
p1613
sg12
g9
sa(dp1614
g6
VThere were many authors.
p1615
sg8
g9
sg10
VTOBY
p1616
sg12
g16
sa(dp1617
g6
VOf which you were one. Two days ago, the IRA formally backed out of its promise to put its weapons beyond use...
p1618
sg8
g23
sg10
VMARBURY
p1619
sg12
g9
sa(dp1620
g6
VI--
p1621
sg8
g9
sg10
VTOBY
p1622
sg12
g16
sa(dp1623
g6
V...as agreed to in the Good Friday Peace Accord. True/False: Until it disarms the IRA and its political representatives in Sinn Fein are a terrorist group.
p1624
sg8
g9
sg10
VMARBURY
p1625
sg12
g9
sa(dp1626
g6
VTrue.
p1627
sg8
g9
sg10
VTOBY
p1628
sg12
g9
sa(dp1629
g6
VWhen did it become policy of the United States to negotiate with terrorists?
p1630
sg8
g23
sg10
VMARBURY
p1631
sg12
g9
sa(dp1632
g6
VWe've had Arafat here, John.
p1633
sg8
g9
sg10
VTOBY
p1634
sg12
g9
sa(dp1635
g6
VAnd, my heaven, isn't that paying bloody dividends.
p1636
sg8
g16
sg10
VMARBURY
p1637
sg12
g16
sa(dp1638
g6
VIt wasn't worth trying?
p1639
sg8
g23
sg10
VTOBY
p1640
sg12
g16
sa(dp1641
g6
VYou're making the mistake of youth.
p1642
sg8
g9
sg10
VMARBURY
p1643
sg12
g9
sa(dp1644
g6
VThe President's not a kid.
p1645
sg8
g9
sg10
VTOBY
p1646
sg12
g9
sa(dp1647
g6
VYour country is. You're involving yourself in a centuries-old conflict without sufficient regard for history. Listen to the warning of old friends. It was Kipling who warned to expect "the blame of those ye better, and the hate of those ye guard."
p1648
sg8
g16
sg10
VMARBURY
p1649
sg12
g9
sa(dp1650
g6
VAnd wasn't it James Joyce who said, "History is a nightmare from which I'm trying to awake."
p1651
sg8
g16
sg10
VTOBY
p1652
sg12
g16
sa(dp1653
g6
VYes, but it was your own great Irish master, Eugene O'Neill who said, "There is no present or future, only the past happening over and over again -- now."
p1654
sg8
g23
sg10
VMARBURY
p1655
sg12
g9
sa(dp1656
g6
VYou're saying we should butt out of Ireland until we know what we're doing?
p1657
sg8
g16
sg10
VTOBY
p1658
sg12
g9
sa(dp1659
g6
VI'm saying Brendan McGann cannot come to the White House.
p1660
sg8
g9
sg10
VMARBURY
p1661
sg12
g9
sa(dp1662
g6
V[pause] Say, speaking of dead Irish writers...
p1663
sg8
g9
sg10
VTOBY
p1664
sg12
g9
sa(dp1665
g6
VYes. Another drink.
p1666
sg8
g9
sg10
VMARBURY
p1667
sg12
g23
sa(dp1668
g6
VHere we go. Awasiwi Odinak. Far from the things of man. When Jed first took me to his house, which was 25 miles from anywhere, he said, "Awasiwi Odinak. Far from the things of man." What a jackass.
p1669
sg8
g9
sg10
VABBEY
p1670
sg12
g9
sa(dp1671
g6
VI'm gonna open the wine.
p1672
sg8
g9
sg10
VC.J.
p1673
sg12
g9
sa(dp1674
g6
VThe wine...
p1675
sg8
g9
sg10
VABBEY
p1676
sg12
g9
sa(dp1677
g6
V...is a '95 Old Vine Zinfandel from Hog Cellars, which once belonged to King Baudouin of Belgium and is best sipped while making anagrams out of the phrase "My husband's an enourmous jackass."
p1678
sg8
g9
sg10
VABBEY
p1679
sg12
g9
sa(dp1680
g6
VAmy, what are you looking for?
p1681
sg8
g9
sg10
VABBEY
p1682
sg12
g9
sa(dp1683
g6
VAnything I can takes notes with.
p1684
sg8
g9
sg10
VAMY
p1685
sg12
g16
sa(dp1686
g6
VThis is an excellent corkscrew. Just slides right in there like power steering. The right tool for the job. [tries to take the cork off, but couldn't] This corkscrew sucks. Should I call the steward?
p1687
sg8
g23
sg10
VC.J.
p1688
sg12
g9
sa(dp1689
g6
VNo need to call the steward. I'm Board certified in thoracic surgery. And a good thing, too. [to Amy] Did Josh have a nutty on the campaign hiring?
p1690
sg8
g23
sg10
VABBEY
p1691
sg12
g9
sa(dp1692
g6
VHe's, you know, he's adjusting.
p1693
sg8
g9
sg10
VAMY
p1694
sg12
g9
sa(dp1695
g6
VWell, let him adjust faster. Jackass.
p1696
sg8
g9
sg10
VABBEY
p1697
sg12
g9
sa(dp1698
g6
V[wanders in] Excuse me.
p1699
sg8
g9
sg10
VDONNA
p1700
sg12
g16
sa(dp1701
g6
VOh, Donna.
p1702
sg8
g9
sg10
VABBEY
p1703
sg12
g23
sa(dp1704
g6
VI'm sorry, ma'am. Josh was looking for Amy.
p1705
sg8
g9
sg10
VDONNA
p1706
sg12
g9
sa(dp1707
g6
VWell, she's right here. Where have you been all night?
p1708
sg8
g9
sg10
VABBEY
p1709
sg12
g9
sa(dp1710
g6
VWell, it's a little tough to explain, ma'am.
p1711
sg8
g9
sg10
VDONNA
p1712
sg12
g9
sa(dp1713
g6
VTougher to explain than secretly prescribing Betaseron?
p1714
sg8
g23
sg10
VABBEY
p1715
sg12
g23
sa(dp1716
g6
VIt turns out I'm not an American citizen, so Secret Service wanted me to talk to INS.
p1717
sg8
g23
sg10
VDONNA
p1718
sg12
g9
sa(dp1719
g6
VWhat?
p1720
sg8
g9
sg10
VC.J.
p1721
sg12
g9
sa(dp1722
g6
VI was born in Warroad, Minnesota, only I wasn't, 'cause INS just clarified the border, and it's now in Manitoba.
p1723
sg8
g9
sg10
VDONNA
p1724
sg12
g16
sa(dp1725
g6
VYou're not an American?
p1726
sg8
g9
sg10
VC.J.
p1727
sg12
g9
sa(dp1728
g6
VMissed it by four miles.
p1729
sg8
g9
sg10
VDONNA
p1730
sg12
g9
sa(dp1731
g6
VYou seem pretty calm about it.
p1732
sg8
g23
sg10
VAMY
p1733
sg12
g9
sa(dp1734
g6
VNo, I'm very upset. I don't know the words to my national anthem. I've been throwing out Canadian pennies my whole life. I've been making fun of the Queen. We don't do that.
p1735
sg8
g16
sg10
VDONNA
p1736
sg12
g16
sa(dp1737
g6
VI'm sure it'll all work out.
p1738
sg8
g9
sg10
VABBEY
p1739
sg12
g9
sa(dp1740
g6
VThank you, ma'am. [turns to leave]
p1741
sg8
g16
sg10
VDONNA
p1742
sg12
g16
sa(dp1743
g6
VWhere are you going?
p1744
sg8
g9
sg10
VABBEY
p1745
sg12
g9
sa(dp1746
g6
VThey've let me into the party now.
p1747
sg8
g9
sg10
VDONNA
p1748
sg12
g9
sa(dp1749
g6
VWhy don't you stay and have some wine with us?
p1750
sg8
g9
sg10
VABBEY
p1751
sg12
g9
sa(dp1752
g6
VReally?
p1753
sg8
g9
sg10
VDONNA
p1754
sg12
g9
sa(dp1755
g6
VYeah.
p1756
sg8
g9
sg10
VABBEY
p1757
sg12
g9
sa(dp1758
g6
VThat's very nice of you. [sits] I probably shouldn't drink though.
p1759
sg8
g9
sg10
VDONNA
p1760
sg12
g16
sa(dp1761
g6
VI wouldn't worry about it.
p1762
sg8
g16
sg10
VC.J.
p1763
sg12
g16
sa(dp1764
g6
VCanadian, huh?
p1765
sg8
g9
sg10
VAMY
p1766
sg12
g9
sa(dp1767
g6
VYeah.
p1768
sg8
g9
sg10
VDONNA
p1769
sg12
g9
sa(dp1770
g6
VYou feel funnier?
p1771
sg8
g9
sg10
VAMY
p1772
sg12
g23
sa(dp1773
g6
VNo, but I am developing a massive inferiority complex.
p1774
sg8
g16
sg10
VDONNA
p1775
sg12
g9
sa(dp1776
g6
V[struggling with the cork] Ah!
p1777
sg8
g9
sg10
VC.J.
p1778
sg12
g9
sa(dp1779
g6
VDid it come out?
p1780
sg8
g9
sg10
VABBEY
p1781
sg12
g16
sa(dp1782
g6
VNext best thing. It's in the bottle.
p1783
sg8
g9
sg10
VC.J.
p1784
sg12
g9
sa(dp1785
g6
VWe'll decant it.
p1786
sg8
g9
sg10
VABBEY
p1787
sg12
g16
sa(dp1788
g6
VAh. Now it's a party.
p1789
sg8
g9
sg10
VAMY
p1790
sg12
g9
sa(dp1791
g6
VYeah.
p1792
sg8
g9
sg10
VC.J.
p1793
sg12
g9
sa(dp1794
g6
VThis is a good bottle of wine. [laughs] Ah. It's almost made me forget how much cork I swallowed from the first bottle of wine. [laughs] I don't understand. It was good corkscrew. Graphite...
p1795
sg8
g23
sg10
VC.J.
p1796
sg12
g9
sa(dp1797
g6
VC.J.?
p1798
sg8
g9
sg10
VABBEY
p1799
sg12
g9
sa(dp1800
g6
VStop talking about the corkscrew?
p1801
sg8
g9
sg10
VC.J.
p1802
sg12
g9
sa(dp1803
g6
VYeah.
p1804
sg8
g9
sg10
VABBEY
p1805
sg12
g9
sa(dp1806
g6
VMrs. Bartlet, I wanted to ask you a question, but I'm not sure how.
p1807
sg8
g23
sg10
VAMY
p1808
sg12
g9
sa(dp1809
g6
VWhat?
p1810
sg8
g9
sg10
VABBEY
p1811
sg12
g9
sa(dp1812
g6
VWell, if the most they can give you is a year's suspension, is it...?
p1813
sg8
g16
sg10
VAMY
p1814
sg12
g9
sa(dp1815
g6
VThat big a deal?
p1816
sg8
g23
sg10
VABBEY
p1817
sg12
g9
sa(dp1818
g6
VYes.
p1819
sg8
g9
sg10
VAMY
p1820
sg12
g23
sa(dp1821
g6
VYes. I'm a doctor. It's not like changing your major. You of all people should... I mean women talk about their husbands overshadowing their careers. Mine got eaten.
p1822
sg8
g23
sg10
VABBEY
p1823
sg12
g9
sa(dp1824
g6
VYour husband got eaten?
p1825
sg8
g9
sg10
VC.J.
p1826
sg12
g9
sa(dp1827
g6
VMy career.
p1828
sg8
g23
sg10
VABBEY
p1829
sg12
g23
sa(dp1830
g6
VYeah. Well, I'm on dangling modifier patrol.
p1831
sg8
g9
sg10
VC.J.
p1832
sg12
g16
sa(dp1833
g6
VWhat's your problem?
p1834
sg8
g16
sg10
VABBEY
p1835
sg12
g16
sa(dp1836
g6
VAre you First Lady right now?
p1837
sg8
g9
sg10
VC.J.
p1838
sg12
g9
sa(dp1839
g6
VWhat are you talking about?
p1840
sg8
g9
sg10
VABBEY
p1841
sg12
g9
sa(dp1842
g6
VSometimes you like to talk, and I think that's great, but sometimes you're Abbey, and sometimes you're my boss, and I respect both very much, but...
p1843
sg8
g23
sg10
VC.J.
p1844
sg12
g9
sa(dp1845
g6
VI'm Abbey.
p1846
sg8
g9
sg10
VABBEY
p1847
sg12
g16
sa(dp1848
g6
VYes. I agree with her. [points to Amy] Look, they take this job away from me, I got nothing. I don't have a cat. I could get one, but I don't have one. Frankly, I'm not wild about cats. I don't hate them. I'm just not... I could learn to like them, I guess, if I...
p1849
sg8
g23
sg10
VC.J.
p1850
sg12
g16
sa(dp1851
g6
VC.J.?
p1852
sg8
g9
sg10
VABBEY
p1853
sg12
g9
sa(dp1854
g6
VYou've got a husband, children, a home and a life. And we're talking about one year of your not having a medical license.
p1855
sg8
g23
sg10
VC.J.
p1856
sg12
g9
sa(dp1857
g6
VJed got censured, and that came with no tangible penalty, and it was a banner headline, and he's having a slow nervous breakdown.
p1858
sg8
g16
sg10
VABBEY
p1859
sg12
g9
sa(dp1860
g6
VThat's different.
p1861
sg8
g9
sg10
VC.J.
p1862
sg12
g9
sa(dp1863
g6
VWhy?
p1864
sg8
g9
sg10
VABBEY
p1865
sg12
g9
sa(dp1866
g6
VBecause it is, and you know it.
p1867
sg8
g9
sg10
VC.J.
p1868
sg12
g9
sa(dp1869
g6
VOkay. I'm First Lady again.
p1870
sg8
g9
sg10
VABBEY
p1871
sg12
g9
sa(dp1872
g6
VOkay.
p1873
sg8
g9
sg10
VC.J.
p1874
sg12
g9
sa(dp1875
g6
VYou're First Lady Abbey?
p1876
sg8
g9
sg10
VAMY
p1877
sg12
g9
sa(dp1878
g6
VYes.
p1879
sg8
g9
sg10
VABBEY
p1880
sg12
g23
sa(dp1881
g6
VAnd it's not like it's been a detour from health care.
p1882
sg8
g9
sg10
VAMY
p1883
sg12
g16
sa(dp1884
g6
VNo.
p1885
sg8
g9
sg10
VABBEY
p1886
sg12
g9
sa(dp1887
g6
VWhat? You've expanded Medicare to cover mammograms, cancer clinical trials... That's money that could've gone to Viagra. You were the one that said "no dice" to cutting infant nutrition programs, nursing home standards...
p1888
sg8
g9
sg10
VAMY
p1889
sg12
g9
sa(dp1890
g6
VThere's plenty of stuff left.
p1891
sg8
g9
sg10
VC.J.
p1892
sg12
g23
sa(dp1893
g6
V...child immunizations, juvenile diabetes...
p1894
sg8
g9
sg10
VAMY
p1895
sg12
g23
sa(dp1896
g6
VThat's not the point.
p1897
sg8
g9
sg10
VABBEY
p1898
sg12
g9
sa(dp1899
g6
VWhat's the point?
p1900
sg8
g9
sg10
VAMY
p1901
sg12
g9
sa(dp1902
g6
VI'm a doctor.
p1903
sg8
g23
sg10
VABBEY
p1904
sg12
g9
sa(dp1905
g6
VOh, Mrs. Bartlet, for crying out loud, you were also a doctor when your husband said, "Give me the drugs, and don't tell anybody," and you said, "Okay."
p1906
sg8
g9
sg10
VDONNA
p1907
sg12
g9
sa(dp1908
g6
VOh, my God. You switched back to First Lady.
p1909
sg8
g9
sg10
VDONNA
p1910
sg12
g9
sa(dp1911
g6
VThat's all right.
p1912
sg8
g9
sg10
VABBEY
p1913
sg12
g9
sa(dp1914
g6
VI'm so sorry, Mrs. Bartlet.
p1915
sg8
g9
sg10
VDONNA
p1916
sg12
g16
sa(dp1917
g6
VIt's okay.
p1918
sg8
g9
sg10
VABBEY
p1919
sg12
g9
sa(dp1920
g6
VHe took the censure standing up, Abbey. I was very proud to have voted for him that day.
p1921
sg8
g23
sg10
VAMY
p1922
sg12
g9
sa(dp1923
g6
VMe, too. [pause] Let's get back to the party.
p1924
sg8
g9
sg10
VABBEY
p1925
sg12
g9
sa(dp1926
g6
VOkay. Here we go.
p1927
sg8
g9
sg10
VBARTLET
p1928
sg12
g9
sa(dp1929
g6
VTime is tight.
p1930
sg8
g9
sg10
VCHARLIE
p1931
sg12
g9
sa(dp1932
g6
VThat's when the juices get flowing.
p1933
sg8
g9
sg10
VBARTLET
p1934
sg12
g9
sa(dp1935
g6
VI'm not sure we have time for juices, sir.
p1936
sg8
g23
sg10
VCHARLIE
p1937
sg12
g9
sa(dp1938
g6
VI could tell the story of the ditch digger.
p1939
sg8
g9
sg10
VBARTLET
p1940
sg12
g9
sa(dp1941
g6
VSir?
p1942
sg8
g9
sg10
VCHARLIE
p1943
sg12
g9
sa(dp1944
g6
VYou know the story?
p1945
sg8
g9
sg10
VBARTLET
p1946
sg12
g9
sa(dp1947
g6
VI do not.
p1948
sg8
g9
sg10
VCHARLIE
p1949
sg12
g16
sa(dp1950
g6
VAbbey and I were walking along and we see a ditch digger, and I said, "Aren't you glad you married me? You could've married a ditch digger." And she said, "Jed, if I'd married him, he'd be President." What do you think?
p1951
sg8
g23
sg10
VBARTLET
p1952
sg12
g9
sa(dp1953
g6
VNot so sure, sir.
p1954
sg8
g23
sg10
VCHARLIE
p1955
sg12
g23
sa(dp1956
g6
VWhy?
p1957
sg8
g9
sg10
VBARTLET
p1958
sg12
g9
sa(dp1959
g6
V'Cause it seems like a story about how cool you are.
p1960
sg8
g23
sg10
VCHARLIE
p1961
sg12
g23
sa(dp1962
g6
VIt is.
p1963
sg8
g9
sg10
VBARTLET
p1964
sg12
g16
sa(dp1965
g6
VDo you love her?
p1966
sg8
g23
sg10
VCHARLIE
p1967
sg12
g9
sa(dp1968
g6
VVery deeply.
p1969
sg8
g9
sg10
VBARTLET
p1970
sg12
g16
sa(dp1971
g6
VThat'll work fine. [stands]
p1972
sg8
g9
sg10
VCHARLIE
p1973
sg12
g23
sa(dp1974
g6
VNo, it won't.
p1975
sg8
g9
sg10
VBARTLET
p1976
sg12
g16
sa(dp1977
g6
VIn my house, anyone who uses one word when they could have used ten just isn't trying hard. Let's keep at it.
p1978
sg8
g23
sg10
VBARTLET
p1979
sg12
g9
sa(dp1980
g6
VThe darkness in our sunshine, the shadow in our souls, the biblical sins of the fathers. For Americans, it's slavery. Slavery is your original sin. That and your unfortunate history with your aborigines.
p1981
sg8
g16
sg10
VMARBURY
p1982
sg12
g9
sa(dp1983
g6
VNative Americans.
p1984
sg8
g9
sg10
VTOBY
p1985
sg12
g9
sa(dp1986
g6
VFor the English, it's Ireland.
p1987
sg8
g9
sg10
VMARBURY
p1988
sg12
g9
sa(dp1989
g6
VWell, they've given u s a couple of U.S. Presidents, a lot of Boston Democrats, and half of the New York City's Police Force.
p1990
sg8
g9
sg10
VTOBY
p1991
sg12
g9
sa(dp1992
g6
VNot to mention the song "Yankee Doodle Dandy."
p1993
sg8
g9
sg10
VMARBURY
p1994
sg12
g9
sa(dp1995
g6
VYeah.
p1996
sg8
g9
sg10
VTOBY
p1997
sg12
g9
sa(dp1998
g6
VCenturies of... home rule, foiled by English conservatives or Ulster Orangemen, immortal martyrs, secret tribunals leading to public hangings, followed by war... followed by, followed by, followed by.
p1999
sg8
g9
sg10
VMARBURY
p2000
sg12
g9
sa(dp2001
g6
VSo wouldn't you say we were doing you a favor?
p2002
sg8
g9
sg10
VTOBY
p2003
sg12
g9
sa(dp2004
g6
VBy intervening?
p2005
sg8
g9
sg10
VMARBURY
p2006
sg12
g9
sa(dp2007
g6
VThat is the act of a friend. What is left to do but talk? What could be better for that wounded place than sitting down and talking? What is better than sitting down and talking?
p2008
sg8
g23
sg10
VTOBY
p2009
sg12
g9
sa(dp2010
g6
VNot to talk to Brendan McGann.
p2011
sg8
g23
sg10
VMARBURY
p2012
sg12
g9
sa(dp2013
g6
VWe can't choose who.
p2014
sg8
g9
sg10
VTOBY
p2015
sg12
g16
sa(dp2016
g6
VOf course, you can't.
p2017
sg8
g9
sg10
VMARBURY
p2018
sg12
g16
sa(dp2019
g6
VThen what can we do but talk to him?
p2020
sg8
g23
sg10
VTOBY
p2021
sg12
g9
sa(dp2022
g6
VNothing. You must talk to him.
p2023
sg8
g23
sg10
VMARBURY
p2024
sg12
g9
sa(dp2025
g6
VWhat?
p2026
sg8
g9
sg10
VTOBY
p2027
sg12
g9
sa(dp2028
g6
VToby, despite appearances, I do have lucid moments, and I know that England is... running out of turns in this particular... but as, uh, Ambassador to Her Majesty's Government, I must tell you that...
p2029
sg8
g9
sg10
VMARBURY
p2030
sg12
g9
sa(dp2031
g6
VBrendan McGann cannot come to the White House.
p2032
sg8
g9
sg10
VTOBY
p2033
sg12
g9
sa(dp2034
g6
VYes.
p2035
sg8
g9
sg10
VMARBURY
p2036
sg12
g23
sa(dp2037
g6
V[beat] Understood, Mr. Ambassador.
p2038
sg8
g9
sg10
VTOBY
p2039
sg12
g9
sa(dp2040
g6
V[finishes his drink] Excellent.
p2041
sg8
g9
sg10
VMARBURY
p2042
sg12
g9
sa(dp2043
g6
VF.D.R. smoked.
p2044
sg8
g9
sg10
VMILLGATE
p2045
sg12
g9
sa(dp2046
g6
VYeah.
p2047
sg8
g9
sg10
VSAM
p2048
sg12
g9
sa(dp2049
g6
VIn the White House, Campobello, everywhere.
p2050
sg8
g9
sg10
VMILLGATE
p2051
sg12
g9
sa(dp2052
g6
VYeah.
p2053
sg8
g9
sg10
VSAM
p2054
sg12
g9
sa(dp2055
g6
VHe got reelected six or seven times.
p2056
sg8
g9
sg10
VMILLGATE
p2057
sg12
g9
sa(dp2058
g6
VListen, is there no doctor you can see...
p2059
sg8
g23
sg10
VSAM
p2060
sg12
g16
sa(dp2061
g6
V[walking in] Next time the Bartlets invite me over to a party, remind me to bring five legislative assistants and a loaded gun.
p2062
sg8
g9
sg10
VENLOW
p2063
sg12
g9
sa(dp2064
g6
VYou got my note.
p2065
sg8
g9
sg10
VSAM
p2066
sg12
g16
sa(dp2067
g6
V"All infrastructure projects earmarked for Illinois are about to be anonymously blocked."
p2068
sg8
g9
sg10
VENLOW
p2069
sg12
g9
sa(dp2070
g6
V[stands] Let's play our game.
p2071
sg8
g9
sg10
VSAM
p2072
sg12
g9
sa(dp2073
g6
VDon't make me mad.
p2074
sg8
g16
sg10
VENLOW
p2075
sg12
g16
sa(dp2076
g6
VDon't make me laugh.
p2077
sg8
g23
sg10
VSAM
p2078
sg12
g16
sa(dp2079
g6
VListen...
p2080
sg8
g9
sg10
VENLOW
p2081
sg12
g9
sa(dp2082
g6
VI couldn't figure out what this on the record/off the record crap was until Dr. Millgate, this is Dr. Millgate, by the way. [points to Millgate]
p2083
sg8
g16
sg10
VSAM
p2084
sg12
g9
sa(dp2085
g6
VChurchill smoked.
p2086
sg8
g9
sg10
VMILLGATE
p2087
sg12
g9
sa(dp2088
g6
VUntil Dr. Millgate told me the thing is gonna be built in Illinois. So, of course, you have to be for it on the record, but off the record, it crowds out all the pork you've got your eye on, like the Senator Enlow Off-Ramp, Rest Stop, Hotel and Casino.
p2089
sg8
g9
sg10
VSAM
p2090
sg12
g9
sa(dp2091
g6
VDon't send me notes anymore. [exits]
p2092
sg8
g9
sg10
VENLOW
p2093
sg12
g16
sa(dp2094
g6
VSam, screw the Fruit Loops.
p2095
sg8
g9
sg10
VMILLGATE
p2096
sg12
g23
sa(dp2097
g6
VSenator!
p2098
sg8
g9
sg10
VSAM
p2099
sg12
g9
sa(dp2100
g6
VI apologize. I apologize for my tactics and my behavior.
p2101
sg8
g23
sg10
VSAM
p2102
sg12
g16
sa(dp2103
g6
VOkay.
p2104
sg8
g9
sg10
VENLOW
p2105
sg12
g9
sa(dp2106
g6
VOkay. Please don't let that jeopardize, you know... The subcommittee should have hearings on this. There should be learned testimony.
p2107
sg8
g16
sg10
VSAM
p2108
sg12
g16
sa(dp2109
g6
VI'm a Democrat, Sam. How's a 20 billion dollar astronomy lecture gonna help the President get elected?
p2110
sg8
g9
sg10
VENLOW
p2111
sg12
g9
sa(dp2112
g6
VIt won't. "We've discovered a seamless, intellectual framework for the universe" isn't a good 30-second spot.
p2113
sg8
g23
sg10
VSAM
p2114
sg12
g9
sa(dp2115
g6
VIf only we could only say what benefit this thing has, but no one's been able to do that.
p2116
sg8
g23
sg10
VENLOW
p2117
sg12
g9
sa(dp2118
g6
VThat's because great achievement has no road map. The X-ray's pretty good. So is penicillin. Neither were discovered with a practical objective in mind. I mean, when the electron was discovered in 1897, it was useless. And now, we have an entire world run by electronics. Haydn and Mozart never studied the classics. They couldn't. They invented them.
p2119
sg8
g23
sg10
VMILLGATE
p2120
sg12
g9
sa(dp2121
g6
VDiscovery.
p2122
sg8
g9
sg10
VSAM
p2123
sg12
g9
sa(dp2124
g6
VWhat?
p2125
sg8
g9
sg10
VMILLGATE
p2126
sg12
g9
sa(dp2127
g6
VThat's the thing that you were... Discovery is what. That's what this is used for. It's for discovery.
p2128
sg8
g23
sg10
VSAM
p2129
sg12
g9
sa(dp2130
g6
VYeah, but you understand that even if this thing passed the Senate, it's dead in the House.
p2131
sg8
g9
sg10
VENLOW
p2132
sg12
g9
sa(dp2133
g6
VJust as long as democracy's not dead in the Senate.
p2134
sg8
g23
sg10
VSAM
p2135
sg12
g16
sa(dp2136
g6
VI'll withdraw my anonymous hold.
p2137
sg8
g16
sg10
VENLOW
p2138
sg12
g16
sa(dp2139
g6
V'Cause you're scared of my threat?
p2140
sg8
g16
sg10
VSAM
p2141
sg12
g9
sa(dp2142
g6
VYes.
p2143
sg8
g9
sg10
VENLOW
p2144
sg12
g23
sa(dp2145
g6
VGood.
p2146
sg8
g9
sg10
VSAM
p2147
sg12
g23
sa(dp2148
g6
VYou think I was a hurdle. Good luck with the Appropriations Committee. [turns to leave]
p2149
sg8
g9
sg10
VENLOW
p2150
sg12
g9
sa(dp2151
g6
VThank you.
p2152
sg8
g9
sg10
VSAM
p2153
sg12
g23
sa(dp2154
g6
VSee, that wasn't so hard.
p2155
sg8
g9
sg10
VMILLGATE
p2156
sg12
g16
sa(dp2157
g6
VI've got to get back to the party.
p2158
sg8
g9
sg10
VSAM
p2159
sg12
g16
sa(dp2160
g6
VI've got to get on a train. [stands]
p2161
sg8
g9
sg10
VMILLGATE
p2162
sg12
g9
sa(dp2163
g6
VOh, we can get you a room for the night.
p2164
sg8
g9
sg10
VSAM
p2165
sg12
g9
sa(dp2166
g6
VNo. [puts his coat on]
p2167
sg8
g9
sg10
VMILLGATE
p2168
sg12
g9
sa(dp2169
g6
VGod, Dalton, isn't there anything? Sloane-Kettering, or...?
p2170
sg8
g9
sg10
VSAM
p2171
sg12
g16
sa(dp2172
g6
VAll right.
p2173
sg8
g9
sg10
VSAM
p2174
sg12
g9
sa(dp2175
g6
VThanks, Sam.
p2176
sg8
g9
sg10
VMILLGATE
p2177
sg12
g23
sa(dp2178
g6
VNow you think I'd make a good physicist?
p2179
sg8
g23
sg10
VSAM
p2180
sg12
g23
sa(dp2181
g6
VNo. But you're not bad for government help. [exits]
p2182
sg8
g16
sg10
VMILLGATE
p2183
sg12
g9
sa(dp2184
g6
VMrs. Bartlet?
p2185
sg8
g9
sg10
VDONNA
p2186
sg12
g9
sa(dp2187
g6
VYes?
p2188
sg8
g9
sg10
VABBEY
p2189
sg12
g23
sa(dp2190
g6
VExcuse me, but I'm so sorry about the way I spoke before.
p2191
sg8
g16
sg10
VDONNA
p2192
sg12
g9
sa(dp2193
g6
VOh, don't be. You were good. I've got a surprise for you coming up.
p2194
sg8
g23
sg10
VABBEY
p2195
sg12
g16
sa(dp2196
g6
VReally?
p2197
sg8
g9
sg10
VDONNA
p2198
sg12
g9
sa(dp2199
g6
VExcuse me.
p2200
sg8
g9
sg10
VJOSH
p2201
sg12
g16
sa(dp2202
g6
VYes?
p2203
sg8
g9
sg10
VDONNA
p2204
sg12
g23
sa(dp2205
g6
VDonna... Actually... [turns to Amy] First of all, Amy...
p2206
sg8
g9
sg10
VJOSH
p2207
sg12
g9
sa(dp2208
g6
VYes?
p2209
sg8
g9
sg10
VAMY
p2210
sg12
g23
sa(dp2211
g6
V[lowers his voice] I understand, and I forgive you.
p2212
sg8
g23
sg10
VJOSH
p2213
sg12
g23
sa(dp2214
g6
VYou forgive me?
p2215
sg8
g23
sg10
VAMY
p2216
sg12
g9
sa(dp2217
g6
VI do.
p2218
sg8
g9
sg10
VJOSH
p2219
sg12
g16
sa(dp2220
g6
VWhat the hell kind of thing is that to...?
p2221
sg8
g9
sg10
VAMY
p2222
sg12
g9
sa(dp2223
g6
VHoney.
p2224
sg8
g9
sg10
VABBEY
p2225
sg12
g9
sa(dp2226
g6
VThank you for forgiving me, Josh. I appreciate that.
p2227
sg8
g23
sg10
VAMY
p2228
sg12
g16
sa(dp2229
g6
VNo problem.
p2230
sg8
g16
sg10
VJOSH
p2231
sg12
g16
sa(dp2232
g6
V[under her breath] Jackass.
p2233
sg8
g9
sg10
VAMY
p2234
sg12
g9
sa(dp2235
g6
VDonna, you're an American again. INS has a grandfather clause. If you pass a three-part literacy test, an American history exam, and fill out a one-page form, you're back.
p2236
sg8
g9
sg10
VJOSH
p2237
sg12
g9
sa(dp2238
g6
VMy adopted country.
p2239
sg8
g9
sg10
VDONNA
p2240
sg12
g9
sa(dp2241
g6
VOh, Josh, I kind of wished you'd mentioned this before.
p2242
sg8
g23
sg10
VABBEY
p2243
sg12
g23
sa(dp2244
g6
VWhy?
p2245
sg8
g9
sg10
VJOSH
p2246
sg12
g9
sa(dp2247
g6
VWow.
p2248
sg8
g9
sg10
VDONNA
p2249
sg12
g9
sa(dp2250
g6
VYou were very good in there, Donna.
p2251
sg8
g23
sg10
VABBEY
p2252
sg12
g9
sa(dp2253
g6
V[yells] What the hell is going on?!
p2254
sg8
g16
sg10
VBARTLET
p2255
sg12
g9
sa(dp2256
g6
VShh.
p2257
sg8
g9
sg10
VABBEY
p2258
sg12
g9
sa(dp2259
g6
VI was gone for 45 minutes. They were all Americans when I left.
p2260
sg8
g9
sg10
VBARTLET
p2261
sg12
g9
sa(dp2262
g6
VI know exactly how you feel, Mr. President.
p2263
sg8
g9
sg10
VDONNA
p2264
sg12
g9
sa(dp2265
g6
VI called Nolan. I know I shouldn't have, but I'm sorry. The rules are different when it comes to my family. There isn't a man in America who doesn't understand that. I also think partiality isn't a vice in this case. He knows you, and that's a good thing. He's gonna consider not recusing himself.
p2266
sg8
g16
sg10
VBARTLET
p2267
sg12
g9
sa(dp2268
g6
VI'm gonna voluntarily forfeit my license for the duration of our stay in the White House.
p2269
sg8
g16
sg10
VABBEY
p2270
sg12
g9
sa(dp2271
g6
VO, Canada, our home and native land True patriot love in all thy sons' command With glowing hearts, we see thee rise...
p2272
sg8
g23
sg10
VGUESTS
p2273
sg12
g9
sa(dp2274
g6
VOkay. I'm gonna do a toast and everything in a minute, and I'll tell the ditch story, but I wanted to say that I love you very much.
p2275
sg8
g23
sg10
VBARTLET
p2276
sg12
g9
sa(dp2277
g6
VI love you too, Jethro.
p2278
sg8
g23
sg10
VABBEY
p2279
sg12
g23
sa(dp2280
g6
VDon't call me that.
p2281
sg8
g9
sg10
VBARTLET
p2282
sg12
g16
sa(dp2283
g6
VI think I will.
p2284
sg8
g9
sg10
VABBEY
p2285
sg12
g9
sa(dp2286
g6
V[walks up] Abigail!
p2287
sg8
g9
sg10
VMARBURY
p2288
sg12
g9
sa(dp2289
g6
VLord John!
p2290
sg8
g9
sg10
VABBEY
p2291
sg12
g9
sa(dp2292
g6
VMay I grasp your breasts?
p2293
sg8
g9
sg10
VMARBURY
p2294
sg12
g9
sa(dp2295
g6
VI'm standing right here!
p2296
sg8
g23
sg10
VBARTLET
p2297
sg12
g9
sa(dp2298
g6
VYou may kiss my cheek.
p2299
sg8
g23
sg10
VABBEY
p2300
sg12
g9
sa(dp2301
g6
VExcellent.
p2302
sg8
g9
sg10
VMARBURY
p2303
sg12
g23
sa(dp2304
g6
VAbbey.
p2305
sg8
g9
sg10
VLEO
p2306
sg12
g9
sa(dp2307
g6
VOh, Gerald.
p2308
sg8
g9
sg10
VMARBURY
p2309
sg12
g23
sa(dp2310
g6
VI haven't had a chance to say happy birthday. Happy birthday, Abbey.
p2311
sg8
g23
sg10
VLEO
p2312
sg12
g9
sa(dp2313
g6
VHappy birthday, Abbey.
p2314
sg8
g23
sg10
VALL
p2315
sg12
g23
sa(dp2316
g6
VO, Canada, we stand on guard for thee.
p2317
sg8
g23
sg10
VGUESTS
p2318
sg12
g9
sas.