(dp0
S'season'
p1
I3
sS'episode'
p2
I5
sS'script'
p3
(lp4
(dp5
S'text'
p6
VOkay.
p7
sS'character'
p8
VC.J.
p9
sS'maxent_score'
p10
S'neutral'
p11
sa(dp12
g6
VC.J., do we know what kind of gun it was?
p13
sg8
VCHRIS
p14
sg10
g11
sa(dp15
g6
VWhich gun?
p16
sg8
VC.J.
p17
sg10
g11
sa(dp18
g6
VThe first gun.
p19
sg8
VCHRIS
p20
sg10
g11
sa(dp21
g6
VIt was a .38 pistol. Okay, here are a few confirmations and a few more details. The shooting took place approximately 15 minutes into the 9:00 service at United Baptist Church in Abilene, Texas. [notices a familiar man seated in the middle row to her left] Will Sawyer, is that you?
p22
sg8
VC.J.
p23
sg10
g11
sa(dp24
g6
VYou back in the country?
p25
sg8
VC.J.
p26
sg10
g11
sa(dp27
g6
VYeah.
p28
sg8
VWILL
p29
sg10
g11
sa(dp30
g6
VYou working for the San Francisco Chronicle now?
p31
sg8
VC.J.
p32
sg10
g11
sa(dp33
g6
VNo.
p34
sg8
VWILL
p35
sg10
g11
sa(dp36
g6
VThen you want to get your ass out of their chair?
p37
sg8
VC.J.
p38
sg10
g11
sa(dp39
g6
VThere's assigned seating?
p40
sg8
VWILL
p41
sg10
g11
sa(dp42
g6
VYou see the little brass plaques with the names of media outlets on the front of the seats?
p43
sg8
VC.J.
p44
sg10
g11
sa(dp45
g6
VI thought that meant they made a generous contribution.
p46
sg8
VWILL
p47
sg10
g11
sa(dp48
g6
VFind a seat in back.
p49
sg8
VC.J.
p50
sg10
g11
sa(dp51
g6
VFifteen minutes into the service, Daryl Bechtell, B-E-C-H-T-E-L-L, walked into the sanctuary. Reports indicate he was looking for his estranged wife. He fired off a round -- that was from the .38 -- missing his wife and hitting Harold Winter in the left shoulder. Mr. Winter is 65 and currently undergoing surgery at Abilene Regional Medical Center.
p52
sg8
VC.J.
p53
sg10
g11
sa(dp54
g6
VConfirmation on her age?
p55
sg8
VSTEVE
p56
sg10
g11
sa(dp57
g6
VShe's be nine years old tomorrow.
p58
sg8
VC.J.
p59
sg10
g11
sa(dp60
g6
VCan you speak to what either Daryl Bechtell or Ron Cahrl might be charged with?
p61
sg8
VSTEVE
p62
sg10
g11
sa(dp63
g6
VNo. The Abilene Sherrif's Office will address that. I can tell you that Mr. Bechtell's gun was registered and that Ron Cahrl had a license to carry a concealed weapon.
p64
sg8
VC.J.
p65
sg10
g11
sa(dp66
g6
VDoesn't Texas law prohibit carrying a weapon in a church or synagogue?
p67
sg8
VARTHUR
p68
sg10
g11
sa(dp69
g6
VAgain, I'll have the Sheriff's Office speak to that, but I'll tell you that it only prohibits it if the church or synagogue posts such a prohibition in plain sight.
p70
sg8
VC.J.
p71
sg10
g11
sa(dp72
g6
VC.J.!
p73
sg8
VREPORTERS
p74
sg10
g11
sa(dp75
g6
VHang on. [reads the note] Well... Melissa Markey died.
p76
sg8
VC.J.
p77
sg10
g11
sa(dp78
g6
VIf you don't understand a question, say so. They'll repeat it. Or they'll rephrase it.
p79
sg8
VSAM
p80
sg10
g11
sa(dp81
g6
VYeah.
p82
sg8
VDONNA
p83
sg10
g11
sa(dp84
g6
VThere's nothing wrong with not understanding the question.
p85
sg8
VSAM
p86
sg10
g11
sa(dp87
g6
VRight.
p88
sg8
VDONNA
p89
sg10
g11
sa(dp90
g6
VThere's nothing wrong with saying 'I don't recall.'
p91
sg8
VSAM
p92
sg10
g11
sa(dp93
g6
VI appreciate this.
p94
sg8
VDONNA
p95
sg10
S'negative'
p96
sa(dp97
g6
VYeah. Don't you want to go to this with Josh?
p98
sg8
VSAM
p99
sg10
g11
sa(dp100
g6
VHe's pissed at me.
p101
sg8
VDONNA
p102
sg10
g11
sa(dp103
g6
VNo, he's not.
p104
sg8
VSAM
p105
sg10
g11
sa(dp106
g6
VHe's... Yeah, he is.
p107
sg8
VDONNA
p108
sg10
g11
sa(dp109
g6
VHe didn't say anything.
p110
sg8
VSAM
p111
sg10
g11
sa(dp112
g6
VHe doesn't say anything.
p113
sg8
VDONNA
p114
sg10
g11
sa(dp115
g6
VAll right.
p116
sg8
VSAM
p117
sg10
g11
sa(dp118
g6
VAnyway, I appreciate this.
p119
sg8
VDONNA
p120
sg10
g96
sa(dp121
g6
V[as he sees Charlie passing by] Charlie, hang on a second. [to Donna] You're going to be sitting in a room. It's going to feel like you did something wrong. But guess what?
p122
sg8
VSAM
p123
sg10
g11
sa(dp124
g6
VWhat?
p125
sg8
VDONNA
p126
sg10
g11
sa(dp127
g6
VYou didn't! So, you got a cab up front?
p128
sg8
VSAM
p129
sg10
g11
sa(dp130
g6
VYeah.
p131
sg8
VDONNA
p132
sg10
g11
sa(dp133
g6
VCome back when it's over?
p134
sg8
VSAM
p135
sg10
g11
sa(dp136
g6
VThanks. [leaves]
p137
sg8
VDONNA
p138
sg10
g11
sa(dp139
g6
VYou make a pick?
p140
sg8
VCHARLIE
p141
sg10
g11
sa(dp142
g6
VOakland over Dallas!
p143
sg8
VSAM
p144
sg10
g11
sa(dp145
g6
VOkay.
p146
sg8
VCHARLIE
p147
sg10
g11
sa(dp148
g6
VIt's a lock.
p149
sg8
VSAM
p150
sg10
g11
sa(dp151
g6
VOkay.
p152
sg8
VCHARLIE
p153
sg10
g11
sa(dp154
g6
VEverybody's staying away 'cause they want to keep Oakland down the road. But if you're like me, you're not as impressed with the pre-season hype. You pick the Raiders at home, and you bank on them not being a prohibitive favorite going into the playoffs.
p155
sg8
VSAM
p156
sg10
g11
sa(dp157
g6
VOkay.
p158
sg8
VCHARLIE
p159
sg10
g11
sa(dp160
g6
VYou think I should take Tennessee over Detroit?
p161
sg8
VSAM
p162
sg10
g11
sa(dp163
g6
VI didn't say that.
p164
sg8
VCHARLIE
p165
sg10
g11
sa(dp166
g6
VYou said it with your eyes.
p167
sg8
VSAM
p168
sg10
g11
sa(dp169
g6
VOkay.
p170
sg8
VCHARLIE
p171
sg10
g11
sa(dp172
g6
VI'll take Tennessee over Detroit.
p173
sg8
VSAM
p174
sg10
S'positive'
p175
sa(dp176
g6
VI'm writing it down.
p177
sg8
VCHARLIE
p178
sg10
g11
sa(dp179
g6
VWrite it down. Wait. No. Give me Oakland over Dallas.
p180
sg8
VSAM
p181
sg10
g11
sa(dp182
g6
VOkay. They stop in front of the opposite White House entrance.
p183
sg8
VCHARLIE
p184
sg10
g11
sa(dp185
g6
VExcept make it New Orleans over Atlanta.
p186
sg8
VSAM
p187
sg10
g11
sa(dp188
g6
VThe first games are about to start.
p189
sg8
VCHARLIE
p190
sg10
g11
sa(dp191
g6
VNew Orleans over Atlanta!
p192
sg8
VSAM
p193
sg10
g11
sa(dp194
g6
VI'm writing it down.
p195
sg8
VCHARLIE
p196
sg10
g11
sa(dp197
g6
VWrite it down. [leaves]
p198
sg8
VSAM
p199
sg10
g11
sa(dp200
g6
VGood afternoon.
p201
sg8
VCHARLIE
p202
sg10
g11
sa(dp203
g6
VHi, Charlie.
p204
sg8
VABBEY
p205
sg10
g11
sa(dp206
g6
VHow was church?
p207
sg8
VCHARLIE
p208
sg10
g11
sa(dp209
g6
V[mumbles] It sucked.
p210
sg8
VBARTLET
p211
sg10
g11
sa(dp212
g6
VIt was fine. [to Bartlet] Stop it!
p213
sg8
VABBEY
p214
sg10
g11
sa(dp215
g6
VIt sucked!
p216
sg8
VBARTLET
p217
sg10
g11
sa(dp218
g6
V[sighs] You're talking about church.
p219
sg8
VABBEY
p220
sg10
g11
sa(dp221
g6
VOh, like I'm not already going to hell.
p222
sg8
VBARTLET
p223
sg10
g11
sa(dp224
g6
V[follows them a pace behind] What was the problem?
p225
sg8
VCHARLIE
p226
sg10
g11
sa(dp227
g6
VHe feels the homily lacked penache.
p228
sg8
VABBEY
p229
sg10
g11
sa(dp230
g6
VIt did lack penache.
p231
sg8
VBARTLET
p232
sg10
g11
sa(dp233
g6
VIt was a perfectly lovely homily on Ephesians 5:21. "Husbands, love your wives, as Christ loved the church and gave himself up for her."
p234
sg8
VABBEY
p235
sg10
g11
sa(dp236
g6
VYeah. She's skipping over the part that says, "Wives, be subject to your husbands as to the Lord, for a husband is the head of a wife as Christ is the head of the church."
p237
sg8
VBARTLET
p238
sg10
g11
sa(dp239
g6
VI do skip over that part.
p240
sg8
VABBEY
p241
sg10
g11
sa(dp242
g6
VWhy?
p243
sg8
VBARTLET
p244
sg10
g11
sa(dp245
g6
VBecause it's stupid!
p246
sg8
VABBEY
p247
sg10
g11
sa(dp248
g6
VOkay.
p249
sg8
VBARTLET
p250
sg10
g11
sa(dp251
g6
V"Husbands, love your wives as Christ loved the church and gave himself up for her, that he might sanctify her, having cleansed her by washing of water with the word that he might present the Church to himself in..." something.
p252
sg8
VABBEY
p253
sg10
g11
sa(dp254
g6
V[behind his desk, puts on glasses] "In splendor." And I have no problem with Ephesians. And any time you want me to cleanse you with the washing of water, you know I'm up for it.
p255
sg8
VBARTLET
p256
sg10
g11
sa(dp257
g6
VThen what is your problem?
p258
sg8
VABBEY
p259
sg10
g11
sa(dp260
g6
VHackery!
p261
sg8
VBARTLET
p262
sg10
g11
sa(dp263
g6
VThis guy was a hack! He had a captive audience! And the way I know that is that I tried to tunnel out of there several times. He had an audience and he didn't know what to do with it.
p264
sg8
VBARTLET
p265
sg10
g11
sa(dp266
g6
VYou want him to sing "Volare?"
p267
sg8
VABBEY
p268
sg10
g11
sa(dp269
g6
VCouldn't have hurt. Words...
p270
sg8
VBARTLET
p271
sg10
g11
sa(dp272
g6
VOh, God, no.
p273
sg8
VABBEY
p274
sg10
g11
sa(dp275
g6
VWords, when spoken out loud for the sake of performance, are music. They have rhythm, and pitch, and timbre, and volume. These are the properties of music, and music has the ability to find us and move us, and lift us up in ways that literal meanings can't. Do you see?
p276
sg8
VBARTLET
p277
sg10
g11
sa(dp278
g6
VYou are an oratorical snob.
p279
sg8
VABBEY
p280
sg10
g11
sa(dp281
g6
VYes, I am. And God loves me for it.
p282
sg8
VBARTLET
p283
sg10
g11
sa(dp284
g6
VYou said he was sending you to hell.
p285
sg8
VABBEY
p286
sg10
g11
sa(dp287
g6
VFor other stuff, not for this. You can't just trod out Ephesians, which he blew, by the way, it has nothing with husbands and wives, it's all of us. Saint Paul begins the passage: "Be subject to one another out of reverence to Christ." [passionately] "Be subject to one another." In this day and age of 24-hour cable crap, devoted to feeding the voyeuristic gluttony of the American public, hooked on a bad soap opera that's passing itself off as important, don't you think you might be able to find some relevance in verse 21? How do end the cycle? Be subject to one another!
p288
sg8
VBARTLET
p289
sg10
g11
sa(dp290
g6
VSo... This is about you.
p291
sg8
VABBEY
p292
sg10
g11
sa(dp293
g6
VNo, it's not about me! Well, yes, it is about me, but tomorrow it'll be about somebody else. We'll watch Larry King and see who. [shouts] All hacks, off the stage! Right now! That's a national security order.
p294
sg8
VBARTLET
p295
sg10
g11
sa(dp296
g6
VI'm going to the Residence. I'm taking a bath; I'm turning on Sinatra.
p297
sg8
VABBEY
p298
sg10
g11
sa(dp299
g6
VHow does Mrs. Sinatra feel about that?
p300
sg8
VBARTLET
p301
sg10
g11
sa(dp302
g6
VPeace be with you. [turns to leave]
p303
sg8
VABBEY
p304
sg10
g11
sa(dp305
g6
V[sings] You make me egg foo yung...
p306
sg8
VBARTLET
p307
sg10
g11
sa(dp308
g6
VGood morning, Mr. President.
p309
sg8
VC.J.
p310
sg10
g11
sa(dp311
g6
V[turns to her, sings] You make me feel there are songs to be sung...
p312
sg8
VBARTLET
p313
sg10
g11
sa(dp314
g6
V[to C.J.] He's feisty. Please, don't ask him about church.
p315
sg8
VABBEY
p316
sg10
g11
sa(dp317
g6
V[quietly] No, I won't. I'm sorry, Mr. President, Melissa Markey died.
p318
sg8
VC.J.
p319
sg10
g11
sa(dp320
g6
V[smile fades away] Yeah, okay.
p321
sg8
VBARTLET
p322
sg10
g11
sa(dp323
g6
VAh, damn. Charlie, can I see Leo?
p324
sg8
VBARTLET
p325
sg10
g11
sa(dp326
g6
VYes, sir.
p327
sg8
VCHARLIE
p328
sg10
g175
sa(dp329
g6
VShe would have lost too much blood at the scene, Jed. She didn't have a chance.
p330
sg8
VABBEY
p331
sg10
g11
sa(dp332
g6
VYeah.
p333
sg8
VBARTLET
p334
sg10
g11
sa(dp335
g6
VAll right... I'll be over in the Residence. I've got to see Babish this afternoon. [pats him on the shoulder and leaves]
p336
sg8
VABBEY
p337
sg10
g11
sa(dp338
g6
VOkay. [walks with C.J. quietly] When do you think I should go in there?
p339
sg8
VBARTLET
p340
sg10
g11
sa(dp341
g6
VI'd wait a couple of hours till we hear some more facts.
p342
sg8
VC.J.
p343
sg10
g11
sa(dp344
g6
VYou'll talk to the sheriff's office and...
p345
sg8
VBARTLET
p346
sg10
g11
sa(dp347
g6
VYeah.
p348
sg8
VC.J.
p349
sg10
g11
sa(dp350
g6
VI guess the DA.
p351
sg8
VBARTLET
p352
sg10
g11
sa(dp353
g6
VYeah, but you don't want to walk too far into that.
p354
sg8
VC.J.
p355
sg10
g11
sa(dp356
g6
VYeah.
p357
sg8
VBARTLET
p358
sg10
g11
sa(dp359
g6
VGood morning.
p360
sg8
VLEO
p361
sg10
g11
sa(dp362
g6
VYou heard?
p363
sg8
VBARTLET
p364
sg10
g11
sa(dp365
g6
VYeah.
p366
sg8
VLEO
p367
sg10
g11
sa(dp368
g6
VC.J. thinks I should wait a few hours.
p369
sg8
VBARTLET
p370
sg10
g11
sa(dp371
g6
VI would.
p372
sg8
VLEO
p373
sg10
g11
sa(dp374
g6
VYeah.
p375
sg8
VBARTLET
p376
sg10
g11
sa(dp377
g6
VThank you, Mr. President. [walks off]
p378
sg8
VC.J.
p379
sg10
g175
sa(dp380
g6
VBe subject to one another, Leo. What can I do to be of subject to you?
p381
sg8
VBARTLET
p382
sg10
g11
sa(dp383
g6
VI'm fine.
p384
sg8
VLEO
p385
sg10
g11
sa(dp386
g6
VYeah?
p387
sg8
VBARTLET
p388
sg10
g11
sa(dp389
g6
VI've got Margaret.
p390
sg8
VLEO
p391
sg10
g11
sa(dp392
g6
VOkay.
p393
sg8
VBARTLET
p394
sg10
g11
sa(dp395
g6
VI think you should send Hoynes to Texas.
p396
sg8
VLEO
p397
sg10
g11
sa(dp398
g6
VHe's not going to want to do it.
p399
sg8
VBARTLET
p400
sg10
g11
sa(dp401
g6
VWhat do you care?
p402
sg8
VLEO
p403
sg10
g11
sa(dp404
g6
VWhat are you doing today?
p405
sg8
VBARTLET
p406
sg10
g11
sa(dp407
g6
VI'm meeting with Adamley.
p408
sg8
VLEO
p409
sg10
g11
sa(dp410
g6
VWhat about?
p411
sg8
VBARTLET
p412
sg10
g11
sa(dp413
g6
VHe wants to talk to me about the War Crimes Tribunal.
p414
sg8
VLEO
p415
sg10
g11
sa(dp416
g6
VKeep me out of it, all right?
p417
sg8
VBARTLET
p418
sg10
g11
sa(dp419
g6
VYeah.
p420
sg8
VLEO
p421
sg10
g11
sa(dp422
g6
VYou think I should send Hoynes to Texas?
p423
sg8
VBARTLET
p424
sg10
g11
sa(dp425
g6
VYeah.
p426
sg8
VLEO
p427
sg10
g11
sa(dp428
g6
VAll right, get him over here.
p429
sg8
VBARTLET
p430
sg10
g11
sa(dp431
g6
VNow?
p432
sg8
VLEO
p433
sg10
g11
sa(dp434
g6
VYeah.
p435
sg8
VBARTLET
p436
sg10
g11
sa(dp437
g6
V[stands] Thank you, Mr. President.
p438
sg8
VLEO
p439
sg10
g11
sa(dp440
g6
VYes.
p441
sg8
VDONNA
p442
sg10
g175
sa(dp443
g6
VYes.
p444
sg8
VDONNA
p445
sg10
g175
sa(dp446
g6
VThis committee has been granted authorization pursuant to House Resolution 173, my name is Clifford Calley. I'm Majority Counsel for the House Government Oversight and Reform Committee. Would you state your full name for the record, please.
p447
sg8
VCLIFF
p448
sg10
g11
sa(dp449
g6
VDonnatella Moss. D-o-n-n-a-t-e-l-l-a M-o-s-s.
p450
sg8
VDONNA
p451
sg10
g11
sa(dp452
g6
VAt this point I'd like the record to indicate that the Majority Counsel has met the witness socially on several occasions, and without objection, I'd like to proceed.
p453
sg8
VCLIFF
p454
sg10
g11
sa(dp455
g6
VNo objection.
p456
sg8
VWOMAN
p457
sg10
g11
sa(dp458
g6
VCounsel?
p459
sg8
VCLIFF
p460
sg10
g11
sa(dp461
g6
VNo objection.
p462
sg8
VCOUNSEL
p463
sg10
g11
sa(dp464
g6
VI'd also like to express the Committee appreciation to the witness appearing on a Sunday. Ms. Moss, are you here voluntarily or as a result of a subpoena?
p465
sg8
VCLIFF
p466
sg10
g11
sa(dp467
g6
VA subpoena.
p468
sg8
VDONNA
p469
sg10
g11
sa(dp470
g6
VNo need to thank me. [beat] Donna, this is going to be easy, you can laugh. Were you recently asked to help organize documents pursuant to this Committee current investigation?
p471
sg8
VCLIFF
p472
sg10
g11
sa(dp473
g6
VYes.
p474
sg8
VDONNA
p475
sg10
g175
sa(dp476
g6
VWould you describe how that works?
p477
sg8
VCLIFF
p478
sg10
g11
sa(dp479
g6
VOn instructions from Joshua Lyman and the White House Counsel's office, I took over a storage room at the OEOB and began sorting through any interoffice or interdepartmental documents, both from the campaign and from the West Wing.
p480
sg8
VDONNA
p481
sg10
g11
sa(dp482
g6
VAnd for the record, the campaign you're referring to is...
p483
sg8
VCLIFF
p484
sg10
g11
sa(dp485
g6
VBartlet for America.
p486
sg8
VDONNA
p487
sg10
g11
sa(dp488
g6
VHow'd you guys do?
p489
sg8
VCLIFF
p490
sg10
g175
sa(dp491
g6
V[very seriously] We won.
p492
sg8
VDONNA
p493
sg10
g11
sa(dp494
g6
VOkay. [beat] My colleagues are going to ask you some questions. Then we'll get back to me and finish up.
p495
sg8
VCLIFF
p496
sg10
g11
sa(dp497
g6
VOkay.
p498
sg8
VDONNA
p499
sg10
g11
sa(dp500
g6
VMs. Moss? Do you keep a photo album?
p501
sg8
VMAN
p502
sg10
g175
sa(dp503
g6
VNo.
p504
sg8
VDONNA
p505
sg10
g11
sa(dp506
g6
VOkay. Do you keep...
p507
sg8
VMAN
p508
sg10
g175
sa(dp509
g6
VI'm sorry. Uh... I keep photographs, I don't have them in an album.
p510
sg8
VDONNA
p511
sg10
g11
sa(dp512
g6
VOkay. Do you keep a scrapbook?
p513
sg8
VMAN
p514
sg10
g175
sa(dp515
g6
VNo.
p516
sg8
VDONNA
p517
sg10
g11
sa(dp518
g6
VDo you keep letters, notes, or other correspondence you receive from people?
p519
sg8
VMAN
p520
sg10
g11
sa(dp521
g6
VSometimes a birthday card or a letter from my father.
p522
sg8
VDONNA
p523
sg10
g11
sa(dp524
g6
VDo you keep a diary?
p525
sg8
VMAN
p526
sg10
g175
sa(dp527
g6
VNo.
p528
sg8
VDONNA
p529
sg10
g11
sa(dp530
g6
VOkay. Do you receive gifts from anyone who's currently...
p531
sg8
VMAN
p532
sg10
g11
sa(dp533
g6
VI'm sorry, hang on. [to the transcriber] Would you read that back?
p534
sg8
VCLIFF
p535
sg10
g11
sa(dp536
g6
V"Question: Do you keep a diary? Answer: No. Question: Okay. Do you receive gifts from..."
p537
sg8
VTRANSCRIBER
p538
sg10
g11
sa(dp539
g6
V[looks at Donna] Okay. Okay, go ahead.
p540
sg8
VCLIFF
p541
sg10
g11
sa(dp542
g6
VDo you receive gifts from anyone who's currently working at the White House?
p543
sg8
VMAN
p544
sg10
g11
sa(dp545
g6
VHow are you doing?
p546
sg8
VC.J.
p547
sg10
g175
sa(dp548
g6
VGood.
p549
sg8
VWILL
p550
sg10
g11
sa(dp551
g6
VYou're sitting in my chair.
p552
sg8
VC.J.
p553
sg10
g11
sa(dp554
g6
VIt didn't have a plaque on it.
p555
sg8
VWILL
p556
sg10
g11
sa(dp557
g6
V[chuckles] Oh, I've missed you.
p558
sg8
VC.J.
p559
sg10
g175
sa(dp560
g6
VYeah. [stands and finds another chair across C.J.'s desk]
p561
sg8
VWILL
p562
sg10
g11
sa(dp563
g6
VWell, you've been gone three weeks.
p564
sg8
VC.J.
p565
sg10
g11
sa(dp566
g6
VI've been gone two and a half years.
p567
sg8
VWILL
p568
sg10
g11
sa(dp569
g6
VReally?
p570
sg8
VC.J.
p571
sg10
g11
sa(dp572
g6
VYes.
p573
sg8
VWILL
p574
sg10
g175
sa(dp575
g6
VSo what happened? I thought you were our man in Myanmar.
p576
sg8
VC.J.
p577
sg10
g11
sa(dp578
g6
VI got kicked out of Myanmar.
p579
sg8
VWILL
p580
sg10
g11
sa(dp581
g6
VWell, is there a third world country you haven't been kicked out of?
p582
sg8
VC.J.
p583
sg10
g11
sa(dp584
g6
VHey, I've been kicked out of plenty of industrialized nations, too.
p585
sg8
VWILL
p586
sg10
g11
sa(dp587
g6
VWhy'd they kick you out?
p588
sg8
VC.J.
p589
sg10
g11
sa(dp590
g6
VWell, first of all, they didn't kick me out exactly. In fact, they love me in Myanmar.
p591
sg8
VWILL
p592
sg10
g11
sa(dp593
g6
VWhat happened?
p594
sg8
VC.J.
p595
sg10
g11
sa(dp596
g6
VThey put a bounty on my head. [C.J. laughs.] It's not funny. The Myanmarese government is built on narcotics trafficking. Myanmar, Thailand, Laos. I was this close to the story.
p597
sg8
VWILL
p598
sg10
g11
sa(dp599
g6
VYeah?
p600
sg8
VC.J.
p601
sg10
g11
sa(dp602
g6
VI had interviews with Pau Jiasheng, Pau Yujiung, Li Zuru. I was tight with narco-barons.
p603
sg8
VWILL
p604
sg10
g11
sa(dp605
g6
VUntil?
p606
sg8
VC.J.
p607
sg10
g11
sa(dp608
g6
VThe Myanmarese army...
p609
sg8
VWILL
p610
sg10
g11
sa(dp611
g6
VPut a bounty on your head.
p612
sg8
VC.J.
p613
sg10
g11
sa(dp614
g6
VYeah.
p615
sg8
VWILL
p616
sg10
g11
sa(dp617
g6
VHow'd you know?
p618
sg8
VC.J.
p619
sg10
g175
sa(dp620
g6
VThe State Department came and got me.
p621
sg8
VWILL
p622
sg10
g11
sa(dp623
g6
VOh. That had to be embarrassing in front of your narco-baron friends.
p624
sg8
VC.J.
p625
sg10
g11
sa(dp626
g6
VAnyway... I'm assigned to the White House Press Corps until they can find me, you know, a reporting job.
p627
sg8
VWILL
p628
sg10
g11
sa(dp629
g6
VNo. No offense taken.
p630
sg8
VC.J.
p631
sg10
g96
sa(dp632
g6
VThanks.
p633
sg8
VWILL
p634
sg10
g11
sa(dp635
g6
VWhy did you want to see me?
p636
sg8
VC.J.
p637
sg10
g11
sa(dp638
g6
VI have a quote if you want to comment.
p639
sg8
VWILL
p640
sg10
g11
sa(dp641
g6
VWhat is it?
p642
sg8
VC.J.
p643
sg10
g11
sa(dp644
g6
VToby Ziegler says, "If the President wins reelection, it will be on the Vice President's coattails."
p645
sg8
VWILL
p646
sg10
g11
sa(dp647
g6
V"If the President wins reelection, it will be on the Vice President's coattails"?
p648
sg8
VC.J.
p649
sg10
g11
sa(dp650
g6
V[consults his notepad] I think that's, uh... yeah.
p651
sg8
VWILL
p652
sg10
g11
sa(dp653
g6
VHe said this to you?
p654
sg8
VC.J.
p655
sg10
g11
sa(dp656
g6
VNo.
p657
sg8
VWILL
p658
sg10
g11
sa(dp659
g6
VWhere'd you get it?
p660
sg8
VC.J.
p661
sg10
g11
sa(dp662
g6
VThe person he said it to.
p663
sg8
VWILL
p664
sg10
g11
sa(dp665
g6
VWill, do me a favor. Give me a little time to check it out, would you?
p666
sg8
VC.J.
p667
sg10
g11
sa(dp668
g6
VYeah. [stands]
p669
sg8
VWILL
p670
sg10
g11
sa(dp671
g6
VYou've been gone two and a half years?
p672
sg8
VC.J.
p673
sg10
g11
sa(dp674
g6
VYeah.
p675
sg8
VWILL
p676
sg10
g11
sa(dp677
g6
VSeemed like less than that.
p678
sg8
VC.J.
p679
sg10
g11
sa(dp680
g6
VPeople lose all track of time and space when I'm not around.
p681
sg8
VWILL
p682
sg10
g11
sa(dp683
g6
VYeah.
p684
sg8
VC.J.
p685
sg10
g11
sa(dp686
g6
VThanks, Ginger. Thank you.
p687
sg8
VSAM
p688
sg10
g175
sa(dp689
g6
VSure.
p690
sg8
VGINGER
p691
sg10
g11
sa(dp692
g6
VIt's 30 billion in School Modernization Bonds.
p693
sg8
VSAM
p694
sg10
g11
sa(dp695
g6
VInterest-free for school districts. We're estimating it will help build and modernize 7,000 schools nationwide. There's another 1.5 billion for urgent repairs targeted to high-need districts.
p696
sg8
VSAM
p697
sg10
g11
sa(dp698
g6
VLike roof repairs?
p699
sg8
VTERRY
p700
sg10
g11
sa(dp701
g6
VRoof repairs, heating and cooling systems, electrical wiring. The point is we think we need the Congressman's vote to get it out of the full Appropriations Committee and on the floor.
p702
sg8
VSAM
p703
sg10
g11
sa(dp704
g6
VHe'll be with it.
p705
sg8
VTERRY
p706
sg10
g11
sa(dp707
g6
VThat's what I thought.
p708
sg8
VSAM
p709
sg10
g11
sa(dp710
g6
VHe's just looking for the President's support on a bill that he'll be sponsoring.
p711
sg8
VTERRY
p712
sg10
g11
sa(dp713
g6
VWhat's it called?
p714
sg8
VSAM
p715
sg10
g11
sa(dp716
g6
VIt's called the "Legal Tender Modernization Act."
p717
sg8
VTERRY
p718
sg10
g11
sa(dp719
g6
VWhich provides for?
p720
sg8
VSAM
p721
sg10
g11
sa(dp722
g6
VThe elimination of the penny.
p723
sg8
VTERRY
p724
sg10
g11
sa(dp725
g6
VI'm sorry?
p726
sg8
VSAM
p727
sg10
g11
sa(dp728
g6
VIt would permanently halt production of the penny.
p729
sg8
VTERRY
p730
sg10
g11
sa(dp731
g6
VWhy?
p732
sg8
VSAM
p733
sg10
g11
sa(dp734
g6
VI'm glad you asked.
p735
sg8
VTERRY
p736
sg10
g175
sa(dp737
g6
VYeah.
p738
sg8
VSAM
p739
sg10
g11
sa(dp740
g6
VLast year, the U.S. Mint cut 14 billion pennies and shipped them off to the Federal Reserve, which dumped them in our laps. They're worthless.
p741
sg8
VTERRY
p742
sg10
g11
sa(dp743
g6
VWell, they're actually worth one cent.
p744
sg8
VSAM
p745
sg10
g11
sa(dp746
g6
VThe dollar has the buying power today that the quarter had 30 years ago. The penny's buying power shrunk to nothing.
p747
sg8
VTERRY
p748
sg10
g11
sa(dp749
g6
VWell, that's not true. You can get yourself a gumball.
p750
sg8
VSAM
p751
sg10
g11
sa(dp752
g6
VNo, you can't. They cost a nickel.
p753
sg8
VTERRY
p754
sg10
g11
sa(dp755
g6
VReally?
p756
sg8
VSAM
p757
sg10
g11
sa(dp758
g6
V[sighs] I'm gonna need to give the Congressman a good reason why the White House won't support the bill if they won't support the bill.
p759
sg8
VTERRY
p760
sg10
g11
sa(dp761
g6
VOh, don't make me give you a good reason.
p762
sg8
VSAM
p763
sg10
g11
sa(dp764
g6
VYou want your $30 billion in school repairs?
p765
sg8
VTERRY
p766
sg10
g11
sa(dp767
g6
VWell, we're already well on our way with 140 million pennies.
p768
sg8
VSAM
p769
sg10
g11
sa(dp770
g6
VSam...
p771
sg8
VTERRY
p772
sg10
g11
sa(dp773
g6
VI'll get you a good reason.
p774
sg8
VSAM
p775
sg10
g11
sa(dp776
g6
VCharlie!
p777
sg8
VBARTLET
p778
sg10
g11
sa(dp779
g6
VYes, sir.
p780
sg8
VCHARLIE
p781
sg10
g175
sa(dp782
g6
VYou took Indianapolis?
p783
sg8
VBARTLET
p784
sg10
g11
sa(dp785
g6
VYes, sir.
p786
sg8
VCHARLIE
p787
sg10
g175
sa(dp788
g6
VExcuse me, Mr. President?
p789
sg8
VNANCY
p790
sg10
g11
sa(dp791
g6
VYeah?
p792
sg8
VBARTLET
p793
sg10
g11
sa(dp794
g6
VThe Vice President.
p795
sg8
VNANCY
p796
sg10
g11
sa(dp797
g6
VThank you.
p798
sg8
VBARTLET
p799
sg10
g175
sa(dp800
g6
VHey, Charlie.
p801
sg8
VHOYNES
p802
sg10
g11
sa(dp803
g6
VGood afternoon, sir.
p804
sg8
VCHARLIE
p805
sg10
g11
sa(dp806
g6
VHey, John.
p807
sg8
VBARTLET
p808
sg10
g11
sa(dp809
g6
VGood afternoon, sir.
p810
sg8
VHOYNES
p811
sg10
g11
sa(dp812
g6
VDo you know this church?
p813
sg8
VBARTLET
p814
sg10
g11
sa(dp815
g6
VNo.
p816
sg8
VHOYNES
p817
sg10
g11
sa(dp818
g6
VThe United Baptists Church in Abilene?
p819
sg8
VBARTLET
p820
sg10
g11
sa(dp821
g6
VNo.
p822
sg8
VHOYNES
p823
sg10
g11
sa(dp824
g6
VListen, you feel like having a beer with me?
p825
sg8
VBARTLET
p826
sg10
g175
sa(dp827
g6
VNo, I'm fine.
p828
sg8
VHOYNES
p829
sg10
g11
sa(dp830
g6
VOn Sundays, when we got back from church, my father would let my brother and me split a beer. It got to be a habit.
p831
sg8
VBARTLET
p832
sg10
g11
sa(dp833
g6
VYou mind if I split some water with you?
p834
sg8
VHOYNES
p835
sg10
g11
sa(dp836
g6
VNancy? [to Hoynes] I need you to go to Texas, John. [Nancy walks up.] Nancy, could I get a cold beer and some ice water?
p837
sg8
VBARTLET
p838
sg10
g11
sa(dp839
g6
VYes, sir.
p840
sg8
VNANCY
p841
sg10
g175
sa(dp842
g6
VAnd close the door please. [sits] Nancy does what she was told.
p843
sg8
VBARTLET
p844
sg10
g11
sa(dp845
g6
VYou want to send me to Texas?
p846
sg8
VHOYNES
p847
sg10
g11
sa(dp848
g6
VIt's what Texans do. [beat] You know, a decade ago, we passed a few national gun control laws, and the gun lobby turned its back on Congress and started focusing on the states. [Hoynes sits] The NRA systematically worked the legislatures to weaken conceal-and-carry laws, the effect of which is to increase gun sales and pad its own membership.
p849
sg8
VBARTLET
p850
sg10
g11
sa(dp851
g6
VWell, I don't necessarily agree with that, but...
p852
sg8
VHOYNES
p853
sg10
g11
sa(dp854
g6
VThe National Conference on State Legislatures is meeting this weekend at the Convention Center in San Antonio.
p855
sg8
VBARTLET
p856
sg10
g11
sa(dp857
g6
VAnd you want me to go to Texas and speak for you.
p858
sg8
VHOYNES
p859
sg10
g11
sa(dp860
g6
VYeah.
p861
sg8
VBARTLET
p862
sg10
g11
sa(dp863
g6
V'Cause that's what Texans do.
p864
sg8
VHOYNES
p865
sg10
g11
sa(dp866
g6
V[pause] It's also what Vice Presidents do.Nancy comes in and serves them beer and water.
p867
sg8
VBARTLET
p868
sg10
g11
sa(dp869
g6
VThank you, Nancy.
p870
sg8
VBARTLET
p871
sg10
g175
sa(dp872
g6
VThank you, Nancy.
p873
sg8
VHOYNES
p874
sg10
g175
sa(dp875
g6
VAlan.
p876
sg8
VLEO
p877
sg10
g11
sa(dp878
g6
VHey!
p879
sg8
VADAMLEY
p880
sg10
g11
sa(dp881
g6
VCome on back.
p882
sg8
VLEO
p883
sg10
g11
sa(dp884
g6
VThanks for taking the time.
p885
sg8
VADAMLEY
p886
sg10
g11
sa(dp887
g6
VNo, no. [beat] So how did it go?
p888
sg8
VLEO
p889
sg10
g11
sa(dp890
g6
VIt was a good trip. I met with, uh, Hassan, and I met with the Aviation Prince.
p891
sg8
VADAMLEY
p892
sg10
g11
sa(dp893
g6
VYou know what we need in this country?
p894
sg8
VLEO
p895
sg10
g11
sa(dp896
g6
VAn Aviation Prince.
p897
sg8
VADAMLEY
p898
sg10
g11
sa(dp899
g6
VThat's right.
p900
sg8
VLEO
p901
sg10
g11
sa(dp902
g6
VWell, let me tell you something. Sultan Bin Abu Azir ain't what he used to be. Last time I was in Kuwait, he gave me a gold inlay Gadara sword, originated from the, uh, Binhalmar tribe.
p903
sg8
VADAMLEY
p904
sg10
g11
sa(dp905
g6
VWhat'd you get this time?
p906
sg8
VLEO
p907
sg10
g11
sa(dp908
g6
VNothing.
p909
sg8
VADAMLEY
p910
sg10
g11
sa(dp911
g6
VYou want to go down the Situation Room, and blow them off the face of the earth?
p912
sg8
VLEO
p913
sg10
g11
sa(dp914
g6
VYeah.
p915
sg8
VADAMLEY
p916
sg10
g11
sa(dp917
g6
V[smiles] So...
p918
sg8
VLEO
p919
sg10
g175
sa(dp920
g6
VThe, uh, NSC Communications Office cabled me a draft of the President's radio address for next weekend.
p921
sg8
VADAMLEY
p922
sg10
g11
sa(dp923
g6
VAlan, it's a...
p924
sg8
VLEO
p925
sg10
g11
sa(dp926
g6
V[reads from a file] "At the close of the last World War, our nation was instrumental in the creation of both the United Nations and the Nuremberg War Crimes Tribunal. Now, at the dawn of the millennium, we cannot betray that tradition of moral leadership." He's made up his mind.
p927
sg8
VADAMLEY
p928
sg10
g11
sa(dp929
g6
VIt's an early draft. It's not a big thing.
p930
sg8
VLEO
p931
sg10
g11
sa(dp932
g6
VWell, I know that Hutchison and Berryhill are for it, but to me, to Fitzwallace, the Pentagon, the House and Senate Armed Services, and the House and Senate Foreign Relations, it's a thing of catastrophic proportions.
p933
sg8
VADAMLEY
p934
sg10
g11
sa(dp935
g6
VLet's go inside and talk.
p936
sg8
VLEO
p937
sg10
g11
sa(dp938
g6
VHey.
p939
sg8
VC.J.
p940
sg10
g11
sa(dp941
g6
VI-I-I'm not here.
p942
sg8
VTOBY
p943
sg10
g96
sa(dp944
g6
VI called you at home. I had you paged.
p945
sg8
VC.J.
p946
sg10
g11
sa(dp947
g6
VYeah.
p948
sg8
VTOBY
p949
sg10
g11
sa(dp950
g6
VI didn't know you were here.
p951
sg8
VC.J.
p952
sg10
g11
sa(dp953
g6
V[covers his face with the newspaper] I'm not.
p954
sg8
VTOBY
p955
sg10
g11
sa(dp956
g6
VI think the jig is up.
p957
sg8
VC.J.
p958
sg10
g11
sa(dp959
g6
VClearly, I'm here, but I-I-I'm not open for business. I heard the President was meeting with Hoynes, so I-I-I wanted to see how-how it goes.
p960
sg8
VTOBY
p961
sg10
g11
sa(dp962
g6
VListen...
p963
sg8
VC.J.
p964
sg10
g11
sa(dp965
g6
VAnd I see you picked Chicago over Cincinnati so let me explain to you why your money's gonna be in my pocket.
p966
sg8
VTOBY
p967
sg10
g11
sa(dp968
g6
VIf the President wins reelection, it's gonna be on the Vice President's coattails?
p969
sg8
VC.J.
p970
sg10
g11
sa(dp971
g6
V[pause] You want to know what's weird? I-I-I just said... that exact same thing a couple of days ago.
p972
sg8
VTOBY
p973
sg10
g11
sa(dp974
g6
VI know. You know how I know? Will Sawyer just told me.
p975
sg8
VC.J.
p976
sg10
g11
sa(dp977
g6
VWill Sawyer's in Myanmar.
p978
sg8
VTOBY
p979
sg10
g11
sa(dp980
g6
VHe got kicked out of Myanmar. He's in the room now.
p981
sg8
VC.J.
p982
sg10
g11
sa(dp983
g6
VC.J., I said it... I said it at that W.A. meeting. I said it a the end of the meeting. We were talking about areas where Hoynes is polling stronger than... It was... [awkward chuckle] I said to our own... [pauses and sighs] Do I have a little time?
p984
sg8
VTOBY
p985
sg10
g11
sa(dp986
g6
VA little.
p987
sg8
VC.J.
p988
sg10
g96
sa(dp989
g6
VThank you.
p990
sg8
VTOBY
p991
sg10
g175
sa(dp992
g6
VYou're here now?
p993
sg8
VC.J.
p994
sg10
g11
sa(dp995
g6
V[chuckling] Yeah.
p996
sg8
VTOBY
p997
sg10
g11
sa(dp998
g6
VGinger?
p999
sg8
VTOBY
p1000
sg10
g11
sa(dp1001
g6
V[stands] I want you to page every junior staffer and senior assistant who works in the West Wing, every single one. I want them to assemble downstairs in the mess in two hours.
p1002
sg8
VTOBY
p1003
sg10
g11
sa(dp1004
g6
VWhat if...?
p1005
sg8
VGINGER
p1006
sg10
g11
sa(dp1007
g6
VIf they can't be here in two hours, then they don't need to come in tomorrow morning.
p1008
sg8
VTOBY
p1009
sg10
g11
sa(dp1010
g6
VHey.
p1011
sg8
VDONNA
p1012
sg10
g11
sa(dp1013
g6
VHow you doing?
p1014
sg8
VCLIFF
p1015
sg10
g175
sa(dp1016
g6
VHow'd you get here before me?
p1017
sg8
VDONNA
p1018
sg10
g11
sa(dp1019
g6
VI drove.
p1020
sg8
VCLIFF
p1021
sg10
g11
sa(dp1022
g6
VShould you be here?
p1023
sg8
VDONNA
p1024
sg10
g11
sa(dp1025
g6
VNo.
p1026
sg8
VCLIFF
p1027
sg10
g11
sa(dp1028
g6
VThen what...?
p1029
sg8
VDONNA
p1030
sg10
g11
sa(dp1031
g6
VI need to know why you lied before.
p1032
sg8
VCLIFF
p1033
sg10
g11
sa(dp1034
g6
VWhen?
p1035
sg8
VDONNA
p1036
sg10
g11
sa(dp1037
g6
VDonna...
p1038
sg8
VCLIFF
p1039
sg10
g11
sa(dp1040
g6
VI didn't lie.
p1041
sg8
VDONNA
p1042
sg10
g11
sa(dp1043
g6
VI saw your diary. When I was over that night. You keep a diary. Why'd you say you didn't?
p1044
sg8
VCLIFF
p1045
sg10
g11
sa(dp1046
g6
VI don't keep a diary.
p1047
sg8
VDONNA
p1048
sg10
g11
sa(dp1049
g6
VI saw it.
p1050
sg8
VCLIFF
p1051
sg10
g11
sa(dp1052
g6
VYou didn't 'cause there is no diary.
p1053
sg8
VDONNA
p1054
sg10
g11
sa(dp1055
g6
VDonna. [stands] It's me and you. Now what's in it that you had to lie to the Committee?
p1056
sg8
VCLIFF
p1057
sg10
g11
sa(dp1058
g6
VIt's me and you? You're lead counsel for the Committee investigating me, my friends, my boss, and the President of the United States.
p1059
sg8
VDONNA
p1060
sg10
g11
sa(dp1061
g6
VThat's right.
p1062
sg8
VCLIFF
p1063
sg10
g11
sa(dp1064
g6
VAnd I thought you were a little bit smarmy with your "Donna, it's okay. You can laugh. You're just..." Was that charm?
p1065
sg8
VDONNA
p1066
sg10
g11
sa(dp1067
g6
VTell me what...
p1068
sg8
VCLIFF
p1069
sg10
g11
sa(dp1070
g6
VThere is no diary.
p1071
sg8
VDONNA
p1072
sg10
g11
sa(dp1073
g6
V18 U.S.C., 1-0-0-1. Lying to Congress: 10,000 dollars and not more than five years in prison.
p1074
sg8
VCLIFF
p1075
sg10
g11
sa(dp1076
g6
VCliff...
p1077
sg8
VDONNA
p1078
sg10
g11
sa(dp1079
g6
V18 U.S.C., 1-5-0-5. Obstruction of proceedings before departments, agencies, and committees: Not more than five years. Two U.S.C., 192. Contempt of Congress: A thousand dollars and imprisonment in a common jail for not more than 12 months. It was a perfectly innocent mistake. Now let me talk to your lawyer and help you walk this back.
p1080
sg8
VCLIFF
p1081
sg10
g11
sa(dp1082
g6
VJust out of curiosity, what would you say? [beat] That you thought you saw a diary while you were hunting around for your boxer shorts? [pause] You shouldn't be here.
p1083
sg8
VDONNA
p1084
sg10
g11
sa(dp1085
g6
VWhy?
p1086
sg8
VJOSH
p1087
sg10
g11
sa(dp1088
g6
VWhy?
p1089
sg8
VSAM
p1090
sg10
g11
sa(dp1091
g6
VYes.
p1092
sg8
VJOSH
p1093
sg10
g175
sa(dp1094
g6
VBecause this country is populated with unbalanced people. Many of whom find their way to Washington. As if the continent funnels them into this one spot.
p1095
sg8
VSAM
p1096
sg10
g11
sa(dp1097
g6
VHe wants to abolish the penny?
p1098
sg8
VJOSH
p1099
sg10
g11
sa(dp1100
g6
VHe doesn't want to abolish it, as much as he wants to give his boss a reason why we can't.
p1101
sg8
VSAM
p1102
sg10
g11
sa(dp1103
g6
VWell... it's stupid.
p1104
sg8
VJOSH
p1105
sg10
g11
sa(dp1106
g6
VYeah, but the thing is it isn't really.
p1107
sg8
VSAM
p1108
sg10
g11
sa(dp1109
g6
VReally?
p1110
sg8
VJOSH
p1111
sg10
g11
sa(dp1112
g6
VIt turns out the majority of pennies don't circulate. They go in jars and sock drawers. Two-thirds of the pennies produced in the last 30 years have dropped out of circulation.
p1113
sg8
VSAM
p1114
sg10
g11
sa(dp1115
g6
VYou've been reading about this?
p1116
sg8
VJOSH
p1117
sg10
g11
sa(dp1118
g6
VIt's interesting.
p1119
sg8
VSAM
p1120
sg10
g11
sa(dp1121
g6
VNo, it's not.
p1122
sg8
VJOSH
p1123
sg10
g11
sa(dp1124
g6
V[stands] The Mint gets letters with pennies taped on notebook paper. Letters from citizens who found the pennies on the street and mailed them back to the Treasury to help pay down the debt.
p1125
sg8
VSAM
p1126
sg10
g11
sa(dp1127
g6
VIt's almost hard to believe that plan hasn't worked.
p1128
sg8
VJOSH
p1129
sg10
g11
sa(dp1130
g6
VIt's also bad for the environment. Production requires the mining of millions of tons of copper and zinc each year.
p1131
sg8
VSAM
p1132
sg10
g11
sa(dp1133
g6
VZinc?
p1134
sg8
VJOSH
p1135
sg10
g11
sa(dp1136
g6
VIn 1982, they changed the composition to 97.5% zinc and only 2.5% copper.
p1137
sg8
VSAM
p1138
sg10
g11
sa(dp1139
g6
VSam?
p1140
sg8
VJOSH
p1141
sg10
g11
sa(dp1142
g6
VI'm turning into one of the funnel people.
p1143
sg8
VSAM
p1144
sg10
g11
sa(dp1145
g6
VYeah.
p1146
sg8
VJOSH
p1147
sg10
g11
sa(dp1148
g6
V[pause] Donna thinks you're still pissed at her.
p1149
sg8
VSAM
p1150
sg10
g11
sa(dp1151
g6
VI'm not. I wasn't before. When did she tell you that?
p1152
sg8
VJOSH
p1153
sg10
g11
sa(dp1154
g6
VBefore she left. [sits]
p1155
sg8
VSAM
p1156
sg10
g11
sa(dp1157
g6
VYou've heard from her?
p1158
sg8
VJOSH
p1159
sg10
g11
sa(dp1160
g6
VNo.
p1161
sg8
VSAM
p1162
sg10
g11
sa(dp1163
g6
VShe should be done by now.
p1164
sg8
VJOSH
p1165
sg10
g11
sa(dp1166
g6
VHere's a riddle. What is the most ubiquitous man-made object in America that does not interact with any mechanism or machine?
p1167
sg8
VSAM
p1168
sg10
g11
sa(dp1169
g6
VThe penny?
p1170
sg8
VJOSH
p1171
sg10
g11
sa(dp1172
g6
VThen penny. You can't even throw it in a tollbooth. Well, except for Illinois.
p1173
sg8
VSAM
p1174
sg10
g11
sa(dp1175
g6
VWhy can you use it in Illinois?
p1176
sg8
VJOSH
p1177
sg10
g11
sa(dp1178
g6
VThat's an interesting question.
p1179
sg8
VSAM
p1180
sg10
g11
sa(dp1181
g6
VNo, it's not. [walks off]
p1182
sg8
VJOSH
p1183
sg10
g11
sa(dp1184
g6
VHey.
p1185
sg8
VC.J.
p1186
sg10
g11
sa(dp1187
g6
VHey.
p1188
sg8
VWILL
p1189
sg10
g11
sa(dp1190
g6
VI'm gonna have something for you soon. Toby's talking to some people.
p1191
sg8
VC.J.
p1192
sg10
g11
sa(dp1193
g6
VOkay.
p1194
sg8
VWILL
p1195
sg10
g11
sa(dp1196
g6
VHey, are you a king?
p1197
sg8
VC.J.
p1198
sg10
g11
sa(dp1199
g6
VNo.
p1200
sg8
VWILL
p1201
sg10
g11
sa(dp1202
g6
VSomebody said you were hanging out with some tribe, and they made you a king.
p1203
sg8
VC.J.
p1204
sg10
g11
sa(dp1205
g6
VI'm a god.
p1206
sg8
VWILL
p1207
sg10
g11
sa(dp1208
g6
VOh.
p1209
sg8
VC.J.
p1210
sg10
g11
sa(dp1211
g6
VI'm the only white man to ever witness the sacrificial rites of the Bau tribe of Fiji. I was almost a victim myself, until they made me The Supporter of the World.
p1212
sg8
VWILL
p1213
sg10
g11
sa(dp1214
g6
VHow'd you swing that?
p1215
sg8
VC.J.
p1216
sg10
g175
sa(dp1217
g6
VUsing my Palm Pilot, I convinced the Bau I had the power to make the gods' writing appear at will, and more significantly, predict the next day's weather.
p1218
sg8
VWILL
p1219
sg10
g11
sa(dp1220
g6
VSo you're a god?
p1221
sg8
VC.J.
p1222
sg10
g11
sa(dp1223
g6
VI'm the god of Good Harvest and the Land of the Dead.
p1224
sg8
VWILL
p1225
sg10
g11
sa(dp1226
g6
VI gotta go there and bring my laptop. It quacks when I have e-mail.
p1227
sg8
VC.J.
p1228
sg10
g11
sa(dp1229
g6
VNo, you're too tall.
p1230
sg8
VWILL
p1231
sg10
g11
sa(dp1232
g6
VWhat would happen?
p1233
sg8
VC.J.
p1234
sg10
g11
sa(dp1235
g6
VThey would paint your face and [points] other body parts black [C.J. looks] so as to resemble a warrior ornamented for feast or combat. Then you would be garroted by a length of boar tripe.
p1236
sg8
VWILL
p1237
sg10
g11
sa(dp1238
g6
VYeah. No, good safety tip.
p1239
sg8
VC.J.
p1240
sg10
g11
sa(dp1241
g6
VAlan Adamley here?
p1242
sg8
VWILL
p1243
sg10
g96
sa(dp1244
g6
VYeah.
p1245
sg8
VC.J.
p1246
sg10
g11
sa(dp1247
g6
VWhy?
p1248
sg8
VWILL
p1249
sg10
g11
sa(dp1250
g6
VHe's meeting with Leo McGarry.
p1251
sg8
VC.J.
p1252
sg10
g11
sa(dp1253
g6
VWhy?
p1254
sg8
VWILL
p1255
sg10
g11
sa(dp1256
g6
VI don't know. Listen, you made a joke before.
p1257
sg8
VC.J.
p1258
sg10
g175
sa(dp1259
g6
VYeah.
p1260
sg8
VWILL
p1261
sg10
g11
sa(dp1262
g6
VAbout being assigned to the White House until you could get a real reporting job.
p1263
sg8
VC.J.
p1264
sg10
g11
sa(dp1265
g6
VYeah.
p1266
sg8
VWILL
p1267
sg10
g11
sa(dp1268
g6
VWas it a joke?
p1269
sg8
VC.J.
p1270
sg10
g11
sa(dp1271
g6
VYeah.
p1272
sg8
VWILL
p1273
sg10
g11
sa(dp1274
g6
VOkay. I'll have something for you on the other thing soon.
p1275
sg8
VC.J.
p1276
sg10
g11
sa(dp1277
g6
VThanks.
p1278
sg8
VWILL
p1279
sg10
g11
sa(dp1280
g6
VThat's not true.
p1281
sg8
VHOYNES
p1282
sg10
g11
sa(dp1283
g6
VJohn...
p1284
sg8
VBARTLET
p1285
sg10
g11
sa(dp1286
g6
VIt is not true, Mr. President. Twenty-nine states have "shall issue" laws.
p1287
sg8
VHOYNES
p1288
sg10
g11
sa(dp1289
g6
VAnd if you look at the state of New Jersey, which has a "may issue" law-if you look at changing that one word...
p1290
sg8
VBARTLET
p1291
sg10
g11
sa(dp1292
g6
VLook, I'm not saying...
p1293
sg8
VHOYNES
p1294
sg10
g11
sa(dp1295
g6
VChanging that one word means law enforcement can decide who gets a concealed weapon and when and where they can carry it. Texas has a "may issue" law in front of a legislature right now, and you going down there...
p1296
sg8
VBARTLET
p1297
sg10
g11
sa(dp1298
g6
VMe going down there is suicide, sir, and you know it.
p1299
sg8
VHOYNES
p1300
sg10
g11
sa(dp1301
g6
VIt's counter-scheduling. You go in front of an unfriendly audience. You tell them something they don't want to hear-it shows you have courage.
p1302
sg8
VBARTLET
p1303
sg10
g11
sa(dp1304
g6
VSo the editor of The New York Times will think I have courage, while the people who decide elections...
p1305
sg8
VHOYNES
p1306
sg10
g11
sa(dp1307
g6
VYou're a hero in Texas.
p1308
sg8
VBARTLET
p1309
sg10
g11
sa(dp1310
g6
VI was a hero in Texas.
p1311
sg8
VHOYNES
p1312
sg10
g11
sa(dp1313
g6
VTexans don't like that you have the courage of your convictions?
p1314
sg8
VBARTLET
p1315
sg10
g11
sa(dp1316
g6
VThey're not my convictions. They're yours.
p1317
sg8
VHOYNES
p1318
sg10
g11
sa(dp1319
g6
V[beat] Oh, yeah. I forgot.
p1320
sg8
VBARTLET
p1321
sg10
g11
sa(dp1322
g6
VMr. President, we're not gonna get anywhere by treating gun owners like psychopaths, and particularly in the South, where guns are a tradition and a heritage that's passed on from father to son. You can't...
p1323
sg8
VHOYNES
p1324
sg10
g11
sa(dp1325
g6
VThat's not good enough.
p1326
sg8
VBARTLET
p1327
sg10
g11
sa(dp1328
g6
VSir?
p1329
sg8
VHOYNES
p1330
sg10
g11
sa(dp1331
g6
VA tradition that's passed on from father to son? We tamed the frontier, John. We did that already.
p1332
sg8
VBARTLET
p1333
sg10
g11
sa(dp1334
g6
VThe NRA is gonna say you're taking advantage of the shooting in Abilene. That you like it when these things happen, 'cause it gives you a chance...
p1335
sg8
VHOYNES
p1336
sg10
g11
sa(dp1337
g6
VLet them stand in this room and say that. On this day. Let them stand in this room. I like it?! She was nine years old!
p1338
sg8
VBARTLET
p1339
sg10
g11
sa(dp1340
g6
VGreen Bay lost. [beat] She was nine years old.
p1341
sg8
VBARTLET
p1342
sg10
g11
sa(dp1343
g6
VYou know, last month in Idaho, a man killed six members of his family, including his pregnant wife. And you know why the liberal intelligentsia didn't go crazy? Because he did it with an ax. [beat] You think we need ax control?
p1344
sg8
VHOYNES
p1345
sg10
g11
sa(dp1346
g6
VWell... that is an excellent point. I never saw it that way.
p1347
sg8
VBARTLET
p1348
sg10
g175
sa(dp1349
g6
VI'm playing devil's advocate.
p1350
sg8
VHOYNES
p1351
sg10
g11
sa(dp1352
g6
VTighter ax control.
p1353
sg8
VBARTLET
p1354
sg10
g11
sa(dp1355
g6
VYou come down on firearms, you come down on tobacco, you come down on alcohol, but you let Griffith run around talking about legalizing marijuana.
p1356
sg8
VHOYNES
p1357
sg10
g11
sa(dp1358
g6
VShe didn't...
p1359
sg8
VBARTLET
p1360
sg10
g11
sa(dp1361
g6
VSir?
p1362
sg8
VHOYNES
p1363
sg10
g11
sa(dp1364
g6
VYou know what? Last year, gun deaths? 30,708. Alcohol deaths? 35,450. Tobacco deaths? 400,000. Marijuana deaths? Zero. This guy, the second shooter-Rambo? He's gonna get nothing. He's gonna get a parade. You know why? There was no sign posted in the church saying you can't carry a concealed weapon. [beat] I'm just playing devil's advocate. She was nine years old.
p1365
sg8
VBARTLET
p1366
sg10
g11
sa(dp1367
g6
VTwo things: One, technically, it's not just a court for war crimes.
p1368
sg8
VLEO
p1369
sg10
g11
sa(dp1370
g6
VTechnically?
p1371
sg8
VADAMLEY
p1372
sg10
g11
sa(dp1373
g6
VAnd two, the President hasn't made up his mind yet.
p1374
sg8
VLEO
p1375
sg10
g11
sa(dp1376
g6
VThe UN has.
p1377
sg8
VADAMLEY
p1378
sg10
g11
sa(dp1379
g6
VThe UN made up its mind in 1948, when they recognized the crime of genocide.
p1380
sg8
VLEO
p1381
sg10
g11
sa(dp1382
g6
VYes...
p1383
sg8
VADAMLEY
p1384
sg10
g175
sa(dp1385
g6
VA crime so immense as to exceed the jurisdiction of any single court or government. Alan, systematic extermination of civilians, enslavement, torture, rape, forced pregnancy, terrorism-doesn't the world need a permanent standing body...?
p1386
sg8
VLEO
p1387
sg10
g11
sa(dp1388
g6
VNational sovereignty is at stake. Americans are answerable to no one but their own government and their own laws.
p1389
sg8
VADAMLEY
p1390
sg10
g11
sa(dp1391
g6
VYeah.
p1392
sg8
VLEO
p1393
sg10
g11
sa(dp1394
g6
VAnd people need to be reminded that the UN is not a democratic organization. There's no input in its deliberations by any...
p1395
sg8
VADAMLEY
p1396
sg10
g11
sa(dp1397
g6
VCome on. The court is designed with plenty of safeguards, to say nothing of if we don't subject ourselves to the treaty, it'll encourage other countries...
p1398
sg8
VLEO
p1399
sg10
g11
sa(dp1400
g6
VSure.
p1401
sg8
VADAMLEY
p1402
sg10
g11
sa(dp1403
g6
VAnd you don't think that'll undercut the UN's campaign against war crimes?
p1404
sg8
VLEO
p1405
sg10
g11
sa(dp1406
g6
VExcuse me. Excuse me, General.
p1407
sg8
VSAM
p1408
sg10
g11
sa(dp1409
g6
VHey, Sam.
p1410
sg8
VADAMLEY
p1411
sg10
g11
sa(dp1412
g6
VMargaret wasn't out here.
p1413
sg8
VSAM
p1414
sg10
g11
sa(dp1415
g6
VWhat do you need?
p1416
sg8
VLEO
p1417
sg10
g11
sa(dp1418
g6
VNo, if you're in the middle of something, I can come back.
p1419
sg8
VSAM
p1420
sg10
g11
sa(dp1421
g6
VWe're eliminating genocide. What are you doing?
p1422
sg8
VADAMLEY
p1423
sg10
g11
sa(dp1424
g6
VEliminating the penny. So I'll come back.
p1425
sg8
VSAM
p1426
sg10
g11
sa(dp1427
g6
VYeah.
p1428
sg8
VLEO
p1429
sg10
g11
sa(dp1430
g6
VSee you later.
p1431
sg8
VADAMLEY
p1432
sg10
g11
sa(dp1433
g6
VHey.
p1434
sg8
VSAM
p1435
sg10
g11
sa(dp1436
g6
VHi.
p1437
sg8
VDONNA
p1438
sg10
g11
sa(dp1439
g6
VHow'd it go?
p1440
sg8
VSAM
p1441
sg10
g11
sa(dp1442
g6
VIt went fine.
p1443
sg8
VDONNA
p1444
sg10
g11
sa(dp1445
g6
VJust background, right?
p1446
sg8
VSAM
p1447
sg10
g11
sa(dp1448
g6
VIt was fine. Is Josh in his office?
p1449
sg8
VDONNA
p1450
sg10
g11
sa(dp1451
g6
VHe's around someplace.
p1452
sg8
VSAM
p1453
sg10
g11
sa(dp1454
g6
VThanks.
p1455
sg8
VDONNA
p1456
sg10
g11
sa(dp1457
g6
V[pause] Do you know the only thing pennies interact with are those coin-wrapping machines people buy to get rid of pennies, which kind of proves the point.
p1458
sg8
VSAM
p1459
sg10
g11
sa(dp1460
g6
VWhat point?
p1461
sg8
VDONNA
p1462
sg10
g11
sa(dp1463
g6
VI don't know. It went okay?
p1464
sg8
VSAM
p1465
sg10
g11
sa(dp1466
g6
VFine.
p1467
sg8
VDONNA
p1468
sg10
g11
sa(dp1469
g6
VHow'd it go?
p1470
sg8
VJOSH
p1471
sg10
g11
sa(dp1472
g6
VI really need to talk to you for a second.
p1473
sg8
VDONNA
p1474
sg10
g11
sa(dp1475
g6
VWhat happened?
p1476
sg8
VJOSH
p1477
sg10
g11
sa(dp1478
g6
VI need to just... Can we go in your office?
p1479
sg8
VDONNA
p1480
sg10
g11
sa(dp1481
g6
VHey, how'd it go?
p1482
sg8
VGINGER
p1483
sg10
g11
sa(dp1484
g6
VFine.
p1485
sg8
VDONNA
p1486
sg10
g11
sa(dp1487
g6
VWhat happened?
p1488
sg8
VJOSH
p1489
sg10
g11
sa(dp1490
g6
VI was asked if I kept a diary, and I said no, only I do keep a diary.
p1491
sg8
VDONNA
p1492
sg10
g11
sa(dp1493
g6
VWhy did you say you didn't?
p1494
sg8
VJOSH
p1495
sg10
g175
sa(dp1496
g6
VI don't know.
p1497
sg8
VDONNA
p1498
sg10
g11
sa(dp1499
g6
VWhat do you mean you don't know?
p1500
sg8
VJOSH
p1501
sg10
g11
sa(dp1502
g6
VNothing in the diary is relevant. I'm the only one...
p1503
sg8
VDONNA
p1504
sg10
g11
sa(dp1505
g6
VIs there anyone else in the witness list who knows you keep a diary?
p1506
sg8
VJOSH
p1507
sg10
g11
sa(dp1508
g6
VWell, there's nobody who knows I keep a diary, except the thing is... Cliff saw it.
p1509
sg8
VDONNA
p1510
sg10
g11
sa(dp1511
g6
V[beat] What do you mean?
p1512
sg8
VJOSH
p1513
sg10
g11
sa(dp1514
g6
VCliff came to me after the deposition and told me he saw the diary when he was in my apartment.
p1515
sg8
VDONNA
p1516
sg10
g11
sa(dp1517
g6
VI swear it wasn't premeditated. Nothing in it was material. Nothing in it was...
p1518
sg8
VDONNA
p1519
sg10
g11
sa(dp1520
g6
VYou don't get to decide that! You don't get to decide what's material and what isn't, Donna!
p1521
sg8
VJOSH
p1522
sg10
g11
sa(dp1523
g6
VPlease keep your voice down.
p1524
sg8
VDONNA
p1525
sg10
g11
sa(dp1526
g6
VThis is how it happens. They got nothing on the President with MS. They're trolling, then you go in and hand them a...
p1527
sg8
VJOSH
p1528
sg10
g11
sa(dp1529
g6
VI know.
p1530
sg8
VDONNA
p1531
sg10
g11
sa(dp1532
g6
VYou were subpoenaed! You were under oath! You answer the damn question!
p1533
sg8
VJOSH
p1534
sg10
g11
sa(dp1535
g6
VI screwed up.
p1536
sg8
VDONNA
p1537
sg10
g96
sa(dp1538
g6
VYOU THINK?!
p1539
sg8
VJOSH
p1540
sg10
g11
sa(dp1541
g6
VWhat should I do?
p1542
sg8
VDONNA
p1543
sg10
g11
sa(dp1544
g6
VDo nothing. Do absolutely nothing.
p1545
sg8
VJOSH
p1546
sg10
g11
sa(dp1547
g6
VShhhhh.
p1548
sg8
VSTAFFER
p1549
sg10
g11
sa(dp1550
g6
VThere's an old saying: "Those who speak, don't know; and those who know, don't speak." I don't know if that's true or not, but I know that by and large the press doesn't care who really knows what as long as they've got a quote. Last Friday, we had our Week Ahead meeting in the Roosevelt Room. Some of you were there, most of you weren't, but I'm talking to all of you now. Bruno Gianelli and I were leading a discussion about whether or not the President should stop in Kansas on his way back from the West Coast, and I remarked that the Vice President is polling better than the President right now in the Plains states...
p1551
sg8
VTOBY
p1552
sg10
g11
sa(dp1553
g6
VThat was unexpected.
p1554
sg8
VSAM
p1555
sg10
g11
sa(dp1556
g6
V[sighs] Yeah... You're a good deputy, Sam.
p1557
sg8
VTOBY
p1558
sg10
g11
sa(dp1559
g6
VWhat do you mean?
p1560
sg8
VSAM
p1561
sg10
g11
sa(dp1562
g6
VThat.
p1563
sg8
VTOBY
p1564
sg10
g11
sa(dp1565
g6
V[chuckles] You won money on football today, didn't you?
p1566
sg8
VSAM
p1567
sg10
g11
sa(dp1568
g6
VYeah, but I mean it anyway. What can I do for you today? How can I help you out?
p1569
sg8
VTOBY
p1570
sg10
g11
sa(dp1571
g6
VYou can give me a reason why the White House can't support the elimination of the penny.
p1572
sg8
VSAM
p1573
sg10
g11
sa(dp1574
g6
VThis is the Legal Tender... Huckleberry Bill?
p1575
sg8
VTOBY
p1576
sg10
g11
sa(dp1577
g6
VModernization Bill, yeah.
p1578
sg8
VSAM
p1579
sg10
g11
sa(dp1580
g6
VWe can't support it 'cause it'll never get to the floor.
p1581
sg8
VTOBY
p1582
sg10
g11
sa(dp1583
g6
VWhy not?
p1584
sg8
VSAM
p1585
sg10
g11
sa(dp1586
g6
VWhere's the Speaker of the House from?
p1587
sg8
VTOBY
p1588
sg10
g11
sa(dp1589
g6
VHe's from Illinois, which, by the way, is the only state where you can put pennies in a toll machine. Why is that, do you suppose?
p1590
sg8
VSAM
p1591
sg10
g11
sa(dp1592
g6
VIt's because...
p1593
sg8
VTOBY
p1594
sg10
g11
sa(dp1595
g6
VIt's 'cause Lincoln's from Illinois! And... so is the Speaker.
p1596
sg8
VSAM
p1597
sg10
g11
sa(dp1598
g6
VYes.
p1599
sg8
VTOBY
p1600
sg10
g175
sa(dp1601
g6
VWell, that's a good reason. Well, it's a dumb reason, but it's good enough, right?
p1602
sg8
VSAM
p1603
sg10
g11
sa(dp1604
g6
VSure. They start walking up the stairs again.
p1605
sg8
VTOBY
p1606
sg10
g11
sa(dp1607
g6
VThank you.
p1608
sg8
VSAM
p1609
sg10
g175
sa(dp1610
g6
VYeah.
p1611
sg8
VTOBY
p1612
sg10
g11
sa(dp1613
g6
VAnd thanks for the other thing.
p1614
sg8
VSAM
p1615
sg10
g11
sa(dp1616
g6
VYeah.
p1617
sg8
VTOBY
p1618
sg10
g11
sa(dp1619
g6
VHi.
p1620
sg8
VC.J.
p1621
sg10
g11
sa(dp1622
g6
VHi.
p1623
sg8
VWILL
p1624
sg10
g11
sa(dp1625
g6
VWhat do you need?
p1626
sg8
VC.J.
p1627
sg10
g11
sa(dp1628
g6
VYou called me.
p1629
sg8
VWILL
p1630
sg10
g11
sa(dp1631
g6
VYes, I did... Well, Toby made the remark in response to some new polling data. It was offhand. Obviously, he meant it as a joke. He regrets it.
p1632
sg8
VC.J.
p1633
sg10
g11
sa(dp1634
g6
VOkay.
p1635
sg8
VWILL
p1636
sg10
g11
sa(dp1637
g6
VHe'll be happy to go on the record with you.
p1638
sg8
VC.J.
p1639
sg10
g11
sa(dp1640
g6
V[shrugs] Nah, that's all right.
p1641
sg8
VWILL
p1642
sg10
g11
sa(dp1643
g6
VWhat do you mean?
p1644
sg8
VC.J.
p1645
sg10
g11
sa(dp1646
g6
VI don't need him.
p1647
sg8
VWILL
p1648
sg10
g11
sa(dp1649
g6
VYou're not gonna let Toby explain himself?
p1650
sg8
VC.J.
p1651
sg10
g11
sa(dp1652
g6
VI'm not writing it.
p1653
sg8
VWILL
p1654
sg10
g11
sa(dp1655
g6
VWhy not?
p1656
sg8
VC.J.
p1657
sg10
g11
sa(dp1658
g6
V[mildly indignant] It's not news.
p1659
sg8
VWILL
p1660
sg10
g11
sa(dp1661
g6
VReally?
p1662
sg8
VC.J.
p1663
sg10
g11
sa(dp1664
g6
VYeah.
p1665
sg8
VWILL
p1666
sg10
g11
sa(dp1667
g6
V[surprised and pleased] Okay.
p1668
sg8
VC.J.
p1669
sg10
g11
sa(dp1670
g6
VI'll see you in there.
p1671
sg8
VWILL
p1672
sg10
g11
sa(dp1673
g6
VYou weren't joking before, were you?
p1674
sg8
VC.J.
p1675
sg10
g11
sa(dp1676
g6
VWhen?
p1677
sg8
VWILL
p1678
sg10
g11
sa(dp1679
g6
VWhen you said...
p1680
sg8
VC.J.
p1681
sg10
g11
sa(dp1682
g6
VNo.
p1683
sg8
VWILL
p1684
sg10
g11
sa(dp1685
g6
V[walks toward him a little bit] Why do you think the White House is a bad beat?
p1686
sg8
VC.J.
p1687
sg10
g11
sa(dp1688
g6
VI don't like being a stenographer. And I don't like writing gossip. [walks toward her a little bit] I read a column last week where a lady bemoaned the decade of scandals she's had to cover, as if the news was to blame for the quality of journalism. I don't know if there's ever been a more important time to be good at what I do. Can you imagine how much I don't give a damn about what Toby said to a staffer?
p1689
sg8
VWILL
p1690
sg10
g11
sa(dp1691
g6
VYeah... All right.
p1692
sg8
VC.J.
p1693
sg10
g11
sa(dp1694
g6
VYou can sit anywhere you want.
p1695
sg8
VC.J.
p1696
sg10
g11
sa(dp1697
g6
V139 countries have signed. 35 have ratified. Once 60 ratify, that's the ball game. You want to be left out? [sits]
p1698
sg8
VLEO
p1699
sg10
g11
sa(dp1700
g6
VAbsolutely. And I'll tell you what else. This is gonna raise nineteen kinds of hell in Congress.
p1701
sg8
VADAMLEY
p1702
sg10
g11
sa(dp1703
g6
VWhat doesn't?
p1704
sg8
VLEO
p1705
sg10
g11
sa(dp1706
g6
VThere're already extreme Republicans who are attaching amendments to bills cutting off military aid to any NATO member that signs the treaty...
p1707
sg8
VADAMLEY
p1708
sg10
g11
sa(dp1709
g6
VThat won't happen.
p1710
sg8
VLEO
p1711
sg10
g11
sa(dp1712
g6
V...and committing the U.S. to forcibly rescue any American soldier held and tried in such a court. Leo, this commits the United States to a scenario...where we'd be invading Holland!
p1713
sg8
VADAMLEY
p1714
sg10
g11
sa(dp1715
g6
VHow much of this is about hedging our bets?
p1716
sg8
VLEO
p1717
sg10
g11
sa(dp1718
g6
VIt's not about...
p1719
sg8
VADAMLEY
p1720
sg10
g11
sa(dp1721
g6
V[hollering] Look, we set up Nuremberg! We set up the Tokyo War Crimes Trial. And that was fine until we realized the Cold War threat was gonna take precedence. So when the German rocket scientists came here to help us get into space...
p1722
sg8
VLEO
p1723
sg10
g11
sa(dp1724
g6
VOh, please...
p1725
sg8
VADAMLEY
p1726
sg10
g11
sa(dp1727
g6
V...we looked the other way, while SS officers followed right behind, protected by American intelligence services, 'cause they were gonna help us with the Communists. Oh, please, Alan...So how much of this is hedging our bets?
p1728
sg8
VLEO
p1729
sg10
g11
sa(dp1730
g6
VRemember Operation Rolling Thunder?
p1731
sg8
VADAMLEY
p1732
sg10
g11
sa(dp1733
g6
VYeah. I think I do, yeah.
p1734
sg8
VLEO
p1735
sg10
g11
sa(dp1736
g6
V[opens the file] September 1966?
p1737
sg8
VADAMLEY
p1738
sg10
g11
sa(dp1739
g6
VYeah.
p1740
sg8
VLEO
p1741
sg10
g11
sa(dp1742
g6
VYou were piloting an F-105 Fighter Chief. This was our first unit, 355th Tactical Fighter Wing out of Thailand.
p1743
sg8
VADAMLEY
p1744
sg10
g11
sa(dp1745
g6
VYeah.
p1746
sg8
VLEO
p1747
sg10
g11
sa(dp1748
g6
VI was Forward Air Commander. I gave you your directions. [reads from file] "From I.P., heading 273 for 10.5 miles. Your target is north-south running bridge over river, one kilometer to the tree line running east-west."
p1749
sg8
VADAMLEY
p1750
sg10
g11
sa(dp1751
g6
V[impatiently] Yeah?
p1752
sg8
VLEO
p1753
sg10
g11
sa(dp1754
g6
V[defensively] It was a military target.
p1755
sg8
VLEO
p1756
sg10
g11
sa(dp1757
g6
VIt was a civilian target. It was a dam. There were eleven civilian casualties.
p1758
sg8
VADAMLEY
p1759
sg10
g11
sa(dp1760
g6
VWhy did you tell me that?
p1761
sg8
VLEO
p1762
sg10
g175
sa(dp1763
g6
VBecause you could be charged and tried for a war crime.
p1764
sg8
VADAMLEY
p1765
sg10
g11
sa(dp1766
g6
V[angrily] Why did you tell me that?!
p1767
sg8
VLEO
p1768
sg10
g11
sa(dp1769
g6
V[coolly] All wars are crimes.
p1770
sg8
VADAMLEY
p1771
sg10
g11
sa(dp1772
g6
VWe've been here awhile.
p1773
sg8
VLEO
p1774
sg10
g96
sa(dp1775
g6
VYeah. [stands up, buttoning his jacket]
p1776
sg8
VADAMLEY
p1777
sg10
g11
sa(dp1778
g6
VMaybe we'll call it a day.
p1779
sg8
VLEO
p1780
sg10
g11
sa(dp1781
g6
VYeah.
p1782
sg8
VADAMLEY
p1783
sg10
g11
sa(dp1784
g6
VI'll get you some time with the President this week.
p1785
sg8
VLEO
p1786
sg10
g11
sa(dp1787
g6
VI appreciate that.
p1788
sg8
VADAMLEY
p1789
sg10
g11
sa(dp1790
g6
V[stands and sighs heavily] Thank you.
p1791
sg8
VLEO
p1792
sg10
g11
sa(dp1793
g6
VThank you. [leaves]
p1794
sg8
VADAMLEY
p1795
sg10
g175
sa(dp1796
g6
VCan I ask you a question, just out of curiosity?
p1797
sg8
VBARTLET
p1798
sg10
g11
sa(dp1799
g6
VYes, sir.
p1800
sg8
VHOYNES
p1801
sg10
g175
sa(dp1802
g6
VIf guns are meant to deter the threat of crime, what's the point of concealing them? I mean, wouldn't you want the criminal to see that you've got a gun?
p1803
sg8
VBARTLET
p1804
sg10
g11
sa(dp1805
g6
V[puts his glass down on the table] I suppose you would.
p1806
sg8
VHOYNES
p1807
sg10
g11
sa(dp1808
g6
VThen what's the answer to that?
p1809
sg8
VBARTLET
p1810
sg10
g11
sa(dp1811
g6
VI really don't know.
p1812
sg8
VHOYNES
p1813
sg10
g11
sa(dp1814
g6
VYou don't know?
p1815
sg8
VBARTLET
p1816
sg10
g11
sa(dp1817
g6
VNo, sir. I suppose the concern has more to do with the threat to the Second Amendment.
p1818
sg8
VHOYNES
p1819
sg10
g11
sa(dp1820
g6
VWe can't all just agree it's a stupid-ass amendment that was written before there were street lamps, much less police forces, and move on?
p1821
sg8
VBARTLET
p1822
sg10
g11
sa(dp1823
g6
V[wearily] Sir...
p1824
sg8
VHOYNES
p1825
sg10
g11
sa(dp1826
g6
VThere's no need for a citizen militia.
p1827
sg8
VBARTLET
p1828
sg10
g11
sa(dp1829
g6
VI agree with you.
p1830
sg8
VHOYNES
p1831
sg10
g175
sa(dp1832
g6
VThen say so.
p1833
sg8
VBARTLET
p1834
sg10
g11
sa(dp1835
g6
VForty percent of Americans have a gun in their home.
p1836
sg8
VHOYNES
p1837
sg10
g11
sa(dp1838
g6
VOnly 16% believe gun ownership is an absolute right. Only 9% believe it's an absolute wrong. There's a middle. We can win them!
p1839
sg8
VBARTLET
p1840
sg10
g11
sa(dp1841
g6
V[testily] Not when we're running the MS defense, Mr. President!
p1842
sg8
VHOYNES
p1843
sg10
g11
sa(dp1844
g6
VWhich we wouldn't have been doing if...
p1845
sg8
VBARTLET
p1846
sg10
g11
sa(dp1847
g6
VIf what, sir?
p1848
sg8
VHOYNES
p1849
sg10
g11
sa(dp1850
g6
VNothing.
p1851
sg8
VBARTLET
p1852
sg10
g11
sa(dp1853
g6
V[fuming] You outed me, John. With that trip to Nashua, with the oil companies. You wanted people to start asking questions.
p1854
sg8
VBARTLET
p1855
sg10
g11
sa(dp1856
g6
V[angry] I needed to start running because nobody told me I wasn't! And you announced it! And I found out on television!
p1857
sg8
VHOYNES
p1858
sg10
g11
sa(dp1859
g6
V[yelling] So did my wife.
p1860
sg8
VBARTLET
p1861
sg10
g11
sa(dp1862
g6
V[yelling] This whole thing was mismanaged, sir!
p1863
sg8
VHOYNES
p1864
sg10
g11
sa(dp1865
g6
VLook...
p1866
sg8
VBARTLET
p1867
sg10
g11
sa(dp1868
g6
V[yelling] It was blown!
p1869
sg8
VHOYNES
p1870
sg10
g11
sa(dp1871
g6
VYes, it was.
p1872
sg8
VBARTLET
p1873
sg10
g175
sa(dp1874
g6
VYes, it was!
p1875
sg8
VHOYNES
p1876
sg10
g11
sa(dp1877
g6
VIt's not easy being my Vice President, is it?
p1878
sg8
VBARTLET
p1879
sg10
g11
sa(dp1880
g6
V[sighs] No, sir.
p1881
sg8
VHOYNES
p1882
sg10
g11
sa(dp1883
g6
VI wouldn't think so. [walks around behind his desk and leans on it] But it's the only way you're gonna get the nomination. You know that, right? If I win.
p1884
sg8
VBARTLET
p1885
sg10
g11
sa(dp1886
g6
VYeah. And the only way you're gonna win is if I'm on the ticket. You know that, don't you, sir?
p1887
sg8
VHOYNES
p1888
sg10
g11
sa(dp1889
g6
VYeah.
p1890
sg8
VBARTLET
p1891
sg10
g11
sa(dp1892
g6
VYou'll go to Texas?
p1893
sg8
VBARTLET
p1894
sg10
g11
sa(dp1895
g6
V[nods] I want a seat at the table.
p1896
sg8
VHOYNES
p1897
sg10
g11
sa(dp1898
g6
VYeah.
p1899
sg8
VBARTLET
p1900
sg10
g11
sa(dp1901
g6
V[knocks and enters] Mr. President?
p1902
sg8
VCHARLIE
p1903
sg10
g11
sa(dp1904
g6
VYeah?
p1905
sg8
VBARTLET
p1906
sg10
g11
sa(dp1907
g6
VThey're getting ready for you in the Briefing Room.
p1908
sg8
VCHARLIE
p1909
sg10
g11
sa(dp1910
g6
VThank you.
p1911
sg8
VBARTLET
p1912
sg10
g175
sa(dp1913
g6
VI'll be back in my office. Is there anything else, sir?
p1914
sg8
VHOYNES
p1915
sg10
g11
sa(dp1916
g6
VNo.
p1917
sg8
VBARTLET
p1918
sg10
g11
sa(dp1919
g6
VThank you, Mr. President.
p1920
sg8
VHOYNES
p1921
sg10
g175
sa(dp1922
g6
VThere's a coffee shop across the street. You can read it there. You've got an hour. I haven't read it, but if anything bothers you, you'll issue a subpoena in the morning. You'll have it back before the end of the day. If not, that's that.
p1923
sg8
VJOSH
p1924
sg10
g11
sa(dp1925
g6
VYeah.
p1926
sg8
VCLIFF
p1927
sg10
g11
sa(dp1928
g6
VIf I read any of this in the newspaper, or anything happens I don't like, I've got the entries for October 4th and 5th.
p1929
sg8
VJOSH
p1930
sg10
g11
sa(dp1931
g6
VWhat's October 4th and 5th?
p1932
sg8
VCLIFF
p1933
sg10
g11
sa(dp1934
g6
V[pointing] You.
p1935
sg8
VJOSH
p1936
sg10
g11
sa(dp1937
g6
V[nods] That's fair. Thank you.
p1938
sg8
VCLIFF
p1939
sg10
g11
sa(dp1940
g6
V[shivering, sighs] It's starting to get cold already.
p1941
sg8
VJOSH
p1942
sg10
g11
sa(dp1943
g6
VIt's gonna be fine.
p1944
sg8
VJOSH
p1945
sg10
g11
sas.