(dp0
S'season'
p1
I4
sS'episode'
p2
I14
sS'script'
p3
(lp4
(dp5
S'text'
p6
VGood morning, Mr. President.
p7
sS'character'
p8
VC.J.
p9
sS'maxent_score'
p10
S'neutral'
p11
sa(dp12
g6
VWhy are they talking to me about the order of the balls?
p13
sg8
VBARTLET
p14
sg10
g11
sa(dp15
g6
VPolitical Affairs thinks it's important.
p16
sg8
VC.J.
p17
sg10
g11
sa(dp18
g6
VThey'd like you to start with the Plain States, followed by the Rust Belt Ball, then the one from the Pacific Northwest.
p19
sg8
VLARRY
p20
sg10
g11
sa(dp21
g6
VIt shows you're President of the whole country.
p22
sg8
VED
p23
sg10
g11
sa(dp24
g6
VAren't we about to demonstrate that pretty clearly right now?
p25
sg8
VC.J.
p26
sg10
g11
sa(dp27
g6
VHe could start with the New Hampshire ball.
p28
sg8
VED
p29
sg10
g11
sa(dp30
g6
VMake it clear he knows where he came from.
p31
sg8
VLARRY
p32
sg10
g11
sa(dp33
g6
VThe President has a driver's license.
p34
sg8
VC.J.
p35
sg10
g11
sa(dp36
g6
VWhat if he starts with all the states where jobs are in decline-- make it clear our message is the economy.
p37
sg8
VLARRY
p38
sg10
g11
sa(dp39
g6
VWell, that's only going to be clear if we also hand out decoder rings. Listen, it's an Inauguration Ball. Let's enjoy ourselves.
p40
sg8
VBARTLET
p41
sg10
g11
sa(dp42
g6
VThanks, ladies and gentlemen.
p43
sg8
VBARTLET
p44
sg10
g11
sa(dp45
g6
VKnock 'em dead, sir.
p46
sg8
VLARRY
p47
sg10
g11
sa(dp48
g6
VGame on, sir.
p49
sg8
VED
p50
sg10
g11
sa(dp51
g6
VActually, it's eight Inauguration Balls.
p52
sg8
VC.J.
p53
sg10
g11
sa(dp54
g6
VYou read it?
p55
sg8
VBARTLET
p56
sg10
g11
sa(dp57
g6
VEvery draft all night long.
p58
sg8
VC.J.
p59
sg10
g11
sa(dp60
g6
VYou haven't weighed in.
p61
sg8
VBARTLET
p62
sg10
g11
sa(dp63
g6
VI just did. Anything else, sir?
p64
sg8
VC.J.
p65
sg10
g11
sa(dp66
g6
VNo.
p67
sg8
VBARTLET
p68
sg10
g11
sa(dp69
g6
VEat 'em up, Chief.
p70
sg8
VC.J.
p71
sg10
S'negative'
p72
sa(dp73
g6
VThank you, Claudia.
p74
sg8
VBARTLET
p75
sg10
S'positive'
p76
sa(dp77
g6
VJosh.
p78
sg8
VBARTLET
p79
sg10
g11
sa(dp80
g6
VIt's leaked.
p81
sg8
VJOSH
p82
sg10
g11
sa(dp83
g6
VHow much?
p84
sg8
VBARTLET
p85
sg10
g72
sa(dp86
g6
VJust buzz. They know there's a restatement of foreign objectives. They know the committee chairmen haven't been consultated.
p87
sg8
VJOSH
p88
sg10
g11
sa(dp89
g6
VYeah.
p90
sg8
VBARTLET
p91
sg10
g11
sa(dp92
g6
VThey know it changed a lot overnight.
p93
sg8
VJOSH
p94
sg10
g11
sa(dp95
g6
VWell, their curiosity will be slacked in about 41 minutes. Listen.
p96
sg8
VBARTLET
p97
sg10
g11
sa(dp98
g6
VYes, sir?
p99
sg8
VJOSH
p100
sg10
g76
sa(dp101
g6
VI have a problem.
p102
sg8
VBARTLET
p103
sg10
g72
sa(dp104
g6
VWell, you're about to propose the most massive shift in foreign policy since the Marshall Plan, and it's going to be wildly unpopular.
p105
sg8
VJOSH
p106
sg10
g11
sa(dp107
g6
VAll right, two problems.
p108
sg8
VBARTLET
p109
sg10
g11
sa(dp110
g6
VYes, sir.
p111
sg8
VJOSH
p112
sg10
g76
sa(dp113
g6
VI don't have a bible.
p114
sg8
VBARTLET
p115
sg10
g72
sa(dp116
g6
VWhat do you mean?
p117
sg8
VJOSH
p118
sg10
g11
sa(dp119
g6
VI kept changing my mind all week on which bible I wanted to use, and then I finally settled on the George Washington Bible but we ran into a problem with the New York Freemasons, which we don't have time to get into.
p120
sg8
VBARTLET
p121
sg10
g11
sa(dp122
g6
VThe Freemasons?
p123
sg8
VJOSH
p124
sg10
g11
sa(dp125
g6
VYeah. Charlie's out hunting one down, but he's not back yet.
p126
sg8
VBARTLET
p127
sg10
g11
sa(dp128
g6
VYou know, there's nothing that says you have to be sworn in on a bible.
p129
sg8
VJOSH
p130
sg10
g11
sa(dp131
g6
VIs that true?
p132
sg8
VBARTLET
p133
sg10
g11
sa(dp134
g6
VYou can be sworn in on a Sports Illustrated swimsuit Issue.
p135
sg8
VJOSH
p136
sg10
g11
sa(dp137
g6
VYou think that's a good idea?
p138
sg8
VBARTLET
p139
sg10
g11
sa(dp140
g6
VNo.
p141
sg8
VJOSH
p142
sg10
g11
sa(dp143
g6
VYou sure?
p144
sg8
VBARTLET
p145
sg10
g11
sa(dp146
g6
VI'll find Charlie.
p147
sg8
VJOSH
p148
sg10
g76
sa(dp149
g6
VThanks.
p150
sg8
VBARTLET
p151
sg10
g11
sa(dp152
g6
VWe're right next to you, sir. Knock 'em all down.
p153
sg8
VJOSH
p154
sg10
g11
sa(dp155
g6
VThank you.
p156
sg8
VBARTLET
p157
sg10
g76
sa(dp158
g6
VNice suit.
p159
sg8
VLEO
p160
sg10
g11
sa(dp161
g6
VHey, Leo, can you tell me anything about what happened to Jack Reese?
p162
sg8
VJOSH
p163
sg10
g11
sa(dp164
g6
VThe President asked him to get a Forced Depletion Report under the radar.
p165
sg8
VLEO
p166
sg10
g11
sa(dp167
g6
VOn Khundu?
p168
sg8
VJOSH
p169
sg10
g11
sa(dp170
g6
VYeah.
p171
sg8
VLEO
p172
sg10
g11
sa(dp173
g6
VAnd someone found out.
p174
sg8
VJOSH
p175
sg10
g11
sa(dp176
g6
VHutchinson. It was my fault. Which doesn't excuse...
p177
sg8
VLEO
p178
sg10
g11
sa(dp179
g6
VI don't excuse it.
p180
sg8
VJOSH
p181
sg10
g11
sa(dp182
g6
VI don't know how she could do that, I really don't. I mean I don't want to talk about it now, but do you suppose her timing could have been any worse?
p183
sg8
VLEO
p184
sg10
g11
sa(dp185
g6
VI told her all that in no uncertain terms.
p186
sg8
VJOSH
p187
sg10
g11
sa(dp188
g6
VI'll be telling it to her, too.
p189
sg8
VLEO
p190
sg10
g11
sa(dp191
g6
VShe knows.
p192
sg8
VJOSH
p193
sg10
g11
sa(dp194
g6
VGood.
p195
sg8
VLEO
p196
sg10
g11
sa(dp197
g6
VShe's not here. I can't find her. I don't think she's coming. I'll find out where Charlie is.
p198
sg8
VJOSH
p199
sg10
g11
sa(dp200
g6
VYes, sir.
p201
sg8
VLEO
p202
sg10
g76
sa(dp203
g6
VI know you've been under ground all night but, uh... there's a rumor that the President's contemplating a new doctrine for the use of force.
p204
sg8
VBECKWITH
p205
sg10
g11
sa(dp206
g6
VThe President's nothing if not contemplative, Senator. The man makes the Prince of Denmark seem reactionary.
p207
sg8
VLEO
p208
sg10
g11
sa(dp209
g6
VNo, I mean that he's going to talk about it right now.
p210
sg8
VBECKWITH
p211
sg10
g11
sa(dp212
g6
VHe's the Commander-in-Chief. He's going to reserve the right to, you know, command.
p213
sg8
VLEO
p214
sg10
g11
sa(dp215
g6
VMr. Leader.
p216
sg8
VLEO
p217
sg10
g11
sa(dp218
g6
VFor a refreshing change of pace.
p219
sg8
VLEO
p220
sg10
g11
sa(dp221
g6
VThen you're all set. There's cheese over there.
p222
sg8
VLEO
p223
sg10
g11
sa(dp224
g6
VHello.
p225
sg8
VLEO
p226
sg10
g11
sa(dp227
g6
VHi.
p228
sg8
VBARTLET
p229
sg10
g11
sa(dp230
g6
VYou know, I saw the dress that Abbey's wearing tonight.
p231
sg8
VLEO
p232
sg10
g11
sa(dp233
g6
VYeah, I may need to get a room.
p234
sg8
VBARTLET
p235
sg10
g11
sa(dp236
g6
VDo you know it's leaked?
p237
sg8
VLEO
p238
sg10
g11
sa(dp239
g6
VNo kidding. In the last two minutes, three people have reminded me what Jefferson said in his Inaugural.
p240
sg8
VBARTLET
p241
sg10
g11
sa(dp242
g6
V"Peace, commerce, honest frienship with all nations and entangling alliances with none."
p243
sg8
VLEO
p244
sg10
g11
sa(dp245
g6
VThe problem is that when he said it, your best chance of getting entangled with an ally was by rowboat.
p246
sg8
VBARTLET
p247
sg10
g11
sa(dp248
g6
VYeah.
p249
sg8
VLEO
p250
sg10
g11
sa(dp251
g6
VCharlie's here.
p252
sg8
VBARTLET
p253
sg10
g11
sa(dp254
g6
VSir.
p255
sg8
VCHARLIE
p256
sg10
g11
sa(dp257
g6
VThank you.
p258
sg8
VBARTLET
p259
sg10
g76
sa(dp260
g6
VYes, sir.
p261
sg8
VCHARLIE
p262
sg10
g76
sa(dp263
g6
VDonnie's Motel?
p264
sg8
VBARTLET
p265
sg10
g11
sa(dp266
g6
VYes, sir.
p267
sg8
VCHARLIE
p268
sg10
g76
sa(dp269
g6
VThey didn't have one in the House Library?
p270
sg8
VBARTLET
p271
sg10
g11
sa(dp272
g6
VThis is the one from the House Library.
p273
sg8
VCHARLIE
p274
sg10
g11
sa(dp275
g6
VOkay.
p276
sg8
VBARTLET
p277
sg10
g11
sa(dp278
g6
VMr. Chief Justice.
p279
sg8
VBARTLET
p280
sg10
g11
sa(dp281
g6
VThat's when the Chief Justice will ask you to raise your right hand and place your left hand on the Bible.
p282
sg8
VC.J.
p283
sg10
g11
sa(dp284
g6
VWhat do I do then?
p285
sg8
VBARTLET
p286
sg10
g11
sa(dp287
g6
VYou raise your right hand and put your left hand on the Bible.
p288
sg8
VC.J.
p289
sg10
g11
sa(dp290
g6
VAnd will there be someone who'll tell me when it's time to do that?
p291
sg8
VBARTLET
p292
sg10
g11
sa(dp293
g6
VYou mock me?
p294
sg8
VC.J.
p295
sg10
g11
sa(dp296
g6
VI do. May I continue?
p297
sg8
VBARTLET
p298
sg10
g76
sa(dp299
g6
VYes, sir.
p300
sg8
VC.J.
p301
sg10
g76
sa(dp302
g6
V[to prompter operator] Can we pull foreign policy up on the prompter?
p303
sg8
VBARTLET
p304
sg10
g11
sa(dp305
g6
V144 on the prompter, please. It's going to take a second.
p306
sg8
VTOBY
p307
sg10
g11
sa(dp308
g6
V[to Toby] What's going on?
p309
sg8
VBARTLET
p310
sg10
g11
sa(dp311
g6
VThe Chief Justice-- wrote a dissenting opinion in Sea Northern v. Arizona, saying that an association between asbestos and a higher risk of cancer in later life was insufficient to merit relief.
p312
sg8
VTOBY
p313
sg10
g11
sa(dp314
g6
VSo what?
p315
sg8
VBARTLET
p316
sg10
g11
sa(dp317
g6
VHe... [chuckles] I don't know how to say this. He wrote it in meter.
p318
sg8
VTOBY
p319
sg10
g11
sa(dp320
g6
VA meter?
p321
sg8
VBARTLET
p322
sg10
g11
sa(dp323
g6
VHe wrote a dissenting opinion in what I am almost certain is trochiac tetrometer. Will?
p324
sg8
VTOBY
p325
sg10
g11
sa(dp326
g6
VIt is.
p327
sg8
VWILL
p328
sg10
g72
sa(dp329
g6
VWhat are you talking about?
p330
sg8
VBARTLET
p331
sg10
g11
sa(dp332
g6
VHe starts in the fourth graph.
p333
sg8
VTOBY
p334
sg10
g11
sa(dp335
g6
V"Fear of cancer from asbestos, fuzzy science manifestos."
p336
sg8
VBARTLET
p337
sg10
g11
sa(dp338
g6
VA guy just faxed this to Will.
p339
sg8
VTOBY
p340
sg10
g72
sa(dp341
g6
VWhich one's Will?
p342
sg8
VBARTLET
p343
sg10
g11
sa(dp344
g6
VHe is.
p345
sg8
VTOBY
p346
sg10
g72
sa(dp347
g6
VIt's a loud syllable followed by a soft syllable, which is a trochaic foot, then there's four per comma, which is tetrameter.
p348
sg8
VTOBY
p349
sg10
g11
sa(dp350
g6
VYou think he's trying to tell us something through code?
p351
sg8
VC.J.
p352
sg10
g11
sa(dp353
g6
V144's on the prompter, sir.
p354
sg8
VTOBY
p355
sg10
g11
sa(dp356
g6
V"America cannot be the world's policeman. America cannot enforce its own values, its own standards across the world. Yet when it's in our clear an vital interests..." We're being candid at least.
p357
sg8
VBARTLET
p358
sg10
g11
sa(dp359
g6
VThis is State Department language.
p360
sg8
VTOBY
p361
sg10
g11
sa(dp362
g6
VNo kidding. Look, I understand I present a uniform gap, but I want to mean what I say.
p363
sg8
VBARTLET
p364
sg10
g11
sa(dp365
g6
VWill, you're going to meet with my counterpart, the State Department Communications Director. He likes to have input into foreign policy language.
p366
sg8
VTOBY
p367
sg10
g11
sa(dp368
g6
VIsn't he going to be insulted that he's meeting with someoone he's never heard of, who isn't a White House staffer?
p369
sg8
VWILL
p370
sg10
g11
sa(dp371
g6
VI would really think so.
p372
sg8
VTOBY
p373
sg10
g11
sa(dp374
g6
VThat's all. Thank you.
p375
sg8
VLEO
p376
sg10
g11
sa(dp377
g6
VThe Chief Justice wrote a poem.
p378
sg8
VBARTLET
p379
sg10
g11
sa(dp380
g6
VHe's trying to get the Court to adopt powdered wigs.
p381
sg8
VLEO
p382
sg10
g11
sa(dp383
g6
VWhat do you mean?
p384
sg8
VBARTLET
p385
sg10
g11
sa(dp386
g6
VExactly what I said.
p387
sg8
VLEO
p388
sg10
g11
sa(dp389
g6
VPowdered wigs?
p390
sg8
VBARTLET
p391
sg10
g11
sa(dp392
g6
VLike the British magistrates. I'm telling you, I think there might be a problem.
p393
sg8
VLEO
p394
sg10
g11
sa(dp395
g6
VYou think he stayed to long at the fair?
p396
sg8
VBARTLET
p397
sg10
g11
sa(dp398
g6
VHe's not a young man.
p399
sg8
VLEO
p400
sg10
g11
sa(dp401
g6
VNeither am I.
p402
sg8
VBARTLET
p403
sg10
g11
sa(dp404
g6
VThis is what I'm talking about.
p405
sg8
VLEO
p406
sg10
g11
sa(dp407
g6
VThis foreign policy language is ridiculous.
p408
sg8
VBARTLET
p409
sg10
g11
sa(dp410
g6
VIt'll get fixed.
p411
sg8
VLEO
p412
sg10
g11
sa(dp413
g6
VWhat's going on in Khundu?
p414
sg8
VBARTLET
p415
sg10
g11
sa(dp416
g6
VYeah.
p417
sg8
VLEO
p418
sg10
g11
sa(dp419
g6
VI got a short security cable this morning about civil unrest in the Republic of Equatorial Khundu, and I had to reach for an atlas.
p420
sg8
VBARTLET
p421
sg10
g11
sa(dp422
g6
VNear the Ivory Coast.
p423
sg8
VLEO
p424
sg10
g11
sa(dp425
g6
VI know that now.
p426
sg8
VBARTLET
p427
sg10
g11
sa(dp428
g6
VThe government forces run by the Arkutu have apparently killed as many as 200 Induye on the streets of Bitanga, which is the capitol.
p429
sg8
VLEO
p430
sg10
g11
sa(dp431
g6
VTwo warring tribes?
p432
sg8
VBARTLET
p433
sg10
g11
sa(dp434
g6
VWell, no, one tribes warring, and the other one's getting killed. But the point is we got about 500 American missionaries.
p435
sg8
VLEO
p436
sg10
g11
sa(dp437
g6
VThey're being evacuated?
p438
sg8
VBARTLET
p439
sg10
g72
sa(dp440
g6
VYes, sir.
p441
sg8
VLEO
p442
sg10
g76
sa(dp443
g6
VOkay. Thank you.
p444
sg8
VBARTLET
p445
sg10
g76
sa(dp446
g6
VMr. President, I'm sorry to bother you about this.
p447
sg8
VCHARLIE
p448
sg10
g11
sa(dp449
g6
VYeah?
p450
sg8
VBARTLET
p451
sg10
g11
sa(dp452
g6
VMr. Hollowman says if you want to use the Goerge Washington Bible, they need some time to get it here.
p453
sg8
VCHARLIE
p454
sg10
g11
sa(dp455
g6
VFrom where?
p456
sg8
VBARTLET
p457
sg10
g11
sa(dp458
g6
VThe Freemason's have the Washington Bible.
p459
sg8
VCHARLIE
p460
sg10
g11
sa(dp461
g6
VThey do?
p462
sg8
VBARTLET
p463
sg10
g11
sa(dp464
g6
VYes, sir.
p465
sg8
VCHARLIE
p466
sg10
g76
sa(dp467
g6
VAnd they need several days notice?
p468
sg8
VBARTLET
p469
sg10
g11
sa(dp470
g6
VYes, sir.
p471
sg8
VCHARLIE
p472
sg10
g76
sa(dp473
g6
VWhy?
p474
sg8
VBARTLET
p475
sg10
g11
sa(dp476
g6
VI don't know, sir.
p477
sg8
VCHARLIE
p478
sg10
g11
sa(dp479
g6
VAre they not sure where it is?
p480
sg8
VBARTLET
p481
sg10
g72
sa(dp482
g6
VShould I tell Mr. Hollowman you're using it?
p483
sg8
VCHARLIE
p484
sg10
g11
sa(dp485
g6
VI'm going to be using the Bartlet Bible. That's at the New Hampshire Historical Society.
p486
sg8
VBARTLET
p487
sg10
g11
sa(dp488
g6
VYes, sir.
p489
sg8
VCHARLIE
p490
sg10
g76
sa(dp491
g6
VYes.
p492
sg8
VBARTLET
p493
sg10
g76
sa(dp494
g6
VSir, just to be clear... You're hoping that there can be a broader definition of "vital interests."
p495
sg8
VWILL
p496
sg10
g11
sa(dp497
g6
VHoping beyond hope.
p498
sg8
VBARTLET
p499
sg10
g11
sa(dp500
g6
VThank you, sir.
p501
sg8
VWILL
p502
sg10
g76
sa(dp503
g6
VThere's a... partnership, sir, that can develop between someone and his speechwriter. It happens over time. You get to know just where he likes his commas and why he says self-government instead of governement. Why he doesn't like the word "implement" but does like the word "obfuscate". Like jazz musicians...
p504
sg8
VWILL
p505
sg10
g11
sa(dp506
g6
VI can't remember your name, but are you asking me out on a date?
p507
sg8
VBARTLET
p508
sg10
g11
sa(dp509
g6
VNo, sir. It happens over time.
p510
sg8
VWILL
p511
sg10
g11
sa(dp512
g6
VOkay.
p513
sg8
VBARTLET
p514
sg10
g11
sa(dp515
g6
VThank you, Mr. President.
p516
sg8
VWILL
p517
sg10
g76
sa(dp518
g6
VCharlie, do you happen to know if the New Hampshire State House has the Governor Bartlet's public statements?
p519
sg8
VWILL
p520
sg10
g11
sa(dp521
g6
VThey do.
p522
sg8
VCHARLIE
p523
sg10
g11
sa(dp524
g6
VAny chance you could help me get them?
p525
sg8
VWILL
p526
sg10
g11
sa(dp527
g6
VYeah, it's not a problem.
p528
sg8
VCHARLIE
p529
sg10
g11
sa(dp530
g6
VAnd copies of his floor speeches from the House?
p531
sg8
VWILL
p532
sg10
g11
sa(dp533
g6
VI can also send a couple of people to the Library of Congress...
p534
sg8
VCHARLIE
p535
sg10
g11
sa(dp536
g6
VEverything he's ever said out loud in his life?
p537
sg8
VWILL
p538
sg10
g11
sa(dp539
g6
VYeah.
p540
sg8
VCHARLIE
p541
sg10
g11
sa(dp542
g6
VThank you.
p543
sg8
VWILL
p544
sg10
g76
sa(dp545
g6
VYeah.
p546
sg8
VJOSH
p547
sg10
g11
sa(dp548
g6
VTickets came.
p549
sg8
VDONNA
p550
sg10
g11
sa(dp551
g6
VFor?
p552
sg8
VJOSH
p553
sg10
g11
sa(dp554
g6
VThe balls.
p555
sg8
VDONNA
p556
sg10
g11
sa(dp557
g6
VCould you hang onto mine for me till Sunday?
p558
sg8
VJOSH
p559
sg10
g11
sa(dp560
g6
VYeah.
p561
sg8
VDONNA
p562
sg10
g11
sa(dp563
g6
VThanks.
p564
sg8
VJOSH
p565
sg10
g11
sa(dp566
g6
VYou know what Jack will be wearing? A saber.
p567
sg8
VDONNA
p568
sg10
g11
sa(dp569
g6
VGod, Donna, please tell me that's not going to be the only thing he's wearing.
p570
sg8
VJOSH
p571
sg10
g11
sa(dp572
g6
VNo, he'll be wearing his dress blues. Warfare pin, Submarine Officer pin, two commendation medals, meritorious unit, Purple Heart, Bronze Cross and a saber.
p573
sg8
VDONNA
p574
sg10
g11
sa(dp575
g6
VI'll be wearing a tuxedo from Gary's. Who's been on the phone?
p576
sg8
VJOSH
p577
sg10
g11
sa(dp578
g6
VConfused people from the State Department.
p579
sg8
VDONNA
p580
sg10
g11
sa(dp581
g6
VThey decided to change the foreign policy language 20 minutes ago. How do they know already?
p582
sg8
VJOSH
p583
sg10
g11
sa(dp584
g6
VThey wanted to know why their Public Affairs Director was asked to meet with Will Bailey.
p585
sg8
VDONNA
p586
sg10
g11
sa(dp587
g6
VThe President's asked Toby and Will to look at the language.
p588
sg8
VJOSH
p589
sg10
g11
sa(dp590
g6
VOkay.
p591
sg8
VDONNA
p592
sg10
g11
sa(dp593
g6
VKeep the President out of it. I've asked Toby and Will to look at the language.
p594
sg8
VJOSH
p595
sg10
g11
sa(dp596
g6
VAll right.
p597
sg8
VDONNA
p598
sg10
g11
sa(dp599
g6
VThanks.
p600
sg8
VJOSH
p601
sg10
g11
sa(dp602
g6
V13 buttons on the trousers.
p603
sg8
VDONNA
p604
sg10
g11
sa(dp605
g6
V[with an overly sweet smile] I don't want to know how you know that.
p606
sg8
VJOSH
p607
sg10
g11
sa(dp608
g6
VAmen.
p609
sg8
VALL
p610
sg10
g11
sa(dp611
g6
VWell, I don't control the armed forces, Zake.
p612
sg8
VPATRICK
p613
sg10
g11
sa(dp614
g6
VNo, he was talking to me, your Eminence. [to Zake] Your Excellency, I got a very sketchy intelligence report on the violence in the capitol about an hour ago.
p615
sg8
VBARTLET
p616
sg10
g11
sa(dp617
g6
VThe violence isn't limited to Bitanga, sir. It's spread to the countryside.
p618
sg8
VZAKE
p619
sg10
g11
sa(dp620
g6
VI didn't know that.
p621
sg8
VBARTLET
p622
sg10
g11
sa(dp623
g6
VMay I ask you something, sir, with all due respect, please?
p624
sg8
VZAKE
p625
sg10
g11
sa(dp626
g6
VYes.
p627
sg8
VBARTLET
p628
sg10
g76
sa(dp629
g6
VIf mass genocide had broken out in a small European country, would your intelligence briefing this morning have been quite so sketchy?
p630
sg8
VZAKE
p631
sg10
g11
sa(dp632
g6
VNo.
p633
sg8
VBARTLET
p634
sg10
g11
sa(dp635
g6
VI join my colleagues in their prayers for the safe evacuation of the Americans.
p636
sg8
VZAKE
p637
sg10
g11
sa(dp638
g6
VOkay, Will, you ready? This is Assistant Secretary of State for Public Affairs, Bryce Lilly.
p639
sg8
VBONNIE
p640
sg10
g11
sa(dp641
g6
VThank you.
p642
sg8
VWILL
p643
sg10
g76
sa(dp644
g6
VMr. Secretary.
p645
sg8
VWILL
p646
sg10
g11
sa(dp647
g6
VWill Bailey, yes, sir.
p648
sg8
VWILL
p649
sg10
g11
sa(dp650
g6
VYou... are young.
p651
sg8
VBRYCE
p652
sg10
g11
sa(dp653
g6
VUh, thank you. Have a seat please.
p654
sg8
VWILL
p655
sg10
g76
sa(dp656
g6
VThank you.
p657
sg8
VBRYCE
p658
sg10
g76
sa(dp659
g6
VHow long have you been in Public Affairs at State?
p660
sg8
VWILL
p661
sg10
g11
sa(dp662
g6
VUnder the last three Presidents.
p663
sg8
VBRYCE
p664
sg10
g11
sa(dp665
g6
VYou worked for both parties.
p666
sg8
VWILL
p667
sg10
g11
sa(dp668
g6
VYou know the difference? Republicans want a huge military but they don't want to send it anywhere. The Democrats wants a small military and they want to send it everywhere.
p669
sg8
VBRYCE
p670
sg10
g11
sa(dp671
g6
VYes, I've heard that.
p672
sg8
VWILL
p673
sg10
g11
sa(dp674
g6
VActually, when I heard the name Bailey, I got a chill in my occipital, a Pavlovian reaction from when I used to have run-ins with a General Tom Bailey at the home store in Brussels. Any relation?
p675
sg8
VBRYCE
p676
sg10
g11
sa(dp677
g6
VA little bit. He's my father.
p678
sg8
VWILL
p679
sg10
g11
sa(dp680
g6
VReally?
p681
sg8
VBRYCE
p682
sg10
g11
sa(dp683
g6
VYes, sir.
p684
sg8
VWILL
p685
sg10
g76
sa(dp686
g6
VHow long have you been with the NSC?
p687
sg8
VBRYCE
p688
sg10
g11
sa(dp689
g6
VI'm not.
p690
sg8
VWILL
p691
sg10
g11
sa(dp692
g6
VHow long have you been White House Senior Staff?
p693
sg8
VBRYCE
p694
sg10
g11
sa(dp695
g6
VOh, no, I'm not that either. I'm on a three-week contract with the DNC to work on the Inauguration speech.
p696
sg8
VWILL
p697
sg10
g11
sa(dp698
g6
VSon, I'm an Assistant Secretary.
p699
sg8
VBRYCE
p700
sg10
g11
sa(dp701
g6
VFor Public Affairs. Which makes you just the person I need to speak to. The President is troubled by some of the language...
p702
sg8
VWILL
p703
sg10
g11
sa(dp704
g6
VThen this should been taken up between myself and Toby Zeigler.
p705
sg8
VBRYCE
p706
sg10
g11
sa(dp707
g6
VI hope you don't mind. Toby's asked me to speak to you.
p708
sg8
VWILL
p709
sg10
g11
sa(dp710
g6
VWhat are the concerns?
p711
sg8
VBRYCE
p712
sg10
g11
sa(dp713
g6
V"America stands alone as the indispensable nation-- a force for peace, freedom and prosperity on all corners of the globe."
p714
sg8
VWILL
p715
sg10
g11
sa(dp716
g6
VBut that's almost exactly what we wrote.
p717
sg8
VBRYCE
p718
sg10
g11
sa(dp719
g6
VNo, that is exactly what you wrote. I'm quoting the State Department text.
p720
sg8
VWILL
p721
sg10
g11
sa(dp722
g6
VYou memorized it? It was 1,200 words.
p723
sg8
VBRYCE
p724
sg10
g11
sa(dp725
g6
VI'm pretty sure it was 1,123.
p726
sg8
VWILL
p727
sg10
g72
sa(dp728
g6
VWhat's his concern?
p729
sg8
VBRYCE
p730
sg10
g11
sa(dp731
g6
VWell, I'm suppose to begin with-- and this neither here nor there-- but globes don't have corners.
p732
sg8
VWILL
p733
sg10
g11
sa(dp734
g6
VIf this is about style and not substance...
p735
sg8
VBRYCE
p736
sg10
g11
sa(dp737
g6
VNo, it's about substance.
p738
sg8
VWILL
p739
sg10
g11
sa(dp740
g6
VWe've been over this long before you got here, and I imagine we'll keep on going over it long after your three weeks are done. This White House has to be careful about the use of force. It's a hostile Congress.
p741
sg8
VBRYCE
p742
sg10
g11
sa(dp743
g6
VWell, personally, I'd have no problem using force on Congress, but that's not my call.
p744
sg8
VWILL
p745
sg10
g11
sa(dp746
g6
VThis President can't write himself a blank check when it comes to foreign policy. Especially this President.
p747
sg8
VBRYCE
p748
sg10
g11
sa(dp749
g6
VEspecially this President.
p750
sg8
VWILL
p751
sg10
g72
sa(dp752
g6
VThat's right.
p753
sg8
VBRYCE
p754
sg10
g11
sa(dp755
g6
VBecause of the Clause in Article One that says not every President gets the full powers of Commander-in-Chief?
p756
sg8
VWILL
p757
sg10
g11
sa(dp758
g6
VAre you rewriting the section?
p759
sg8
VBRYCE
p760
sg10
g11
sa(dp761
g6
VYes, sir.
p762
sg8
VWILL
p763
sg10
g76
sa(dp764
g6
VDramatically?
p765
sg8
VBRYCE
p766
sg10
g11
sa(dp767
g6
VWell, I like to think I have a certain flair.
p768
sg8
VWILL
p769
sg10
g72
sa(dp770
g6
VI mean significantly.
p771
sg8
VBRYCE
p772
sg10
g11
sa(dp773
g6
VThat's what the President is looking for, sir.
p774
sg8
VWILL
p775
sg10
g11
sa(dp776
g6
VIn consultation with State?
p777
sg8
VBRYCE
p778
sg10
g11
sa(dp779
g6
VThat's entirely up to Toby.
p780
sg8
VWILL
p781
sg10
g11
sa(dp782
g6
VThank you, sir. [stands] Apparently, I'm not done with the Baileys.
p783
sg8
VBRYCE
p784
sg10
g11
sa(dp785
g6
VApparently not... you effete...
p786
sg8
VWILL
p787
sg10
g76
sa(dp788
g6
VWhat are you doing?
p789
sg8
VWILL
p790
sg10
g11
sa(dp791
g6
VI throw a rubber ball against the window, that means you come to me.
p792
sg8
VTOBY
p793
sg10
g11
sa(dp794
g6
VReally?
p795
sg8
VWILL
p796
sg10
g11
sa(dp797
g6
VAs my frustration level grows, so does the velocity of the ball against the window.
p798
sg8
VTOBY
p799
sg10
g11
sa(dp800
g6
VI just told Bryce Lilly.
p801
sg8
VWILL
p802
sg10
g11
sa(dp803
g6
VGood.
p804
sg8
VTOBY
p805
sg10
g11
sa(dp806
g6
V[pointing to boxes piled on Toby's desk] What's in there?
p807
sg8
VWILL
p808
sg10
g11
sa(dp809
g6
VDid you ask for transcripts of public remarks from Manchester?
p810
sg8
VTOBY
p811
sg10
g11
sa(dp812
g6
VYes.
p813
sg8
VWILL
p814
sg10
g76
sa(dp815
g6
VThat's what they are.
p816
sg8
VTOBY
p817
sg10
g11
sa(dp818
g6
VOkay.
p819
sg8
VWILL
p820
sg10
g11
sa(dp821
g6
VAnd the 14 other cartoons outside.
p822
sg8
VTOBY
p823
sg10
g11
sa(dp824
g6
VOkay.
p825
sg8
VWILL
p826
sg10
g11
sa(dp827
g6
VSo we're dumping State's language?
p828
sg8
VTOBY
p829
sg10
g11
sa(dp830
g6
VYes.
p831
sg8
VWILL
p832
sg10
g76
sa(dp833
g6
VWhich means we'll need some of our own.
p834
sg8
VTOBY
p835
sg10
g11
sa(dp836
g6
VYes.
p837
sg8
VWILL
p838
sg10
g76
sa(dp839
g6
VI'm talking to myself right now, so there's no reason for you to be answering.
p840
sg8
VTOBY
p841
sg10
g11
sa(dp842
g6
VIs there a reason for me to be standing here?
p843
sg8
VWILL
p844
sg10
g11
sa(dp845
g6
VNo.
p846
sg8
VTOBY
p847
sg10
g11
sa(dp848
g6
VSir?
p849
sg8
VCHARLIE
p850
sg10
g11
sa(dp851
g6
VYeah?
p852
sg8
VBARTLET
p853
sg10
g11
sa(dp854
g6
VMr. Cravenly, the Director of Special Collections at the New Hampshire Historical Society, just phoned about the Bartlet Bible.
p855
sg8
VCHARLIE
p856
sg10
g11
sa(dp857
g6
VAnd?
p858
sg8
VBARTLET
p859
sg10
g11
sa(dp860
g6
VYou can't use it.
p861
sg8
VCHARLIE
p862
sg10
g11
sa(dp863
g6
VI can't?
p864
sg8
VBARTLET
p865
sg10
g11
sa(dp866
g6
VIt needs to be in a climate-controlled vault or it warps.
p867
sg8
VCHARLIE
p868
sg10
g11
sa(dp869
g6
VJust as the disciples intended.
p870
sg8
VBARTLET
p871
sg10
g11
sa(dp872
g6
VHe suggested the Jefferson Bible.
p873
sg8
VCHARLIE
p874
sg10
g11
sa(dp875
g6
VThe Jefferson bible doesn't warp?
p876
sg8
VBARTLET
p877
sg10
g11
sa(dp878
g6
VI think it does, and being from new Hampshire, he just didn't care.
p879
sg8
VCHARLIE
p880
sg10
g11
sa(dp881
g6
VProbably. Speaking of New Hampshire, don't I own the Bartlet Bible?
p882
sg8
VBARTLET
p883
sg10
g11
sa(dp884
g6
VIt was sold at auction.
p885
sg8
VCHARLIE
p886
sg10
g11
sa(dp887
g6
VI know. I bought it.
p888
sg8
VBARTLET
p889
sg10
g11
sa(dp890
g6
VAnd you donated to the New Hampshire Historical Society.
p891
sg8
VCHARLIE
p892
sg10
g11
sa(dp893
g6
VAnd they won't loan it back to me so that I can be inaugurated?
p894
sg8
VBARTLET
p895
sg10
g11
sa(dp896
g6
VMr. Cravenly felt bad about that.
p897
sg8
VCHARLIE
p898
sg10
g11
sa(dp899
g6
VYeah. His name is really Mr. Cravenly? You're not making that up?
p900
sg8
VBARTLET
p901
sg10
g11
sa(dp902
g6
VNo, sir. Bertram Cravenly.
p903
sg8
VCHARLIE
p904
sg10
g11
sa(dp905
g6
VOkay, would you tell him that I'd like very much to use my family's Bible, which my family has bought at least twice now.
p906
sg8
VBARTLET
p907
sg10
g11
sa(dp908
g6
VYes, sir.
p909
sg8
VCHARLIE
p910
sg10
g76
sa(dp911
g6
VYou know, a couple hundred people got killed today in Khundu.
p912
sg8
VBARTLET
p913
sg10
g11
sa(dp914
g6
VYeah, I saw, Mr. President.
p915
sg8
VCHARLIE
p916
sg10
g11
sa(dp917
g6
VThe Arkutu control the government and they're killing...
p918
sg8
VBARTLET
p919
sg10
g11
sa(dp920
g6
VYeah, I saw. The Americans got out?
p921
sg8
VCHARLIE
p922
sg10
g11
sa(dp923
g6
VI'm sorry?
p924
sg8
VBARTLET
p925
sg10
g11
sa(dp926
g6
VWe got the Americans out?
p927
sg8
VCHARLIE
p928
sg10
g11
sa(dp929
g6
VYeah, mm-hmm.
p930
sg8
VBARTLET
p931
sg10
g11
sa(dp932
g6
VAnything else, sir?
p933
sg8
VCHARLIE
p934
sg10
g11
sa(dp935
g6
VNo.
p936
sg8
VBARTLET
p937
sg10
g11
sa(dp938
g6
VThank you, sir.
p939
sg8
VCHARLIE
p940
sg10
g76
sa(dp941
g6
VYeah. Ask Bob Slattery to come over here.
p942
sg8
VBARTLET
p943
sg10
g11
sa(dp944
g6
VYes, sir.
p945
sg8
VCHARLIE
p946
sg10
g76
sa(dp947
g6
VAt that time, the Chief Justice will ask the President to raise his right hand and place his left hand on the Bible.
p948
sg8
VC.J.
p949
sg10
g11
sa(dp950
g6
VYeah?
p951
sg8
VC.J.
p952
sg10
g11
sa(dp953
g6
VOkay. Katie?
p954
sg8
VC.J.
p955
sg10
g11
sa(dp956
g6
VWell, I guess we'll find out six days from now, but thank you to the Smothers Brothers.
p957
sg8
VC.J.
p958
sg10
g11
sa(dp959
g6
VGood night.
p960
sg8
VC.J.
p961
sg10
g11
sa(dp962
g6
VThank you, C.J.
p963
sg8
VREPORTERS
p964
sg10
g76
sa(dp965
g6
VC.J., Danny wanted to see you for a second.
p966
sg8
VCAROL
p967
sg10
g11
sa(dp968
g6
VNo way.
p969
sg8
VC.J.
p970
sg10
g76
sa(dp971
g6
VWell...
p972
sg8
VCAROL
p973
sg10
g11
sa(dp974
g6
VStop trying to get us together, okay? If I wanted Danny, I could have him. And he's still a jackass from the foreign Ops vote and many other things, so tell him I'm getting my hair done.
p975
sg8
VC.J.
p976
sg10
g11
sa(dp977
g6
VYour hair looks great.
p978
sg8
VDANNY
p979
sg10
g11
sa(dp980
g6
VThere was no way you could tell me he was right behind me? You couldn't fit that in?
p981
sg8
VC.J.
p982
sg10
g11
sa(dp983
g6
VSorry.
p984
sg8
VCAROL
p985
sg10
g11
sa(dp986
g6
V[to Danny] In here.
p987
sg8
VC.J.
p988
sg10
g11
sa(dp989
g6
VYes?
p990
sg8
VC.J.
p991
sg10
g76
sa(dp992
g6
VMy signal agent's missing, the cricket player.
p993
sg8
VDANNY
p994
sg10
g11
sa(dp995
g6
VHow...
p996
sg8
VC.J.
p997
sg10
g11
sa(dp998
g6
VI tried his house. The phone's disconneted. The airstrip won't give me information, neither will the landlord, except he just signed a new two-year lease two weeks ago.
p999
sg8
VDANNY
p1000
sg10
g11
sa(dp1001
g6
VHow do you know?
p1002
sg8
VC.J.
p1003
sg10
g76
sa(dp1004
g6
VBecause I do.
p1005
sg8
VDANNY
p1006
sg10
g11
sa(dp1007
g6
VIf I help you find the cricket player, you'll consider it a favor and not the White House cooperating with your story?
p1008
sg8
VC.J.
p1009
sg10
g11
sa(dp1010
g6
VI would never think the White House is cooperating with me.
p1011
sg8
VDANNY
p1012
sg10
g11
sa(dp1013
g6
VThank you.
p1014
sg8
VC.J.
p1015
sg10
g76
sa(dp1016
g6
VCan I just ask? What is it you'd do exactly to have me?
p1017
sg8
VDANNY
p1018
sg10
g11
sa(dp1019
g6
VIs there anything else?
p1020
sg8
VC.J.
p1021
sg10
g11
sa(dp1022
g6
VNo.
p1023
sg8
VDANNY
p1024
sg10
g11
sa(dp1025
g6
VGood.
p1026
sg8
VC.J.
p1027
sg10
g11
sa(dp1028
g6
VSir? Mr. Slattery.
p1029
sg8
VCHARLIE
p1030
sg10
g11
sa(dp1031
g6
VYeah.
p1032
sg8
VBARTLET
p1033
sg10
g11
sa(dp1034
g6
VBobby, what's going on?
p1035
sg8
VBARTLET
p1036
sg10
g11
sa(dp1037
g6
VIntelligence is thin outside Bitanga. In fact, the Archbishop's network of clerics is probably as good as it gets.
p1038
sg8
VBOB
p1039
sg10
g11
sa(dp1040
g6
VThe Catholic Church has better intelligence than we do?
p1041
sg8
VBARTLET
p1042
sg10
g11
sa(dp1043
g6
VIt's a very small embassy, maybe ten people. And no Agency presence.
p1044
sg8
VBOB
p1045
sg10
g11
sa(dp1046
g6
VNone?
p1047
sg8
VBARTLET
p1048
sg10
g11
sa(dp1049
g6
VNo, sir.
p1050
sg8
VBOB
p1051
sg10
g11
sa(dp1052
g6
VHow many are dead right now?
p1053
sg8
VBARTLET
p1054
sg10
g11
sa(dp1055
g6
VWe have no way of knowing.
p1056
sg8
VBOB
p1057
sg10
g11
sa(dp1058
g6
VEstimate.
p1059
sg8
VBARTLET
p1060
sg10
g11
sa(dp1061
g6
VCould be as many as 5,000.
p1062
sg8
VBOB
p1063
sg10
g11
sa(dp1064
g6
VBobby, I don't want to make noise but I want to see a forced depletion report. I want to know how many we'd lose and I want to do it without going three rounds in the newspaper with Miles Hutchison. Who do we have at the Pentagon who could do this for us?
p1065
sg8
VBARTLET
p1066
sg10
g11
sa(dp1067
g6
VJack Reese, Nancy's aid.
p1068
sg8
VBOB
p1069
sg10
g11
sa(dp1070
g6
VYou trust him?
p1071
sg8
VBARTLET
p1072
sg10
g11
sa(dp1073
g6
VI do.
p1074
sg8
VBOB
p1075
sg10
g11
sa(dp1076
g6
VTell him I want to see forced depletion on a peacekeeping force in Khundu. And tell him we'll do our best to keep it away from the Secretary's office.
p1077
sg8
VBARTLET
p1078
sg10
g11
sa(dp1079
g6
VHe won't need to hear the second part, sir. You just gave him an order.
p1080
sg8
VBOB
p1081
sg10
g11
sa(dp1082
g6
VThank you.
p1083
sg8
VBARTLET
p1084
sg10
g76
sa(dp1085
g6
VThank you, Mr. President.
p1086
sg8
VBOB
p1087
sg10
g76
sa(dp1088
g6
VFirst things first. We're going to have to learn how to pronounce it. I learned it as "Kuhn-doo." The Republic of Equatorial Khundu.
p1089
sg8
VC.J.
p1090
sg10
g11
sa(dp1091
g6
VMark.
p1092
sg8
VC.J.
p1093
sg10
g11
sa(dp1094
g6
VWe don't know.
p1095
sg8
VC.J.
p1096
sg10
g11
sa(dp1097
g6
VI mean, stating whether a Khundunese is Arkutu or Induye.
p1098
sg8
VMARK
p1099
sg10
g11
sa(dp1100
g6
VWe don't know. Danny?
p1101
sg8
VC.J.
p1102
sg10
g11
sa(dp1103
g6
VArchbishop Kintaka, who was coincidentally in the White House yesterday for a prayer breakfast, said the government's using the radio to direct mobs. Does the White House know anything about that?
p1104
sg8
VDANNY
p1105
sg10
g11
sa(dp1106
g6
VWell, I don't.
p1107
sg8
VC.J.
p1108
sg10
g11
sa(dp1109
g6
VApparently, one of the Bishop's had provided refuge to about 800 Induye in his church. When the radio station in Bitanga heard about it, they directed a mob. They had machetes, they sent them to the church...
p1110
sg8
VDANNY
p1111
sg10
g11
sa(dp1112
g6
VDid they...?
p1113
sg8
VC.J.
p1114
sg10
g72
sa(dp1115
g6
VThey hacked up all 800.
p1116
sg8
VDANNY
p1117
sg10
g11
sa(dp1118
g6
VNo, I didn't know that.
p1119
sg8
VC.J.
p1120
sg10
g11
sa(dp1121
g6
VApparently, every broadcast ends with the word "Krawala."
p1122
sg8
VDANNY
p1123
sg10
g11
sa(dp1124
g6
VIt means "cleanse."
p1125
sg8
VC.J.
p1126
sg10
g11
sa(dp1127
g6
VYeah. So I guess my question is, is the President going to send U.S. troops in to knock this off?
p1128
sg8
VDANNY
p1129
sg10
g11
sa(dp1130
g6
VThe White House is monitering the situation very carefully.
p1131
sg8
VC.J.
p1132
sg10
g11
sa(dp1133
g6
VI can tell.
p1134
sg8
VDANNY
p1135
sg10
g11
sa(dp1136
g6
VKatie.
p1137
sg8
VC.J.
p1138
sg10
g11
sa(dp1139
g6
VState Department estimates yesterday put the dead at anywhere between 3,000 and 7,000. Are there revised estimates today?
p1140
sg8
VKATIE
p1141
sg10
g11
sa(dp1142
g6
V15,000. Sheila?
p1143
sg8
VC.J.
p1144
sg10
g11
sa(dp1145
g6
VYep?
p1146
sg8
VJOSH
p1147
sg10
g11
sa(dp1148
g6
VWhat's up?
p1149
sg8
VDONNA
p1150
sg10
g11
sa(dp1151
g6
VHmm?
p1152
sg8
VJOSH
p1153
sg10
g11
sa(dp1154
g6
VI just said, "What's up?" What are you doing?
p1155
sg8
VDONNA
p1156
sg10
g11
sa(dp1157
g6
VWondering whether the Nuclear regulatory Commission really needs $100,000 for a "morale improvement program." It's got to be a pretty critical lap dance.
p1158
sg8
VJOSH
p1159
sg10
g11
sa(dp1160
g6
VI went down to Jack's office last night and he was using the NSC lock on the door, which he never has before.
p1161
sg8
VDONNA
p1162
sg10
g11
sa(dp1163
g6
VDid you knock?
p1164
sg8
VJOSH
p1165
sg10
g76
sa(dp1166
g6
VYeah.
p1167
sg8
VDONNA
p1168
sg10
g11
sa(dp1169
g6
VAnd?
p1170
sg8
VJOSH
p1171
sg10
g11
sa(dp1172
g6
VHe let me in.
p1173
sg8
VDONNA
p1174
sg10
g11
sa(dp1175
g6
VThat's a good story.
p1176
sg8
VJOSH
p1177
sg10
g11
sa(dp1178
g6
VI wanted to make plans for getting together around midnight, and he said he couldn't 'cause it'll be morning where he needs to talk to some people.
p1179
sg8
VDONNA
p1180
sg10
g11
sa(dp1181
g6
VDonna...
p1182
sg8
VJOSH
p1183
sg10
g11
sa(dp1184
g6
VWhat's halfway around the world?
p1185
sg8
VDONNA
p1186
sg10
g11
sa(dp1187
g6
VMost of the homes and offices of the people who live on this planet.
p1188
sg8
VJOSH
p1189
sg10
g11
sa(dp1190
g6
VHe had a fax from the Commader of the Seventh Fleet about forward units in the North Atlantic and Mediterranean.
p1191
sg8
VDONNA
p1192
sg10
g11
sa(dp1193
g6
VWhat's he doing showing you a fax from the Commander of the Seventh Fleet?
p1194
sg8
VJOSH
p1195
sg10
g11
sa(dp1196
g6
VShowing off for me.
p1197
sg8
VDONNA
p1198
sg10
g11
sa(dp1199
g6
VFantastic.
p1200
sg8
VJOSH
p1201
sg10
g11
sa(dp1202
g6
VHe wasn't showing me a classified signal intercept.
p1203
sg8
VDONNA
p1204
sg10
g11
sa(dp1205
g6
VHow do you know what he was showing you?
p1206
sg8
VJOSH
p1207
sg10
g11
sa(dp1208
g6
VI don't. He does. Is a joint task force being assembled...
p1209
sg8
VDONNA
p1210
sg10
g11
sa(dp1211
g6
VAre you serious with these questions?
p1212
sg8
VJOSH
p1213
sg10
g11
sa(dp1214
g6
VHe's been sealed off for almost 24 hours, and everything strikes me as strange.
p1215
sg8
VDONNA
p1216
sg10
g11
sa(dp1217
g6
VThen let it strike you that way, and please find out what they mean by "morale improvement program" so I can get back to-- you know-- actual people.
p1218
sg8
VJOSH
p1219
sg10
g11
sa(dp1220
g6
VHey, I changed my mind about the Bible.
p1221
sg8
VBARTLET
p1222
sg10
g11
sa(dp1223
g6
VYes, sir.
p1224
sg8
VCHARLIE
p1225
sg10
g76
sa(dp1226
g6
VI don't know. I never... it just seems parochial. I hate saying that.
p1227
sg8
VBARTLET
p1228
sg10
g11
sa(dp1229
g6
VI understand.
p1230
sg8
VCHARLIE
p1231
sg10
g11
sa(dp1232
g6
VThere's a Bible in North Hampton, Masachusetts, that Johnathon Edwards used. Let's get that.
p1233
sg8
VBARTLET
p1234
sg10
g11
sa(dp1235
g6
VYes, sir.
p1236
sg8
VCHARLIE
p1237
sg10
g76
sa(dp1238
g6
VGood morining, Mr. President.
p1239
sg8
VLEO
p1240
sg10
g11
sa(dp1241
g6
V"Grace is but glory begun and glory is but grace perfected." I made my Bible selection.
p1242
sg8
VBARTLET
p1243
sg10
g11
sa(dp1244
g6
VListen to this, please. The Supreme Court is striking down the use of prior offenses as a factor in Stiles v. Rhode Island. The Chief Justice writes a concurring opinion: "Guilty or not guilty, past convictions frustrate the judge who wonders should your fate abate."
p1245
sg8
VLEO
p1246
sg10
g11
sa(dp1247
g6
VIt's awkwardly worded.
p1248
sg8
VBARTLET
p1249
sg10
g11
sa(dp1250
g6
VNo, it's not. it's 22 syllables.
p1251
sg8
VLEO
p1252
sg10
g11
sa(dp1253
g6
VOh, God.
p1254
sg8
VBARTLET
p1255
sg10
g11
sa(dp1256
g6
VTwo, four, six, eight. Two. And it's suppose to sound like this: "Guilty, or not guilty, past convictions frustrate, the judge who wonders should your fate, abate." It's a cinquain.
p1257
sg8
VLEO
p1258
sg10
g11
sa(dp1259
g6
VA what?
p1260
sg8
VBARTLET
p1261
sg10
g11
sa(dp1262
g6
VCinquain.
p1263
sg8
VLEO
p1264
sg10
g11
sa(dp1265
g6
VHow do you know?
p1266
sg8
VBARTLET
p1267
sg10
g76
sa(dp1268
g6
VI know things. And I'm worried about the Chief Justice.
p1269
sg8
VLEO
p1270
sg10
g11
sa(dp1271
g6
VAnd I'm worried about the White House making that suggestion.
p1272
sg8
VBARTLET
p1273
sg10
g11
sa(dp1274
g6
VHe's writing in verse, plus the powdered wigs.
p1275
sg8
VLEO
p1276
sg10
g11
sa(dp1277
g6
VWasn't that a rumor?
p1278
sg8
VBARTLET
p1279
sg10
g11
sa(dp1280
g6
VYes.
p1281
sg8
VLEO
p1282
sg10
g76
sa(dp1283
g6
VAll right, listen. I've asked for a forced depletion report on action in Khundu.
p1284
sg8
VBARTLET
p1285
sg10
g11
sa(dp1286
g6
VWho'd you ask?
p1287
sg8
VLEO
p1288
sg10
g76
sa(dp1289
g6
VSlatterly got Jack Reese.
p1290
sg8
VBARTLET
p1291
sg10
g11
sa(dp1292
g6
VWhat'd it say?
p1293
sg8
VLEO
p1294
sg10
g11
sa(dp1295
g6
VThe best scenario is that simply by engaging, the Arkutu lay down their weapons, but that doesn't seem likey, so we'd lose people.
p1296
sg8
VBARTLET
p1297
sg10
g11
sa(dp1298
g6
VYeah.
p1299
sg8
VLEO
p1300
sg10
g11
sa(dp1301
g6
VMore if they go into the countryside.
p1302
sg8
VBARTLET
p1303
sg10
g11
sa(dp1304
g6
VWhat do you expect?
p1305
sg8
VLEO
p1306
sg10
g11
sa(dp1307
g6
VYeah.
p1308
sg8
VBARTLET
p1309
sg10
g11
sa(dp1310
g6
VToby's working on new policy language.
p1311
sg8
VLEO
p1312
sg10
g11
sa(dp1313
g6
VI'm sorry?
p1314
sg8
VBARTLET
p1315
sg10
g11
sa(dp1316
g6
VI say Toby's working on new foreign policy language.
p1317
sg8
VLEO
p1318
sg10
g11
sa(dp1319
g6
VGood.
p1320
sg8
VBARTLET
p1321
sg10
g11
sa(dp1322
g6
VCan I see the report?
p1323
sg8
VLEO
p1324
sg10
g11
sa(dp1325
g6
VYou should.
p1326
sg8
VBARTLET
p1327
sg10
g11
sa(dp1328
g6
VThank you.
p1329
sg8
VLEO
p1330
sg10
g76
sa(dp1331
g6
VHe led an unsuccessful court case to block all federal death penalties as violating the Equal Protection Clause.
p1332
sg8
VWILL
p1333
sg10
g11
sa(dp1334
g6
VWhy?
p1335
sg8
VELSIE
p1336
sg10
g11
sa(dp1337
g6
V'Cause ferdal law applies to almost nowhere but Indian reservations.
p1338
sg8
VWILL
p1339
sg10
g11
sa(dp1340
g6
VHmm.
p1341
sg8
VELSIE
p1342
sg10
g11
sa(dp1343
g6
VThis is the best. Congress will never create real campaign reform because they're the ones who have to run in elections, so he proposed legislation that would grandfather it in 30 years.
p1344
sg8
VWILL
p1345
sg10
g11
sa(dp1346
g6
VWhat are you doing?
p1347
sg8
VTOBY
p1348
sg10
g11
sa(dp1349
g6
VFamiliarizing myself with his tone.
p1350
sg8
VWILL
p1351
sg10
g11
sa(dp1352
g6
VYou're not thinking about policy language?
p1353
sg8
VTOBY
p1354
sg10
g11
sa(dp1355
g6
VI'm doing both.
p1356
sg8
VWILL
p1357
sg10
g11
sa(dp1358
g6
VBecause we have five days.
p1359
sg8
VTOBY
p1360
sg10
g11
sa(dp1361
g6
VHe knows, and I can confirm that he's thinking and familiaring himself simultaneously.
p1362
sg8
VELSIE
p1363
sg10
g11
sa(dp1364
g6
VYou really comfortable going through life with a name like Elsie Snuffin?
p1365
sg8
VTOBY
p1366
sg10
g11
sa(dp1367
g6
VI've never been comforable, but I'm not sure it's because of my name.
p1368
sg8
VELSIE
p1369
sg10
g11
sa(dp1370
g6
VWell, the idea isn't going to walk in here and announce itself as being important and take a place on the top of the pile.
p1371
sg8
VTOBY
p1372
sg10
g11
sa(dp1373
g6
VI understand.
p1374
sg8
VWILL
p1375
sg10
g11
sa(dp1376
g6
VWhy wasn't it in the original?
p1377
sg8
VWILL
p1378
sg10
g11
sa(dp1379
g6
VIt was stricken from the Congressional Record at the Presidents request. Should I place it here on top of this pile?
p1380
sg8
VSTACY
p1381
sg10
g11
sa(dp1382
g6
VNo, I'll take that.
p1383
sg8
VWILL
p1384
sg10
g76
sa(dp1385
g6
VYeah.
p1386
sg8
VTOBY
p1387
sg10
g11
sa(dp1388
g6
V"America needs a new doctrine for a new century..."
p1389
sg8
VWILL
p1390
sg10
g11
sa(dp1391
g6
VMr. Bailey...
p1392
sg8
VTOBY
p1393
sg10
g11
sa(dp1394
g6
V"...based not just on our interest, but on our values, across the world."
p1395
sg8
VWILL
p1396
sg10
g11
sa(dp1397
g6
VDefine those values for me, please.
p1398
sg8
VTOBY
p1399
sg10
g11
sa(dp1400
g6
VI don't have to. The President of the United States already has. "We are for freedom of speech everywhere. Freedom to worship everywhere. Freedom to learn for every child."
p1401
sg8
VWILL
p1402
sg10
g11
sa(dp1403
g6
VJust out of curiosity, how are you going to enforce a universal global right to education?
p1404
sg8
VTOBY
p1405
sg10
g11
sa(dp1406
g6
VThe same way the U.S. enforced anything it wanted in the middle part of the 20th century. Somebody called our father.
p1407
sg8
VELSIE
p1408
sg10
g11
sa(dp1409
g6
VWhat exactly are you doing here, anyway?
p1410
sg8
VTOBY
p1411
sg10
g11
sa(dp1412
g6
VThe First Lady likes my jokes.
p1413
sg8
VELSIE
p1414
sg10
g11
sa(dp1415
g6
VExcellent.
p1416
sg8
VTOBY
p1417
sg10
g11
sa(dp1418
g6
V"It is our duty to give more than merely our support. We must give our strength diplomatically, materially....
p1419
sg8
VWILL
p1420
sg10
g11
sa(dp1421
g6
VI read it, I think, 16 years ago. It was about El Salvador and he had it stricken from the record and there was a reason.
p1422
sg8
VTOBY
p1423
sg10
g11
sa(dp1424
g6
VWhat?
p1425
sg8
VWILL
p1426
sg10
g11
sa(dp1427
g6
VI don't know, but things have reasons.
p1428
sg8
VTOBY
p1429
sg10
g11
sa(dp1430
g6
VDo they?
p1431
sg8
VWILL
p1432
sg10
g72
sa(dp1433
g6
VYes, they do.
p1434
sg8
VTOBY
p1435
sg10
g11
sa(dp1436
g6
VOkay, but C.J. this morning put the body count at 15,000.
p1437
sg8
VWILL
p1438
sg10
g11
sa(dp1439
g6
VYou're talking about Khundu? That's what the hell this is about?
p1440
sg8
VTOBY
p1441
sg10
g11
sa(dp1442
g6
VWe're talking about everything. "And freedom from the tyranny of oppression, economic slavery, religious fanaticism." Tell me if any of these describe anyone we know.
p1443
sg8
VWILL
p1444
sg10
g11
sa(dp1445
g6
VThis isn't what I meat by drafting new language.
p1446
sg8
VTOBY
p1447
sg10
g11
sa(dp1448
g6
VWhat did you mean?
p1449
sg8
VWILL
p1450
sg10
g11
sa(dp1451
g6
VMaking the old language sound better. You're asking the two of us to create foreign policy by ourselves. That's usually not a good idea. You've got your Pentagon, the NSC and-- what do you call it?-- the State Department.
p1452
sg8
VTOBY
p1453
sg10
g11
sa(dp1454
g6
VYou and Leo McGarry and Josh are his senior counselors and it's not like he doesn't already want to go there.
p1455
sg8
VWILL
p1456
sg10
g11
sa(dp1457
g6
VThis language proposes a new doctrine for the use of force. That we use force whenever we see an injustice we want to correct. Like Mother Theresa with first-strike capabilities.
p1458
sg8
VTOBY
p1459
sg10
g11
sa(dp1460
g6
VDamn right.
p1461
sg8
VWILL
p1462
sg10
g11
sa(dp1463
g6
VOh, you've had too many dinners with daddy. Please go back to finding new language for the foreign section!
p1464
sg8
VTOBY
p1465
sg10
g11
sa(dp1466
g6
VYeah, I should.
p1467
sg8
VWILL
p1468
sg10
g11
sa(dp1469
g6
VI'm only working here another four days.
p1470
sg8
VWILL
p1471
sg10
g72
sa(dp1472
g6
VBut what?
p1473
sg8
VTOBY
p1474
sg10
g11
sa(dp1475
g6
VHe'd do a radio address proposing free liposuction to every child of woman born if you wrote it for him.
p1476
sg8
VWILL
p1477
sg10
g11
sa(dp1478
g6
VYou're wrong. And if he did, I'd be fired shortly thereafter.
p1479
sg8
VTOBY
p1480
sg10
g11
sa(dp1481
g6
VMaybe, but ten pounds lighter.
p1482
sg8
VWILL
p1483
sg10
g11
sa(dp1484
g6
V[to Elsie] You go back to doing whatever it is you do.
p1485
sg8
VTOBY
p1486
sg10
g11
sa(dp1487
g6
VWe'll bring it to the Blue Room and let the President look at it there.
p1488
sg8
VCHARLIE
p1489
sg10
g11
sa(dp1490
g6
VHey, is this it?
p1491
sg8
VBARTLET
p1492
sg10
g72
sa(dp1493
g6
VYes, sir. This is Adam Kent from the Johnathon Edwards Historical Foundation.
p1494
sg8
VCHARLIE
p1495
sg10
g11
sa(dp1496
g6
VGood to meet you.
p1497
sg8
VBARTLET
p1498
sg10
g11
sa(dp1499
g6
VBut we've meet before.
p1500
sg8
VADAM
p1501
sg10
g11
sa(dp1502
g6
VOf course.
p1503
sg8
VBARTLET
p1504
sg10
g11
sa(dp1505
g6
VAnd this, sir, is the John Edwards Bible.
p1506
sg8
VADAM
p1507
sg10
g11
sa(dp1508
g6
VThis?
p1509
sg8
VBARTLET
p1510
sg10
g11
sa(dp1511
g6
VYes, sir.
p1512
sg8
VADAM
p1513
sg10
g76
sa(dp1514
g6
VIt's huge.
p1515
sg8
VBARTLET
p1516
sg10
g11
sa(dp1517
g6
VWell, it ought to be.
p1518
sg8
VADAM
p1519
sg10
g11
sa(dp1520
g6
VActually, it can't be.
p1521
sg8
VBARTLET
p1522
sg10
g11
sa(dp1523
g6
VIt's a pullpit folio, obviously from a time when portability was not an issue and illuminations add pages as well as heft. Also, it's written in four languages.
p1524
sg8
VADAM
p1525
sg10
g11
sa(dp1526
g6
VThe First Lady has to hold this in her hand. This one's going to take the First Lady, the Chief Justice and the Second Circuit Court of Appeals.
p1527
sg8
VBARTLET
p1528
sg10
g11
sa(dp1529
g6
VGreek, Hebrew, Aramaic and English.
p1530
sg8
VADAM
p1531
sg10
g11
sa(dp1532
g6
VOkay... Mr. Carlton?
p1533
sg8
VBARTLET
p1534
sg10
g11
sa(dp1535
g6
VKent.
p1536
sg8
VADAM
p1537
sg10
g11
sa(dp1538
g6
VSorry. Thanks. Charlie's going to take care of you. [to Charlie] Charlie, that Bible's the size of a Volkswagon. Can we get the Washington Bible?
p1539
sg8
VBARTLET
p1540
sg10
g11
sa(dp1541
g6
VYes, sir.
p1542
sg8
VCHARLIE
p1543
sg10
g76
sa(dp1544
g6
VThank you.
p1545
sg8
VBARTLET
p1546
sg10
g76
sa(dp1547
g6
VOkay. Europe?
p1548
sg8
VLEO
p1549
sg10
g11
sa(dp1550
g6
VState's going to issue an alert?
p1551
sg8
VLEO
p1552
sg10
g11
sa(dp1553
g6
VOkay, thanks.
p1554
sg8
VLEO
p1555
sg10
g11
sa(dp1556
g6
VMiles? [waits for everyone to exit] What's the general thinking in Khundu?
p1557
sg8
VLEO
p1558
sg10
g11
sa(dp1559
g6
VThat's what's happening at the State Department. I want to know what's happening at Central Command.
p1560
sg8
VLEO
p1561
sg10
g11
sa(dp1562
g6
VIf you mean militarily, we're going to want to supply the bordering countries.
p1563
sg8
VHUTCHINSON
p1564
sg10
g11
sa(dp1565
g6
VThat's not what I mean. We're getting INTEL that isn't making it onto CNN, but that's a matter of a couple of hours. Truly horrible accounts of mass slaughtering...
p1566
sg8
VLEO
p1567
sg10
g11
sa(dp1568
g6
VLeo...
p1569
sg8
VHUTCHINSON
p1570
sg10
g11
sa(dp1571
g6
V...that should make us at least want to investigate whether there's a genocide.
p1572
sg8
VLEO
p1573
sg10
g11
sa(dp1574
g6
VLee lost 10,000 at Gettysberg, didn't make it genocide.
p1575
sg8
VHUTCHINSON
p1576
sg10
g11
sa(dp1577
g6
VOkay, so I'll go to the President with it.
p1578
sg8
VLEO
p1579
sg10
g11
sa(dp1580
g6
VIn our case, we'd lose closer to a thousand, which is pretty stupid. Magnificently so when we realize we're talking about a guy who's never led an army.
p1581
sg8
VHUTCHINSON
p1582
sg10
g11
sa(dp1583
g6
VA] The guy is the President. B] He's been leading one for 3 years, 51 weeks and three days. How much more training would you like him to have? And C] It's not a thousand. We saw a forced depletion report, it's 150.
p1584
sg8
VLEO
p1585
sg10
g11
sa(dp1586
g6
VYou saw a forced depletion report?
p1587
sg8
VHUTCHINSON
p1588
sg10
g11
sa(dp1589
g6
VYes.
p1590
sg8
VLEO
p1591
sg10
g76
sa(dp1592
g6
VHow did he see a forced depletion report?
p1593
sg8
VHUTCHINSON
p1594
sg10
g11
sa(dp1595
g6
VLook, from time to time, just to expedite things, Nancy will print...
p1596
sg8
VLEO
p1597
sg10
g11
sa(dp1598
g6
VNancy's out of the country. It was a raid.
p1599
sg8
VHUTCHINSON
p1600
sg10
g11
sa(dp1601
g6
VThe guy was following a direct order.
p1602
sg8
VLEO
p1603
sg10
g11
sa(dp1604
g6
VI have no doubt he was. That's my problem, Leo.
p1605
sg8
VHUTCHINSON
p1606
sg10
g11
sa(dp1607
g6
VI don't give a damn what....
p1608
sg8
VLEO
p1609
sg10
g11
sa(dp1610
g6
VWhat?
p1611
sg8
VHUTCHINSON
p1612
sg10
g11
sa(dp1613
g6
VI said I don't give a damn what your problem is, Miles. The man wants to know if he sends troops, how many are going to die.
p1614
sg8
VLEO
p1615
sg10
g11
sa(dp1616
g6
VAnd if he wants to see forced depletion, he asks me.
p1617
sg8
VHUTCHINSON
p1618
sg10
g11
sa(dp1619
g6
VHe asks you and three days mange to go by before he sees it, Mr. Secretary. Yet miraculously, the Wall Street Journal, on day two, the numbers inflated all to hell. It's 150, not a thousand.
p1620
sg8
VLEO
p1621
sg10
g11
sa(dp1622
g6
VAnd that's accecptable to you in Khundu?
p1623
sg8
VHUTCHINSON
p1624
sg10
g11
sa(dp1625
g6
VI don't know what you mean when you say "in Khundu." Nah... yeah, I do.
p1626
sg8
VLEO
p1627
sg10
g11
sa(dp1628
g6
VGo to hell.
p1629
sg8
VHUTCHINSON
p1630
sg10
g11
sa(dp1631
g6
VOkay.
p1632
sg8
VLEO
p1633
sg10
g11
sa(dp1634
g6
V[not looking up] Keep your pants on, Toby, I'm almost there.
p1635
sg8
VWILL
p1636
sg10
g11
sa(dp1637
g6
VToby been taking his pants off again? That's just something he does.
p1638
sg8
VBARTLET
p1639
sg10
g11
sa(dp1640
g6
V[looks up, then stands] Good evening, Mr. President.
p1641
sg8
VWILL
p1642
sg10
g11
sa(dp1643
g6
VHow's it going?
p1644
sg8
VBARTLET
p1645
sg10
g11
sa(dp1646
g6
VFine, sir.
p1647
sg8
VWILL
p1648
sg10
g11
sa(dp1649
g6
VGood.
p1650
sg8
VBARTLET
p1651
sg10
g11
sa(dp1652
g6
VNo, it's not.
p1653
sg8
VWILL
p1654
sg10
g11
sa(dp1655
g6
VYeah. What's hard is that foreign policy has become a statement of what we won't do.
p1656
sg8
VBARTLET
p1657
sg10
g11
sa(dp1658
g6
VYes, sir.
p1659
sg8
VWILL
p1660
sg10
g76
sa(dp1661
g6
V"A new doctrine for a new century, based not just on our interests, but on our values across the world." Well, that's pretty spicey stuff.
p1662
sg8
VBARTLET
p1663
sg10
g11
sa(dp1664
g6
VYou wrote it, sir.
p1665
sg8
VWILL
p1666
sg10
g11
sa(dp1667
g6
VYeah, I know. Why is a Khundunese life worth less to me than an American life?
p1668
sg8
VBARTLET
p1669
sg10
g11
sa(dp1670
g6
VI don't know, sir, but it is.
p1671
sg8
VWILL
p1672
sg10
g11
sa(dp1673
g6
VThat was ballsy.
p1674
sg8
VBARTLET
p1675
sg10
g11
sa(dp1676
g6
VI won't be working here long.
p1677
sg8
VWILL
p1678
sg10
g72
sa(dp1679
g6
VYou Tom Bailey's son?
p1680
sg8
VBARTLET
p1681
sg10
g11
sa(dp1682
g6
VYes, sir.
p1683
sg8
VWILL
p1684
sg10
g76
sa(dp1685
g6
VTalk about the very model of a modern Major General.
p1686
sg8
VBARTLET
p1687
sg10
g11
sa(dp1688
g6
VYes, sir.
p1689
sg8
VWILL
p1690
sg10
g76
sa(dp1691
g6
VC.J....
p1692
sg8
VDANNY
p1693
sg10
g11
sa(dp1694
g6
VI found your ramp signal agent.
p1695
sg8
VC.J.
p1696
sg10
g11
sa(dp1697
g6
VMe too. He took a job in an airport in the Cooperatve Republic of Guyana. That's where you're sending people?
p1698
sg8
VDANNY
p1699
sg10
g11
sa(dp1700
g6
VWe don't send anyone anywhere who doesn't work for us, but I understand he's gotten a salary-bump and he's co-captian of a local cricket team.
p1701
sg8
VC.J.
p1702
sg10
g11
sa(dp1703
g6
VI called him.
p1704
sg8
VDANNY
p1705
sg10
g11
sa(dp1706
g6
VAnd?
p1707
sg8
VC.J.
p1708
sg10
g11
sa(dp1709
g6
VHe doesn't remember me. Then he does, but he doesn't remember anything about an airstrip. He does, but he doesn't remember anything about not getting in.
p1710
sg8
VDANNY
p1711
sg10
g11
sa(dp1712
g6
VMystery solved.
p1713
sg8
VC.J.
p1714
sg10
g11
sa(dp1715
g6
VC.J.
p1716
sg8
VDANNY
p1717
sg10
g11
sa(dp1718
g6
VCome here.
p1719
sg8
VC.J.
p1720
sg10
g72
sa(dp1721
g6
VThis is ridiculous. It's been ridiculous ever since you came back.
p1722
sg8
VC.J.
p1723
sg10
g11
sa(dp1724
g6
VWhat?
p1725
sg8
VDANNY
p1726
sg10
g11
sa(dp1727
g6
VWould you mind if I turned out the lights?
p1728
sg8
VC.J.
p1729
sg10
g11
sa(dp1730
g6
VNo.
p1731
sg8
VDANNY
p1732
sg10
g11
sa(dp1733
g6
VIt's just easier this way. For three years I have been thinking about what might have been if it weren't....
p1734
sg8
VC.J.
p1735
sg10
g11
sa(dp1736
g6
VYeah?
p1737
sg8
VDANNY
p1738
sg10
g11
sa(dp1739
g6
V...for the conflict.
p1740
sg8
VC.J.
p1741
sg10
g11
sa(dp1742
g6
VYeah?
p1743
sg8
VDANNY
p1744
sg10
g11
sa(dp1745
g6
VAnd I'm almost over it. I mean, I am right there and you come back with scruffy face and your jokes and your incredible talent and your way of getting at... getting at me. And I was thinking if we could...
p1746
sg8
VC.J.
p1747
sg10
g11
sa(dp1748
g6
VBe adult?
p1749
sg8
VDANNY
p1750
sg10
g11
sa(dp1751
g6
VDo you like this perfume?
p1752
sg8
VC.J.
p1753
sg10
g11
sa(dp1754
g6
VYeah.
p1755
sg8
VDANNY
p1756
sg10
g11
sa(dp1757
g6
VDo you like this blouse?
p1758
sg8
VC.J.
p1759
sg10
g11
sa(dp1760
g6
VWhat's gotten into you?
p1761
sg8
VDANNY
p1762
sg10
g11
sa(dp1763
g6
VDo you?
p1764
sg8
VC.J.
p1765
sg10
g76
sa(dp1766
g6
VYeah.
p1767
sg8
VDANNY
p1768
sg10
g11
sa(dp1769
g6
VCome here.
p1770
sg8
VC.J.
p1771
sg10
g72
sa(dp1772
g6
VRemember when you asked me what exactly I'd do to have you?
p1773
sg8
VC.J.
p1774
sg10
g11
sa(dp1775
g6
VYeah.
p1776
sg8
VDANNY
p1777
sg10
g11
sa(dp1778
g6
VI'd do that.
p1779
sg8
VC.J.
p1780
sg10
g11
sa(dp1781
g6
VGood evening. I have revised estimates for Khundu. We said 15,000 yesterday. Intelligence reports are putting it closer to 25... 25,000.
p1782
sg8
VC.J.
p1783
sg10
g11
sa(dp1784
g6
VHey.
p1785
sg8
VJOSH
p1786
sg10
g11
sa(dp1787
g6
VHey.
p1788
sg8
VCHARLIE
p1789
sg10
g11
sa(dp1790
g6
VHe in?
p1791
sg8
VJOSH
p1792
sg10
g11
sa(dp1793
g6
VIn a minute. He's got a security briefing.
p1794
sg8
VCHARLIE
p1795
sg10
g11
sa(dp1796
g6
VWhat's that?
p1797
sg8
VJOSH
p1798
sg10
g11
sa(dp1799
g6
VIt's a seating chart for the Inauguration.
p1800
sg8
VCHARLIE
p1801
sg10
g11
sa(dp1802
g6
VYou're sitting with us in the staff section.
p1803
sg8
VJOSH
p1804
sg10
g11
sa(dp1805
g6
VYeah, I'm looking for someone else.
p1806
sg8
VCHARLIE
p1807
sg10
g11
sa(dp1808
g6
VWould it be weird if I just walked around with a military dress saber?
p1809
sg8
VJOSH
p1810
sg10
g11
sa(dp1811
g6
VMm-hmm.
p1812
sg8
VCHARLIE
p1813
sg10
g11
sa(dp1814
g6
VOkay. He's in a security briefing?
p1815
sg8
VJOSH
p1816
sg10
g11
sa(dp1817
g6
VI'll let him know you're here.
p1818
sg8
VCHARLIE
p1819
sg10
g11
sa(dp1820
g6
VNavy dress uniform has 13 buttons on the pants. I mean, traditions tradition, but I'd be concerned about the level of bladder discipline that requires, wouldn't you?
p1821
sg8
VJOSH
p1822
sg10
g11
sa(dp1823
g6
VWhat?
p1824
sg8
VCHARLIE
p1825
sg10
g11
sa(dp1826
g6
VNothing.
p1827
sg8
VJOSH
p1828
sg10
g11
sa(dp1829
g6
VWe'll send condolences. What's next?
p1830
sg8
VBARTLET
p1831
sg10
g11
sa(dp1832
g6
VOkay.
p1833
sg8
VBARTLET
p1834
sg10
g11
sa(dp1835
g6
VWell, if he's old enough to marry Jerry Lee Lewis, I guess he's old enough to be king of Bhutan. What's next?
p1836
sg8
VBARTLET
p1837
sg10
g11
sa(dp1838
g6
VA detained ship 12 miles of the Port of Miami; Nigerian flag.
p1839
sg8
VCLARK
p1840
sg10
g11
sa(dp1841
g6
VCoast Guards got it?
p1842
sg8
VBARTLET
p1843
sg10
g76
sa(dp1844
g6
VYes, sir.
p1845
sg8
VCLARK
p1846
sg10
g76
sa(dp1847
g6
VWhat's happening? I'm sorry, what's happening in the REK?
p1848
sg8
VBARTLET
p1849
sg10
g11
sa(dp1850
g6
VWell, a proclamation ought to do the trick. What's the CIA know that I should know?
p1851
sg8
VBARTLET
p1852
sg10
g11
sa(dp1853
g6
VNeighbors are... swapping family members.
p1854
sg8
VCLARK
p1855
sg10
g11
sa(dp1856
g6
VAll right, thank you.
p1857
sg8
VBARTLET
p1858
sg10
g76
sa(dp1859
g6
VThank you, sir. Thank you, Mr. President.
p1860
sg8
VALL
p1861
sg10
g76
sa(dp1862
g6
VYou wanted Josh?
p1863
sg8
VCHARLIE
p1864
sg10
g11
sa(dp1865
g6
VYeah. Hey, I changed my mind. Not the Washington Bible.
p1866
sg8
VBARTLET
p1867
sg10
g11
sa(dp1868
g6
VYou sure?
p1869
sg8
VCHARLIE
p1870
sg10
g11
sa(dp1871
g6
VYeah.
p1872
sg8
VBARTLET
p1873
sg10
g11
sa(dp1874
g6
VI'm only asking 'cause they need some notice on the Washington Bible.
p1875
sg8
VCHARLIE
p1876
sg10
g11
sa(dp1877
g6
VYeah, I'm going to use my father's.
p1878
sg8
VBARTLET
p1879
sg10
g11
sa(dp1880
g6
VYes, sir.
p1881
sg8
VCHARLIE
p1882
sg10
g76
sa(dp1883
g6
VGood evening, Mr. President.
p1884
sg8
VLEO
p1885
sg10
g11
sa(dp1886
g6
VDid you talk to Hutchinson?
p1887
sg8
VBARTLET
p1888
sg10
g11
sa(dp1889
g6
VYeah.
p1890
sg8
VLEO
p1891
sg10
g11
sa(dp1892
g6
V[to Charlie] Tell Josh I'll just be a minute, okay?
p1893
sg8
VBARTLET
p1894
sg10
g72
sa(dp1895
g6
VYes, sir.
p1896
sg8
VCHARLIE
p1897
sg10
g76
sa(dp1898
g6
VDid he tell me to shut up and let him run the Pentagon?
p1899
sg8
VBARTLET
p1900
sg10
g11
sa(dp1901
g6
VIn so many words.
p1902
sg8
VLEO
p1903
sg10
g11
sa(dp1904
g6
VHow many?
p1905
sg8
VBARTLET
p1906
sg10
g11
sa(dp1907
g6
VNot that many. As a matter of fact, we didn't get that far. I got Jack Reese in some trouble.
p1908
sg8
VLEO
p1909
sg10
g11
sa(dp1910
g6
VSo Hutchinson know I've seen forced depletion.
p1911
sg8
VBARTLET
p1912
sg10
g11
sa(dp1913
g6
VYeah.
p1914
sg8
VLEO
p1915
sg10
g11
sa(dp1916
g6
VHe should be pissed at me, not Jack Reese.
p1917
sg8
VBARTLET
p1918
sg10
g11
sa(dp1919
g6
VHe should be pissed at you? The Secretary of Defense should be pissed at...
p1920
sg8
VLEO
p1921
sg10
g11
sa(dp1922
g6
VDon't worry about it. Right?
p1923
sg8
VBARTLET
p1924
sg10
g11
sa(dp1925
g6
VSure. No problem.
p1926
sg8
VLEO
p1927
sg10
g11
sa(dp1928
g6
VDon't worry about it.
p1929
sg8
VBARTLET
p1930
sg10
g11
sa(dp1931
g6
VYes, sir.
p1932
sg8
VLEO
p1933
sg10
g76
sa(dp1934
g6
VClark says neighbors are swapping family members in Khundu.
p1935
sg8
VBARTLET
p1936
sg10
g11
sa(dp1937
g6
VReally?
p1938
sg8
VLEO
p1939
sg10
g11
sa(dp1940
g6
VAlso, there's a new king of Bhutan. And he's been bar mitzvaed and everything.
p1941
sg8
VBARTLET
p1942
sg10
g11
sa(dp1943
g6
VAll right.
p1944
sg8
VLEO
p1945
sg10
g11
sa(dp1946
g6
VHey, this guy you hired for the Inauguration speech gave me a little back chat a few minutes ago.
p1947
sg8
VBARTLET
p1948
sg10
g11
sa(dp1949
g6
VBailey?
p1950
sg8
VLEO
p1951
sg10
g11
sa(dp1952
g6
VYeah, he was using a floor speech about El Salvador I gave 98 years ago to demonstrate that the U.S. should send troops to Khundu. Rhetorically, I said, "Why is a Khundunese life worth less to me than an American life?" And he said, "I dont know, sir, but it is."
p1953
sg8
VBARTLET
p1954
sg10
g11
sa(dp1955
g6
VI'll try to get some better information.
p1956
sg8
VLEO
p1957
sg10
g11
sa(dp1958
g6
VThank you.
p1959
sg8
VBARTLET
p1960
sg10
g76
sa(dp1961
g6
VThank you, Mr. President.
p1962
sg8
VLEO
p1963
sg10
g76
sa(dp1964
g6
VGood evening, Mr. President.
p1965
sg8
VJOSH
p1966
sg10
g11
sa(dp1967
g6
VHey, Josh. There's intelligence that Khundunese neighbors in the country are swapping family members.
p1968
sg8
VBARTLET
p1969
sg10
g11
sa(dp1970
g6
VI'm sorry, I don't understand.
p1971
sg8
VJOSH
p1972
sg10
g11
sa(dp1973
g6
VFor the night, they're swapping family members you know, and sleeping in each other's houses.
p1974
sg8
VBARTLET
p1975
sg10
g11
sa(dp1976
g6
VYes, sir.
p1977
sg8
VJOSH
p1978
sg10
g76
sa(dp1979
g6
VWhat's going on?
p1980
sg8
VBARTLET
p1981
sg10
g11
sa(dp1982
g6
VYou know what, nothing I can't deal with.
p1983
sg8
VJOSH
p1984
sg10
g11
sa(dp1985
g6
VState?
p1986
sg8
VBARTLET
p1987
sg10
g11
sa(dp1988
g6
VI did just get off the phone with Jeffrey Tomlinson and Bob Bibbet.
p1989
sg8
VJOSH
p1990
sg10
g11
sa(dp1991
g6
VTell them...
p1992
sg8
VBARTLET
p1993
sg10
g11
sa(dp1994
g6
VThey're under... I'm sorry, sir, they're under the impression that the entire foreign policy section is being rewritten.
p1995
sg8
VJOSH
p1996
sg10
g11
sa(dp1997
g6
VIt's not.
p1998
sg8
VBARTLET
p1999
sg10
g11
sa(dp2000
g6
VI know, they just... asked me to emphasize that the current language has been vetted with the ranking members of House Armed Services.
p2001
sg8
VJOSH
p2002
sg10
g11
sa(dp2003
g6
VThe language is being polished.
p2004
sg8
VBARTLET
p2005
sg10
g11
sa(dp2006
g6
VThat's what I told them. They just asked me to remind you that their version also reflects existing treaties some of which....
p2007
sg8
VJOSH
p2008
sg10
g11
sa(dp2009
g6
VSome of which have my name on them. So tell Jeff Tomlison and baby Bob to take a deep knee bend, would you? I'm just as big a cotton candy ass as they are.
p2010
sg8
VBARTLET
p2011
sg10
g11
sa(dp2012
g6
VYes, sir.
p2013
sg8
VJOSH
p2014
sg10
g76
sa(dp2015
g6
VYou're just going to let that hang in the air?
p2016
sg8
VBARTLET
p2017
sg10
g11
sa(dp2018
g6
VOf course not, sir. You're a much bigger cotton candy ass than they are.
p2019
sg8
VJOSH
p2020
sg10
g11
sa(dp2021
g6
VDamn right.
p2022
sg8
VBARTLET
p2023
sg10
g11
sa(dp2024
g6
VAnything else?
p2025
sg8
VJOSH
p2026
sg10
g11
sa(dp2027
g6
VNo.
p2028
sg8
VBARTLET
p2029
sg10
g11
sa(dp2030
g6
VThank you, Mr. President.
p2031
sg8
VJOSH
p2032
sg10
g76
sa(dp2033
g6
VWhat's going on?
p2034
sg8
VJOSH
p2035
sg10
g11
sa(dp2036
g6
VI don't know what's going on, but Jack's been reassigned.
p2037
sg8
VDONNA
p2038
sg10
g11
sa(dp2039
g6
VTo where?
p2040
sg8
VJOSH
p2041
sg10
g11
sa(dp2042
g6
VAviano.
p2043
sg8
VDONNA
p2044
sg10
g11
sa(dp2045
g6
VAir Force Base?
p2046
sg8
VJOSH
p2047
sg10
g11
sa(dp2048
g6
VYes. Aviano Air Force Base.
p2049
sg8
VDONNA
p2050
sg10
g76
sa(dp2051
g6
VWhen?
p2052
sg8
VJOSH
p2053
sg10
g11
sa(dp2054
g6
VHe got his orders.
p2055
sg8
VDONNA
p2056
sg10
g11
sa(dp2057
g6
VWhat happened?
p2058
sg8
VJOSH
p2059
sg10
g11
sa(dp2060
g6
VI don't know. He said he was asked to do something, he did it, he got a slap on the wrist and wouldn't tell me more than that.
p2061
sg8
VDONNA
p2062
sg10
g11
sa(dp2063
g6
VThe reality of the fast-track Navy guys is they're going to bop around the globe a lot.
p2064
sg8
VJOSH
p2065
sg10
g11
sa(dp2066
g6
VHe was here less then three months, plus he said something happened.
p2067
sg8
VDONNA
p2068
sg10
g11
sa(dp2069
g6
VYou can't begin to concieve of the internal politics of the Pentagon. Right now, Hutchinson and his boys...
p2070
sg8
VJOSH
p2071
sg10
g11
sa(dp2072
g6
VBut he worked here. This is internal politics of the White House.
p2073
sg8
VDONNA
p2074
sg10
g11
sa(dp2075
g6
VWell, no one's told me about it and I'm not going to ask.
p2076
sg8
VJOSH
p2077
sg10
g11
sa(dp2078
g6
VHe said he was asked to do something for somebody. It can only be Nancy, Leo or the President.
p2079
sg8
VDONNA
p2080
sg10
g11
sa(dp2081
g6
VThree doors you definitely want to knock on to complain about your boyfriend being transferred to the Italian Alps.
p2082
sg8
VJOSH
p2083
sg10
g11
sa(dp2084
g6
VHey, I'm not Gidget, okay? Something...
p2085
sg8
VDONNA
p2086
sg10
g11
sa(dp2087
g6
VIs he complaining?
p2088
sg8
VJOSH
p2089
sg10
g11
sa(dp2090
g6
VHe doesn't complain.
p2091
sg8
VDONNA
p2092
sg10
g11
sa(dp2093
g6
VI ask you that because sometimes people request transfers.
p2094
sg8
VJOSH
p2095
sg10
g11
sa(dp2096
g6
VSomebody asked him to do something and he did it. I take him at his word, as should you, there being no reason not to. Is there anything you need?
p2097
sg8
VDONNA
p2098
sg10
g11
sa(dp2099
g6
VNo.
p2100
sg8
VJOSH
p2101
sg10
g11
sa(dp2102
g6
VThank you, sir.
p2103
sg8
VDONNA
p2104
sg10
g76
sa(dp2105
g6
VJack Reese got transfered.
p2106
sg8
VJOSH
p2107
sg10
g11
sa(dp2108
g6
VWell, I've got my own Beach Boys song going.
p2109
sg8
VCHARLIE
p2110
sg10
g11
sa(dp2111
g6
VIf you tell me you got a crush on Reese...
p2112
sg8
VJOSH
p2113
sg10
g11
sa(dp2114
g6
VJean-Pierre is sitting next to her in the friends and family section.
p2115
sg8
VCHARLIE
p2116
sg10
g11
sa(dp2117
g6
VZoey's lover?
p2118
sg8
VJOSH
p2119
sg10
g11
sa(dp2120
g6
VIt's important that you call him that?
p2121
sg8
VCHARLIE
p2122
sg10
g11
sa(dp2123
g6
VIsn't his name Jean-Paul?
p2124
sg8
VJOSH
p2125
sg10
g11
sa(dp2126
g6
VAre we going to be together on this?
p2127
sg8
VCHARLIE
p2128
sg10
g11
sa(dp2129
g6
VYes.
p2130
sg8
VJOSH
p2131
sg10
g76
sa(dp2132
g6
VOkay.
p2133
sg8
VCHARLIE
p2134
sg10
g11
sa(dp2135
g6
VIntelligence says neighbors in Khundu are sleeping in each others houses.
p2136
sg8
VJOSH
p2137
sg10
g11
sa(dp2138
g6
VWhat does that mena?
p2139
sg8
VCHARLIE
p2140
sg10
g11
sa(dp2141
g6
VIt means they're making people in the same house rape each other on the promise their lives will be spared.
p2142
sg8
VJOSH
p2143
sg10
g11
sa(dp2144
g6
VOkay. Do you need anything?
p2145
sg8
VCHARLIE
p2146
sg10
g76
sa(dp2147
g6
VNah.
p2148
sg8
VJOSH
p2149
sg10
g11
sas.