(dp0
S'season'
p1
I4
sS'episode'
p2
I16
sS'script'
p3
(lp4
(dp5
S'text'
p6
VWhat about the 82nd? It's Fitz, General.
p7
sS'bow_score'
p8
S'neutral'
p9
sS'character'
p10
VFITZWALLACE
p11
sS'maxent_score'
p12
g9
sa(dp13
g6
VThe 82nd began their drop 75 minutes ago. Now they're in the process of...
p14
sg8
g9
sg10
VWENDALL
p15
sg12
g9
sa(dp16
g6
VExcuse me, Mr. President, Mr. Chairman, for jut a moment.
p17
sg8
g9
sg10
VWENDALL
p18
sg12
g9
sa(dp19
g6
VI don't understand, did we just get put on call waiting or something?
p20
sg8
g9
sg10
VBARTLET
p21
sg12
g9
sa(dp22
g6
VHe's probably taking a call from Captain Morita on the Tallahassee.
p23
sg8
g9
sg10
VFITZWALLACE
p24
sg12
g9
sa(dp25
g6
VWendall's answering the phones at U.S. European Commamnd?
p26
sg8
g9
sg10
VBARTLET
p27
sg12
g9
sa(dp28
g6
VWould you take it easy?
p29
sg8
g9
sg10
VLEO
p30
sg12
S'positive'
p31
sa(dp32
g6
VIs he placing a bet?
p33
sg8
g9
sg10
VBARTLET
p34
sg12
g9
sa(dp35
g6
VAre we allowed to do that? And can I make a quick phone call before the 101st Air Assault...
p36
sg8
g9
sg10
VFITZWALLACE
p37
sg12
g9
sa(dp38
g6
VExcuse me, Mr. President.
p39
sg8
g9
sg10
VWENDALL
p40
sg12
g9
sa(dp41
g6
VJimmy, was that Morita?
p42
sg8
g9
sg10
VFITZWALLACE
p43
sg12
g9
sa(dp44
g6
VYes, sir.
p45
sg8
g31
sg10
VWENDALL
p46
sg12
g31
sa(dp47
g6
VWhat happened?
p48
sg8
g9
sg10
VFITZWALLACE
p49
sg12
g9
sa(dp50
g6
VThe 82nd's completed its takeover of Bitanga Airport, Admiral, that's what happened.
p51
sg8
g9
sg10
VWENDALL
p52
sg12
g9
sa(dp53
g6
VClear the 101st for the Bitanga Airport and stand by for a coded command, General.
p54
sg8
g9
sg10
VFITZWALLACE
p55
sg12
g9
sa(dp56
g6
VYes, sir.
p57
sg8
g31
sg10
VWENDALL
p58
sg12
g31
sa(dp59
g6
V[to Bartlet] Thank you, Mr. President.
p60
sg8
g9
sg10
VFITZWALLACE
p61
sg12
g9
sa(dp62
g6
VThank you.
p63
sg8
g9
sg10
VBARTLET
p64
sg12
g31
sa(dp65
g6
VThank you, Mr. President.
p66
sg8
g9
sg10
VALL
p67
sg12
g31
sa(dp68
g6
VThat was impressive.
p69
sg8
g9
sg10
VLEO
p70
sg12
g9
sa(dp71
g6
VMe?
p72
sg8
g9
sg10
VBARTLET
p73
sg12
g9
sa(dp74
g6
VNo, them. I meant...
p75
sg8
g9
sg10
VLEO
p76
sg12
g9
sa(dp77
g6
VI get it.
p78
sg8
g9
sg10
VBARTLET
p79
sg12
g9
sa(dp80
g6
VI'm saying...
p81
sg8
g9
sg10
VLEO
p82
sg12
g9
sa(dp83
g6
VAnd I agree with you.
p84
sg8
g31
sg10
VBARTLET
p85
sg12
g31
sa(dp86
g6
VI'm not saying I don't think you can be impressive in the Situation Room.
p87
sg8
g9
sg10
VLEO
p88
sg12
g9
sa(dp89
g6
VI can tell by the way you laughed in my face at the suggestion that I was.
p90
sg8
g9
sg10
VBARTLET
p91
sg12
g9
sa(dp92
g6
VWe changed wheels-up to 6:00 p.m.
p93
sg8
g9
sg10
VLEO
p94
sg12
g9
sa(dp95
g6
VI heard that. Why?
p96
sg8
g9
sg10
VBARTLET
p97
sg12
g9
sa(dp98
g6
VD-triple-C put an event in Brentwood.
p99
sg8
g9
sg10
VLEO
p100
sg12
g9
sa(dp101
g6
VI've told him over and over about money and endorsements from outside the district. Why is he going to Brentwood?
p102
sg8
g31
sg10
VBARTLET
p103
sg12
g9
sa(dp104
g6
VFor the same reason Willy Sutton robbed banks.
p105
sg8
g31
sg10
VLEO
p106
sg12
g9
sa(dp107
g6
VWhat does Joey say?
p108
sg8
g9
sg10
VBARTLET
p109
sg12
g9
sa(dp110
g6
VHe's anywhere from five to eight points down, favorabilty below 50. They're making it about values.
p111
sg8
g9
sg10
VLEO
p112
sg12
g9
sa(dp113
g6
VThe right to privacy's a value, so is clean air.
p114
sg8
g31
sg10
VBARTLET
p115
sg12
g9
sa(dp116
g6
VThat argument's been incredibly effective in the past.
p117
sg8
g9
sg10
VLEO
p118
sg12
g9
sa(dp119
g6
VOMB?
p120
sg8
g9
sg10
VBARTLET
p121
sg12
g9
sa(dp122
g6
VThey want a few more hours for the revenue calculations, but they're saying it's definitely going to be today.
p123
sg8
g9
sg10
VLEO
p124
sg12
g9
sa(dp125
g6
VDeficit-nuetral, we've had 14 meetings.
p126
sg8
g9
sg10
VBARTLET
p127
sg12
g9
sa(dp128
g6
VThey understand. Ways and Means Democrats, then the NEC breifing on scoring.
p129
sg8
g9
sg10
VLEO
p130
sg12
g9
sa(dp131
g6
VWhat's wrong with booze and a comfortable pickup? Scoring.
p132
sg8
S'negative'
p133
sg10
VBARTLET
p134
sg12
g9
sa(dp135
g6
VI know what you were saying. What, are you from the Ozarks?
p136
sg8
g9
sg10
VLEO
p137
sg12
g9
sa(dp138
g6
VIs there going to be a democrat tax plan, or am I going to be stuck in NEC scoring hell for the rest of my term?
p139
sg8
g133
sg10
VBARTLET
p140
sg12
g9
sa(dp141
g6
VYou got a meeting on salmon runs in Oregon at 3:00.
p142
sg8
g9
sg10
VLEO
p143
sg12
g9
sa(dp144
g6
VWhat do salmon runs have to do with it?
p145
sg8
g9
sg10
VBARTLET
p146
sg12
g9
sa(dp147
g6
VNothing, sir. It doesn't have anything to do with the tax plan. I was moving on.
p148
sg8
g9
sg10
VLEO
p149
sg12
g9
sa(dp150
g6
VLast week it was a banana embargo. Is Congress opening a restaurant?
p151
sg8
g133
sg10
VBARTLET
p152
sg12
g9
sa(dp153
g6
VThere's no reason you can't relax a little bit in California.
p154
sg8
g31
sg10
VLEO
p155
sg12
g9
sa(dp156
g6
VAren't there quite a few reasons?
p157
sg8
g9
sg10
VBARTLET
p158
sg12
g9
sa(dp159
g6
VYes.
p160
sg8
g9
sg10
VLEO
p161
sg12
g31
sa(dp162
g6
VGood morning, Mr. President.
p163
sg8
g9
sg10
VDEBBIE
p164
sg12
g9
sa(dp165
g6
VMiss Humentashen.
p166
sg8
g9
sg10
VBARTLET
p167
sg12
g9
sa(dp168
g6
VIsn't it a little early in the day, sir?
p169
sg8
g31
sg10
VDEBBIE
p170
sg12
g9
sa(dp171
g6
VLeo said just now that there was going to be an NEC briefing on scoring and tell her what I said.
p172
sg8
g9
sg10
VBARTLET
p173
sg12
g9
sa(dp174
g6
V"What's wrong with booze and a comfortable pickup?"
p175
sg8
g133
sg10
VLEO
p176
sg12
g9
sa(dp177
g6
VNo, I see there's no hour too early for your Noel Cowardesque wit, sir.
p178
sg8
g31
sg10
VDEBBIE
p179
sg12
g9
sa(dp180
g6
VNo there's not.
p181
sg8
g9
sg10
VBARTLET
p182
sg12
g9
sa(dp183
g6
VAmbassador Tiki is in the Oval Office, sir.
p184
sg8
g31
sg10
VDEBBIE
p185
sg12
g9
sa(dp186
g6
VMr. Ambassador, I'm sorry to keep you waiting. I was just in the White House Situation Room.
p187
sg8
g9
sg10
VBARTLET
p188
sg12
g9
sa(dp189
g6
VI've just taken your airport... [shakes his hand] ...clearing the way for the 101st Air Assualt to take the capitol. 7,000 troops, 25 battle tanks, 15 Apache attack helicopters, and three destroyers. Strictly speaking, I conquered your country without the paperwork.
p190
sg8
g133
sg10
VBARTLET
p191
sg12
g9
sa(dp192
g6
VNo, it's not. It's in the midst of a one-sided slaughtering of an entire people. Both the Secretary General of the United Nations and the Vatican have pleaded with President Nzele for a cease-fire and both the U.N. and the Holy Father have struck out to the peril of 115,000 Induye men, women, and God knows children, particularly the boys.
p193
sg8
g133
sg10
VBARTLET
p194
sg12
g9
sa(dp195
g6
VWho will soon be men and will rise up...
p196
sg8
g9
sg10
VTIKI
p197
sg12
g133
sa(dp198
g6
VThe heads of Ghana, Nigeria and Zaire have similairly sent packing. The Red Cross has been denied entry on three seperate occasions in the last ten says. President Nzele has 36 hours to give the command to his troops to hand over their weapons to the 82nd Divison Airborne Division of the United States Army. At 36 hours and one minute, I give the order for the 101st Air Assualt to take Bitanga and run up our flag. I skipped breakfast. Anybody want coffee or something?
p199
sg8
g9
sg10
VBARTLET
p200
sg12
g9
sa(dp201
g6
VThe President informed both Ambassador Tiki and President Nzele that they have 36-- now 34 and a half hours-- to implement a halt to the violence before U.S. forces deploy. John.
p202
sg8
g133
sg10
VC.J.
p203
sg12
g9
sa(dp204
g6
VYou've got a Pentagon briefing at noon. Katie.
p205
sg8
g9
sg10
VC.J.
p206
sg12
g9
sa(dp207
g6
VThe government of Ghana as offered to act as an intermediary, and those talks begin within the hour.
p208
sg8
g133
sg10
VC.J.
p209
sg12
g9
sa(dp210
g6
VSafe Haven.
p211
sg8
g9
sg10
VC.J.
p212
sg12
g9
sa(dp213
g6
VAlways be upbeat.
p214
sg8
g9
sg10
VC.J.
p215
sg12
g9
sa(dp216
g6
VYeah, I don't get to decide press policy for the U.S. Armed Forces, though if wishing made it so, but we're bring Pentagon Public Affairs on the California trip and we'll be meeting about it all weekend. Tonights forecast for D.C. is 18 degrees of Mercury. For Newport Beach, it's 78 and sunny.
p217
sg8
g31
sg10
VC.J.
p218
sg12
g9
sa(dp219
g6
VEven at night.
p220
sg8
g9
sg10
VC.J.
p221
sg12
g9
sa(dp222
g6
VWell, Sam's going to meet us and we're going to get something to eat.
p223
sg8
g31
sg10
VC.J.
p224
sg12
g9
sa(dp225
g6
VDon't be fooled. They love us in Orange County. They're crazy-go-nuts for the President. They're really the Democratic party in general. I think they really like it when we come to town. When we were there last month, we we're working the crowd, and some boys, worried possibly that I couldn't afford fruits and vegetables on a government salary, tossed me some of their own.
p226
sg8
g31
sg10
VC.J.
p227
sg12
g9
sa(dp228
g6
V78 and sunny. Yeah, we're going to have a dabba-doo time, so unless there are any updates, I'll see you on the plane.
p229
sg8
g31
sg10
VC.J.
p230
sg12
g9
sa(dp231
g6
VThank you, C.J.
p232
sg8
g9
sg10
VREPORTERS
p233
sg12
g31
sa(dp234
g6
V[to Carol] I've got $1,331 in my checking account. I'll write you a check for $1,300 if you go to California instead of me. Just leave me $31 for food and transportation.
p235
sg8
g9
sg10
VC.J.
p236
sg12
g9
sa(dp237
g6
VGretchen Olan's been bumped from "Meet The Press."
p238
sg8
g9
sg10
VCAROL
p239
sg12
g9
sa(dp240
g6
VThat, by the way, was a sky-blue DKNY suit worn for 41 minutes. There should be a law against that.
p241
sg8
g133
sg10
VC.J.
p242
sg12
g9
sa(dp243
g6
VThere is a law against that.
p244
sg8
g9
sg10
VCAROL
p245
sg12
g9
sa(dp246
g6
VWho was she bumped for?
p247
sg8
g9
sg10
VC.J.
p248
sg12
g9
sa(dp249
g6
VRittenhouse.
p250
sg8
g9
sg10
VCAROL
p251
sg12
g9
sa(dp252
g6
VOkay.
p253
sg8
g9
sg10
VC.J.
p254
sg12
g9
sa(dp255
g6
VAnd "This Week" wants to reschedule the Attorney General.
p256
sg8
g9
sg10
VCAROL
p257
sg12
g9
sa(dp258
g6
VFor who?
p259
sg8
g9
sg10
VC.J.
p260
sg12
g9
sa(dp261
g6
VGacey, I think. Um...
p262
sg8
g9
sg10
VCAROL
p263
sg12
g9
sa(dp264
g6
VAll right, let's see if we can get Gretchen in front of the Times and...
p265
sg8
g9
sg10
VC.J.
p266
sg12
g9
sa(dp267
g6
VThe HHS...
p268
sg8
g9
sg10
VCAROL
p269
sg12
g9
sa(dp270
g6
VWait a second. Rittenhouse and Gacey?
p271
sg8
g9
sg10
VC.J.
p272
sg12
g9
sa(dp273
g6
VYeah.
p274
sg8
g9
sg10
VCAROL
p275
sg12
g9
sa(dp276
g6
VIt's the tax plan. Josh!
p277
sg8
g133
sg10
VC.J.
p278
sg12
g9
sa(dp279
g6
V[to Josh] Rittenhouse and Gacey just booked the Sunday shows. [to Carol] We need to see the President.
p280
sg8
g9
sg10
VC.J.
p281
sg12
g9
sa(dp282
g6
VRight. On the other hand, 20% of your youth is unemployed. They're just living to live.
p283
sg8
g9
sg10
VBARTLET
p284
sg12
g9
sa(dp285
g6
VYeah, it helps when someone else is picking up the bigger ticket items like a national defense.
p286
sg8
g31
sg10
VBARTLET
p287
sg12
g9
sa(dp288
g6
VI love seeing my two men sparring.
p289
sg8
g31
sg10
VZOEY
p290
sg12
g9
sa(dp291
g6
VI'm sorry?
p292
sg8
g9
sg10
VBARTLET
p293
sg12
g9
sa(dp294
g6
VExcellent.
p295
sg8
g9
sg10
VBARTLET
p296
sg12
g9
sa(dp297
g6
VSir?
p298
sg8
g9
sg10
VCHARLIE
p299
sg12
g9
sa(dp300
g6
VYes, absolutely, send them in.
p301
sg8
g9
sg10
VBARTLET
p302
sg12
g9
sa(dp303
g6
VYeah, whatever, hang on a second. [to Josh] What do you need?
p304
sg8
g9
sg10
VBARTLET
p305
sg12
g9
sa(dp306
g6
VSir, we didn't know you were busy; we'll wait outside.
p307
sg8
g133
sg10
VJOSH
p308
sg12
g9
sa(dp309
g6
VNo, that's all right. What do you need?
p310
sg8
g9
sg10
VBARTLET
p311
sg12
g9
sa(dp312
g6
VThe three of you should bond.
p313
sg8
g9
sg10
VJOSH
p314
sg12
g9
sa(dp315
g6
VCome here.
p316
sg8
g9
sg10
VBARTLET
p317
sg12
g133
sa(dp318
g6
VIf you leave, I'll kill you.
p319
sg8
g133
sg10
VBARTLET
p320
sg12
g9
sa(dp321
g6
VYes, sir.
p322
sg8
g31
sg10
VJOSH
p323
sg12
g31
sa(dp324
g6
VI'm sorry, Jean-Paul, I'll have to cut it short. Josh has gotten himself in a jam. But I'll see you on the plane tonight, and I'll look forward to continue the discussion on, you know, what's wrong with me.
p325
sg8
g31
sg10
VBARTLET
p326
sg12
g9
sa(dp327
g6
VBye dad. See you guys.
p328
sg8
g9
sg10
VZOEY
p329
sg12
g31
sa(dp330
g6
VWhat?
p331
sg8
g9
sg10
VBARTLET
p332
sg12
g9
sa(dp333
g6
VThe chair of House Ways and Means and Senate Finance are doing the Sunday shows.
p334
sg8
g9
sg10
VC.J.
p335
sg12
g9
sa(dp336
g6
VYou think the Republicans are rolling out their tax plan?
p337
sg8
g133
sg10
VBARTLET
p338
sg12
g9
sa(dp339
g6
VI do.
p340
sg8
g9
sg10
VC.J.
p341
sg12
g9
sa(dp342
g6
VThank God.
p343
sg8
g9
sg10
VBARTLET
p344
sg12
g9
sa(dp345
g6
VWhy?
p346
sg8
g9
sg10
VC.J.
p347
sg12
g9
sa(dp348
g6
V'Cause we can roll out ours and I don't have to sit through another seven scoring meetings.
p349
sg8
g9
sg10
VBARTLET
p350
sg12
g9
sa(dp351
g6
VBut it means they're going to announce their tax plan this afternoon or this evening. That's tomorrow and Sunday before we respond.
p352
sg8
g133
sg10
VJOSH
p353
sg12
g9
sa(dp354
g6
VWhy not respond Saturday or Sunday? Better yet, let's go first. Call the press in, and I'll do it right now.
p355
sg8
g9
sg10
VBARTLET
p356
sg12
g9
sa(dp357
g6
VIt's not ready yet. It's still being scored.
p358
sg8
g9
sg10
VJOSH
p359
sg12
g9
sa(dp360
g6
VToby?
p361
sg8
g9
sg10
VBARTLET
p362
sg12
g9
sa(dp363
g6
VI don't like that French kid very much.
p364
sg8
g9
sg10
VTOBY
p365
sg12
g9
sa(dp366
g6
VIt'll be ready tomorrow?
p367
sg8
g9
sg10
VBARTLET
p368
sg12
g9
sa(dp369
g6
VYes.
p370
sg8
g9
sg10
VTOBY
p371
sg12
g31
sa(dp372
g6
VI say we respond to theirs with ours, but we do it tomorrow or Sunday.
p373
sg8
g9
sg10
VBARTLET
p374
sg12
g9
sa(dp375
g6
VYou'd be announcing a one-percent tax increase on the richest one percent and doing it in Orange County.
p376
sg8
g9
sg10
VTOBY
p377
sg12
g9
sa(dp378
g6
VThen that's where we do it.
p379
sg8
g9
sg10
VBARTLET
p380
sg12
g9
sa(dp381
g6
VExcept, Mr. President, it'll kill Sam. It'll kill him in the 47th. It may be seen as gutsy by the rest of the country, but you'll kill Sam's campaign.
p382
sg8
g133
sg10
VWILL
p383
sg12
g9
sa(dp384
g6
VWhich is why I think we should cancel the trip.
p385
sg8
g133
sg10
VJOSH
p386
sg12
g9
sa(dp387
g6
VAnd announce from the White House.
p388
sg8
g9
sg10
VBARTLET
p389
sg12
g9
sa(dp390
g6
VYes, sir.
p391
sg8
g31
sg10
VJOSH
p392
sg12
g31
sa(dp393
g6
VWon't the White House canceling the trip be taken as a signal that we've given up on the 47th?
p394
sg8
g9
sg10
VC.J.
p395
sg12
g9
sa(dp396
g6
VYes.
p397
sg8
g9
sg10
VWILL
p398
sg12
g31
sa(dp399
g6
VAnd do equal damage to the campaign?
p400
sg8
g133
sg10
VC.J.
p401
sg12
g9
sa(dp402
g6
VYeah.
p403
sg8
g9
sg10
VWILL
p404
sg12
g9
sa(dp405
g6
VYou want to go to Orange County?
p406
sg8
g9
sg10
VJOSH
p407
sg12
g9
sa(dp408
g6
VI think we have to go. [to Bartlet] Even though there's $1,300 with your name on it if you don't make me go with you.
p409
sg8
g9
sg10
VC.J.
p410
sg12
g9
sa(dp411
g6
VGet over the dress, would you?
p412
sg8
g9
sg10
VTOBY
p413
sg12
g9
sa(dp414
g6
VIt was a suit and they hit me with an avocado.
p415
sg8
g133
sg10
VC.J.
p416
sg12
g9
sa(dp417
g6
VIt could've been worse.
p418
sg8
g133
sg10
VTOBY
p419
sg12
g9
sa(dp420
g6
VHow?
p421
sg8
g9
sg10
VC.J.
p422
sg12
g9
sa(dp423
g6
VThey could have hit me.
p424
sg8
g133
sg10
VTOBY
p425
sg12
g133
sa(dp426
g6
VSir, the first 24 hours of the cycle are critical. We can't fight something with nothing and that's what we'll have for 48 hours after they announce if we don't announce too.
p427
sg8
g133
sg10
VC.J.
p428
sg12
g9
sa(dp429
g6
VThat's a killer decision. But let's lean towards Sam and say we keep our mouths shut in California and then come out fighting Monday morning.
p430
sg8
g133
sg10
VBARTLET
p431
sg12
g9
sa(dp432
g6
VThank you, Mr. President.
p433
sg8
g9
sg10
VJOSH
p434
sg12
g31
sa(dp435
g6
V[to Toby] I'm going to go pack 38 sets of clothes now for two days. [leaves]
p436
sg8
g9
sg10
VC.J.
p437
sg12
g9
sa(dp438
g6
VWill?
p439
sg8
g9
sg10
VTOBY
p440
sg12
g9
sa(dp441
g6
VYeah?
p442
sg8
g9
sg10
VWILL
p443
sg12
g9
sa(dp444
g6
VEvery speech the President gives on Tuesday has to be about the Democratic tax plan. How many public remarks is he making on Tuesday?
p445
sg8
g31
sg10
VTOBY
p446
sg12
g9
sa(dp447
g6
VNine.
p448
sg8
g9
sg10
VWILL
p449
sg12
g9
sa(dp450
g6
VPlus we need speech inserts for the Cabinet.
p451
sg8
g31
sg10
VTOBY
p452
sg12
g9
sa(dp453
g6
VI can get it done by Tuesday.
p454
sg8
g9
sg10
VWILL
p455
sg12
g9
sa(dp456
g6
VYes, you can, because you're going to use the staff to help you.
p457
sg8
g9
sg10
VTOBY
p458
sg12
g9
sa(dp459
g6
VWhich staff?
p460
sg8
g9
sg10
VWILL
p461
sg12
g9
sa(dp462
g6
VYour staff-- the White House speechwriting staff. Your staff. You will tell them what you need. You will expect it. You will tell them how they can do better, and they will do it.
p463
sg8
g31
sg10
VTOBY
p464
sg12
g9
sa(dp465
g6
VYes.
p466
sg8
g9
sg10
VWILL
p467
sg12
g31
sa(dp468
g6
VYes.
p469
sg8
g9
sg10
VTOBY
p470
sg12
g31
sa(dp471
g6
VIn theory.
p472
sg8
g9
sg10
VWILL
p473
sg12
g9
sa(dp474
g6
VYes.
p475
sg8
g9
sg10
VTOBY
p476
sg12
g31
sa(dp477
g6
VOn paper, your plan is very sound.
p478
sg8
g9
sg10
VWILL
p479
sg12
g9
sa(dp480
g6
VBut in reality?
p481
sg8
g9
sg10
VTOBY
p482
sg12
g9
sa(dp483
g6
VI don't think they like me very much.
p484
sg8
g9
sg10
VWILL
p485
sg12
g133
sa(dp486
g6
VNo, no, no, they don't like you at all.
p487
sg8
g9
sg10
VTOBY
p488
sg12
g9
sa(dp489
g6
VWhy? Why, oh, why is that true? What have I done?
p490
sg8
g31
sg10
VWILL
p491
sg12
g9
sa(dp492
g6
VDon't know; more to the point, I don't care.
p493
sg8
g9
sg10
VTOBY
p494
sg12
g9
sa(dp495
g6
VI made Rice Krispies Treats.
p496
sg8
g9
sg10
VWILL
p497
sg12
g9
sa(dp498
g6
VThey've been working for the President forever. You've been here three minutes, and he made you a deputy. They have whiplash.
p499
sg8
g31
sg10
VTOBY
p500
sg12
g9
sa(dp501
g6
VAnd understanding that, I brought in Rice Krispies Treats.
p502
sg8
g31
sg10
VWILL
p503
sg12
g9
sa(dp504
g6
VAnd I'm surprised they haven't come around yet.
p505
sg8
g9
sg10
VTOBY
p506
sg12
g9
sa(dp507
g6
VI can get it done myself.
p508
sg8
g9
sg10
VWILL
p509
sg12
g9
sa(dp510
g6
VListen to me. Many of these are the lowest possible priority remarks. There are more valuable places for your time. Now instruct your staff.
p511
sg8
g31
sg10
VTOBY
p512
sg12
g9
sa(dp513
g6
VYes.
p514
sg8
g9
sg10
VWILL
p515
sg12
g31
sa(dp516
g6
VExcuse me, Ginger?
p517
sg8
g9
sg10
VWILL
p518
sg12
g9
sa(dp519
g6
VYes?
p520
sg8
g9
sg10
VGINGER
p521
sg12
g31
sa(dp522
g6
VAre you, by any chance, on my staff?
p523
sg8
g9
sg10
VWILL
p524
sg12
g9
sa(dp525
g6
VI'm one of your staff assistants.
p526
sg8
g9
sg10
VGINGER
p527
sg12
g9
sa(dp528
g6
VGreat. Would you call a meeting of the speechwriting staff for this evening?
p529
sg8
g9
sg10
VWILL
p530
sg12
g9
sa(dp531
g6
VAre you going to be there?
p532
sg8
g9
sg10
VGINGER
p533
sg12
g9
sa(dp534
g6
VYeah... yes! Yes, the meetings with me.
p535
sg8
g9
sg10
VWILL
p536
sg12
g9
sa(dp537
g6
VYes, sir.
p538
sg8
g31
sg10
VGINGER
p539
sg12
g31
sa(dp540
g6
VThanks.
p541
sg8
g9
sg10
VWILL
p542
sg12
g9
sa(dp543
g6
V[on phone] Hello?
p544
sg8
g9
sg10
VSAM
p545
sg12
g9
sa(dp546
g6
VHey, it's Will.
p547
sg8
g9
sg10
VWILL
p548
sg12
g9
sa(dp549
g6
VHow you doing?
p550
sg8
g9
sg10
VSAM
p551
sg12
g31
sa(dp552
g6
VWhy did you cancel the Teamsters?
p553
sg8
g133
sg10
VWILL
p554
sg12
g9
sa(dp555
g6
VScott thought we should be at the Manufacturing Association breakfast.
p556
sg8
g31
sg10
VSAM
p557
sg12
g9
sa(dp558
g6
VI don't think that was very smart.
p559
sg8
g9
sg10
VWILL
p560
sg12
g9
sa(dp561
g6
V[to Scott] Hey, Scott, Will says he doesn't think you're very smart.
p562
sg8
g9
sg10
VSAM
p563
sg12
g9
sa(dp564
g6
VI said it wasn't smart.
p565
sg8
g9
sg10
VWILL
p566
sg12
g9
sa(dp567
g6
VWhat do you need?
p568
sg8
g9
sg10
VSAM
p569
sg12
g9
sa(dp570
g6
VI'm just calling to say hi.
p571
sg8
g9
sg10
VWILL
p572
sg12
g9
sa(dp573
g6
VReally?
p574
sg8
g9
sg10
VSAM
p575
sg12
g9
sa(dp576
g6
VHow do I get the speechwriting staff to like me?
p577
sg8
g9
sg10
VWILL
p578
sg12
g9
sa(dp579
g6
VI don't know, but when you do, why don't you tell me how you did it?
p580
sg8
g9
sg10
VSAM
p581
sg12
g9
sa(dp582
g6
VThey didn't get along with you?
p583
sg8
g9
sg10
VWILL
p584
sg12
g31
sa(dp585
g6
VYou're going to have some new staffers in there.
p586
sg8
g9
sg10
VSAM
p587
sg12
g9
sa(dp588
g6
VYeah, but the problem is they're a lot of remarks we have to get ready for Monday.
p589
sg8
g133
sg10
VWILL
p590
sg12
g9
sa(dp591
g6
VWhat's going on Monday?
p592
sg8
g9
sg10
VSAM
p593
sg12
g9
sa(dp594
g6
V[beat] The environment. It's a whole thing about the environment.
p595
sg8
g9
sg10
VWILL
p596
sg12
g9
sa(dp597
g6
V[to Will] Got to go.
p598
sg8
g9
sg10
VSAM
p599
sg12
g9
sa(dp600
g6
VOkay.
p601
sg8
g9
sg10
VWILL
p602
sg12
g9
sa(dp603
g6
V[to Scott] He was wondering why we canceled the Teamsters.
p604
sg8
g9
sg10
VSAM
p605
sg12
g9
sa(dp606
g6
VI'm going to need to work hard to avoid that appearance?
p607
sg8
g133
sg10
VSAM
p608
sg12
g9
sa(dp609
g6
VYeah, you are.
p610
sg8
g9
sg10
VSCOTT
p611
sg12
g9
sa(dp612
g6
VWell, let me ask you, what do we have planned that might be mistaken...
p613
sg8
g133
sg10
VSAM
p614
sg12
g9
sa(dp615
g6
VYou stand next to him, you're aid-de-camp. You're a waterboy.
p616
sg8
g9
sg10
VSCOTT
p617
sg12
g9
sa(dp618
g6
VDid you not think I knew what he meant?
p619
sg8
g9
sg10
VSAM
p620
sg12
g9
sa(dp621
g6
VThis went fast in an ugly directon. The better point is people need to know you're independent.
p622
sg8
g133
sg10
VSCOTT
p623
sg12
g9
sa(dp624
g6
VWell, I have a good feeling about this trip already.
p625
sg8
g31
sg10
VSAM
p626
sg12
g9
sa(dp627
g6
VHe's going to go out of his mind.
p628
sg8
g9
sg10
VLARRY
p629
sg12
g9
sa(dp630
g6
VI'm going to go with him.
p631
sg8
g9
sg10
VTOBY
p632
sg12
g9
sa(dp633
g6
VIsn't that worse then we thought it was going to be?
p634
sg8
g133
sg10
VED
p635
sg12
g9
sa(dp636
g6
VIt is.
p637
sg8
g9
sg10
VDONNA
p638
sg12
g133
sa(dp639
g6
VWe though it was going to be...
p640
sg8
g9
sg10
VTOBY
p641
sg12
g9
sa(dp642
g6
VThey did 15 across the board. That's what it sounds like, but I haven't look at anything yet.
p643
sg8
g9
sg10
VLARRY
p644
sg12
g9
sa(dp645
g6
VPlus capital gains.
p646
sg8
g9
sg10
VED
p647
sg12
g9
sa(dp648
g6
VThat's what I thought we were talking about. I didn't even realize the 15%.
p649
sg8
g9
sg10
VTOBY
p650
sg12
g9
sa(dp651
g6
VDid you just see that?
p652
sg8
g9
sg10
VANDY
p653
sg12
g31
sa(dp654
g6
VOh, my God. Have you been on the plane the whole time?
p655
sg8
g9
sg10
VTOBY
p656
sg12
g9
sa(dp657
g6
VNo, I hopped on board when you guys were over the Great Lakes! What the hell...?
p658
sg8
g133
sg10
VANDY
p659
sg12
g9
sa(dp660
g6
VWhat are you doing here?
p661
sg8
g9
sg10
VTOBY
p662
sg12
g9
sa(dp663
g6
VI told you I was coming.
p664
sg8
g9
sg10
VANDY
p665
sg12
g9
sa(dp666
g6
VAnd I told you you couldn't fly.
p667
sg8
g9
sg10
VTOBY
p668
sg12
g31
sa(dp669
g6
VAnd Dr. Salmi said I could fly through the 32nd week, and I thought since he's my doctor, and you're really dumb, I'd join the Congressional delegation and help out Sam. Isn't it great?
p670
sg8
g31
sg10
VANDY
p671
sg12
g9
sa(dp672
g6
VListen to me. We've got all kinds of atmospheric cabin pressure up here. We're a little late, so the Colonel's put the hammer down in a 747. You've got windshear, downdraft, massive turbulence, not to mention four giant engines burning jet fuel at galactic temperatures. We're standing in a flying death tube!
p673
sg8
g133
sg10
VTOBY
p674
sg12
g9
sa(dp675
g6
VNo, not the rest of y-you. It's just my family. It's, it's fine. [to Andy] Look...
p676
sg8
g31
sg10
VTOBY
p677
sg12
g9
sa(dp678
g6
VWhat do you want me to do, step off?
p679
sg8
g9
sg10
VANDY
p680
sg12
g9
sa(dp681
g6
VAlso, you've got twins in there. You're basically a minivan. How are you fitting into a seat?
p682
sg8
g31
sg10
VTOBY
p683
sg12
g9
sa(dp684
g6
V[to Donna] Ah-ah! I saw him first girls.
p685
sg8
g9
sg10
VANDY
p686
sg12
g9
sa(dp687
g6
VJosh.
p688
sg8
g9
sg10
VDONNA
p689
sg12
g9
sa(dp690
g6
VYeah?
p691
sg8
g9
sg10
VJOSH
p692
sg12
g9
sa(dp693
g6
VI checked the voicemail at the office, and there were a couple of messages from a man named Ivan Perez of the California Agricultural Laborers Association.
p694
sg8
g9
sg10
VDONNA
p695
sg12
g9
sa(dp696
g6
VSay that again.
p697
sg8
g9
sg10
VJOSH
p698
sg12
g31
sa(dp699
g6
VThe California Agricultural Laborers Association. He's staying in our hotel and he wants to know if he can get five minutes.
p700
sg8
g9
sg10
VDONNA
p701
sg12
g9
sa(dp702
g6
VI don't know. I don't know him. Find out if he's for real before I meet with him.
p703
sg8
g31
sg10
VJOSH
p704
sg12
g9
sa(dp705
g6
VHow?
p706
sg8
g9
sg10
VDONNA
p707
sg12
g9
sa(dp708
g6
VYou meet with him.
p709
sg8
g9
sg10
VJOSH
p710
sg12
g9
sa(dp711
g6
VWhat litmus test would you like me to use?
p712
sg8
g9
sg10
VDONNA
p713
sg12
g9
sa(dp714
g6
VWell, to begin with, is he wearing shoes and shirt?
p715
sg8
g9
sg10
VJOSH
p716
sg12
g9
sa(dp717
g6
VSay he is.
p718
sg8
g9
sg10
VDONNA
p719
sg12
g31
sa(dp720
g6
VAsk him what he thinks of Richard Sutter. He's an Assemblyman who proposed the Foreign Labor... It doesn't matter. If he doesn't have a strong opinion on Sutter, he doesn't play at your level.
p721
sg8
g31
sg10
VJOSH
p722
sg12
g9
sa(dp723
g6
VI have a level?
p724
sg8
g31
sg10
VDONNA
p725
sg12
g9
sa(dp726
g6
VYou do. It's not a lot to speak of, but you know, no shoes no shirt, I'm sorry, but you draw the line.
p727
sg8
g9
sg10
VJOSH
p728
sg12
g9
sa(dp729
g6
VRichard Sutter.
p730
sg8
g9
sg10
VDONNA
p731
sg12
g9
sa(dp732
g6
VAn Assemblyman.
p733
sg8
g9
sg10
VJOSH
p734
sg12
g9
sa(dp735
g6
VWe've begun spreading our magic already.
p736
sg8
g9
sg10
VC.J.
p737
sg12
g9
sa(dp738
g6
VWhat happened?
p739
sg8
g9
sg10
VJOSH
p740
sg12
g9
sa(dp741
g6
VSome wires got crossed between the Advance and Airlift Operations and CHP on the ground. They didn't get the word until late that take-off had been delayed and they also thought we were coming into SNA and not Los Alamitos.
p742
sg8
g133
sg10
VC.J.
p743
sg12
g9
sa(dp744
g6
VThe result being?
p745
sg8
g9
sg10
VJOSH
p746
sg12
g9
sa(dp747
g6
VInterstate 5 has been shut down for an hour and a half.
p748
sg8
g9
sg10
VC.J.
p749
sg12
g9
sa(dp750
g6
VIs that a freeway that gets used a lot?
p751
sg8
g9
sg10
VJOSH
p752
sg12
g9
sa(dp753
g6
VNot for the last hour and a half, no.
p754
sg8
g9
sg10
VC.J.
p755
sg12
g9
sa(dp756
g6
VAll right, has the President seen any of the news on the Republican tax cut?
p757
sg8
g133
sg10
VJOSH
p758
sg12
g9
sa(dp759
g6
VNo response from the White House?
p760
sg8
g9
sg10
VBARTLET
p761
sg12
g9
sa(dp762
g6
V[blows raspberry] There's my response.
p763
sg8
g9
sg10
VBARTLET
p764
sg12
g9
sa(dp765
g6
VPlus, it's worse than we thought.
p766
sg8
g133
sg10
VLARRY
p767
sg12
g9
sa(dp768
g6
VIt is.
p769
sg8
g9
sg10
VED
p770
sg12
g133
sa(dp771
g6
V[to Ed] Sing it, Larry.
p772
sg8
g9
sg10
VBARTLET
p773
sg12
g9
sa(dp774
g6
VEd.
p775
sg8
g9
sg10
VED
p776
sg12
g9
sa(dp777
g6
V15% cut across the board? Cutting capital gains 50%!
p778
sg8
g9
sg10
VBARTLET
p779
sg12
g9
sa(dp780
g6
VAnd they said it would cost $800 billion.
p781
sg8
g9
sg10
VTOBY
p782
sg12
g9
sa(dp783
g6
VAnd it's actually going to cost?
p784
sg8
g9
sg10
VBARTLET
p785
sg12
g9
sa(dp786
g6
V$1.2 trillion.
p787
sg8
g9
sg10
VJOSH
p788
sg12
g9
sa(dp789
g6
VI'm not an economist, but no... Wait, I am an economist. So, their plan will do what, C.J.?
p790
sg8
g9
sg10
VBARTLET
p791
sg12
g9
sa(dp792
g6
VExplode...
p793
sg8
g9
sg10
VC.J.
p794
sg12
g9
sa(dp795
g6
VExplode the deficit. Will it stimulate the economy, Josh?
p796
sg8
g133
sg10
VBARTLET
p797
sg12
g9
sa(dp798
g6
VIt will stimulate the Swiss economy.
p799
sg8
g9
sg10
VJOSH
p800
sg12
g9
sa(dp801
g6
VJosh gets extra credit for being funny and right at the same time, and how long do I have to stay quiet, Toby?
p802
sg8
g31
sg10
VBARTLET
p803
sg12
g9
sa(dp804
g6
VYou're the leader of the free world, sir. You can speak anytime you like.
p805
sg8
g31
sg10
VTOBY
p806
sg12
g9
sa(dp807
g6
VAnd not kill Sam?
p808
sg8
g133
sg10
VBARTLET
p809
sg12
g9
sa(dp810
g6
VNo, for that you got to shut up for 50 hours.
p811
sg8
g9
sg10
VTOBY
p812
sg12
g9
sa(dp813
g6
VAnd so I shall.
p814
sg8
g9
sg10
VBARTLET
p815
sg12
g9
sa(dp816
g6
VYou wanted to see me?
p817
sg8
g9
sg10
VELSIE
p818
sg12
g9
sa(dp819
g6
VWhat are you doing right now?
p820
sg8
g9
sg10
VWILL
p821
sg12
g9
sa(dp822
g6
VSome remarks for the First Lady. It's Convocation for the Estonian-American Women in the Arts Week.
p823
sg8
g9
sg10
VELSIE
p824
sg12
g9
sa(dp825
g6
VIs this a joke?
p826
sg8
g133
sg10
VWILL
p827
sg12
g133
sa(dp828
g6
VNo.
p829
sg8
g9
sg10
VELSIE
p830
sg12
g9
sa(dp831
g6
VHow many Estonian-American women are there in the arts?
p832
sg8
g9
sg10
VWILL
p833
sg12
g9
sa(dp834
g6
VI don't know.
p835
sg8
g9
sg10
VELSIE
p836
sg12
g9
sa(dp837
g6
VWhen are you going to be done?
p838
sg8
g9
sg10
VWILL
p839
sg12
g9
sa(dp840
g6
VTonight.
p841
sg8
g9
sg10
VELSIE
p842
sg12
g9
sa(dp843
g6
VOkay, I need you the rest of the weekend.
p844
sg8
g31
sg10
VWILL
p845
sg12
g9
sa(dp846
g6
VYou've got a staff.
p847
sg8
g9
sg10
VELSIE
p848
sg12
g9
sa(dp849
g6
VThey don't like me.
p850
sg8
g9
sg10
VWILL
p851
sg12
g9
sa(dp852
g6
VThe Rice Krispie Treats?
p853
sg8
g9
sg10
VELSIE
p854
sg12
g9
sa(dp855
g6
VDid not do the job.
p856
sg8
g31
sg10
VWILL
p857
sg12
g9
sa(dp858
g6
VThey work for you.
p859
sg8
g9
sg10
VELSIE
p860
sg12
g9
sa(dp861
g6
VTry telling them that.
p862
sg8
g9
sg10
VWILL
p863
sg12
g9
sa(dp864
g6
VHave you tried telling them that?
p865
sg8
g9
sg10
VELSIE
p866
sg12
g9
sa(dp867
g6
VNo.
p868
sg8
g9
sg10
VWILL
p869
sg12
g9
sa(dp870
g6
VWhy?
p871
sg8
g9
sg10
VELSIE
p872
sg12
g9
sa(dp873
g6
V'Cause these are hard-boiled men, some of whom have known the President since seventh grade and some of whom still write like they were there.
p874
sg8
g9
sg10
VWILL
p875
sg12
g9
sa(dp876
g6
VAnd they're hard-boiled?
p877
sg8
g9
sg10
VELSIE
p878
sg12
g133
sa(dp879
g6
VYeah. You know we took Bitanga Airport this morning?
p880
sg8
g9
sg10
VWILL
p881
sg12
g9
sa(dp882
g6
VYou think we don't watch the news down there?
p883
sg8
g9
sg10
VELSIE
p884
sg12
g9
sa(dp885
g6
VI'm just saying.
p886
sg8
g9
sg10
VWILL
p887
sg12
g9
sa(dp888
g6
VYou think the President took Bitanga 'cause you told him to?
p889
sg8
g9
sg10
VELSIE
p890
sg12
g9
sa(dp891
g6
VHe hasn't taken Bitanga, just the airport, and no, I'm just saying. You know...
p892
sg8
g9
sg10
VWILL
p893
sg12
g9
sa(dp894
g6
VYeah.
p895
sg8
g9
sg10
VELSIE
p896
sg12
g9
sa(dp897
g6
VThings happen fast.
p898
sg8
g9
sg10
VWILL
p899
sg12
g9
sa(dp900
g6
VYeah.
p901
sg8
g9
sg10
VELSIE
p902
sg12
g9
sa(dp903
g6
VHe's not in...
p904
sg8
g9
sg10
VLEO
p905
sg12
g9
sa(dp906
g6
VNzele's demanding...
p907
sg8
g133
sg10
VROBBIE
p908
sg12
g9
sa(dp909
g6
VHe's not in a position to be demanding anything.
p910
sg8
g133
sg10
VLEO
p911
sg12
g9
sa(dp912
g6
VNonetheless, he's demanding that American troops leave Bitanga immediately.
p913
sg8
g133
sg10
VROBBIE
p914
sg12
g9
sa(dp915
g6
VAnd?
p916
sg8
g9
sg10
VLEO
p917
sg12
g9
sa(dp918
g6
VAnd he'll continue the peace talks among the African countries.
p919
sg8
g31
sg10
VTHOMAS
p920
sg12
g9
sa(dp921
g6
VNo.
p922
sg8
g9
sg10
VLEO
p923
sg12
g9
sa(dp924
g6
VLeo, Nzele is a sadistic madman. This can't possibly be argued. But he's not a stupid man, and he knows where CNN is on his television. He's betting the first dead American soldier on television and you lose.
p925
sg8
g133
sg10
VTHOMAS
p926
sg12
g9
sa(dp927
g6
VOur stomach for it?
p928
sg8
g9
sg10
VLEO
p929
sg12
g9
sa(dp930
g6
VYes.
p931
sg8
g9
sg10
VTHOMAS
p932
sg12
g31
sa(dp933
g6
VThomas, Robbie-- you've got to find a way of getting word to Nzele that in 23 hours he's going to lose that bet.
p934
sg8
g9
sg10
VLEO
p935
sg12
g9
sa(dp936
g6
VHi.
p937
sg8
g9
sg10
VWILL
p938
sg12
g9
sa(dp939
g6
VUm, I'm WIll Bailey.
p940
sg8
g9
sg10
VWILL
p941
sg12
g9
sa(dp942
g6
VYes, sir. We're the interns for the speechwriting staff.
p943
sg8
g31
sg10
VCASSIE
p944
sg12
g9
sa(dp945
g6
VWhere are they?
p946
sg8
g9
sg10
VWILL
p947
sg12
g133
sa(dp948
g6
VWho?
p949
sg8
g9
sg10
VCASSIE
p950
sg12
g9
sa(dp951
g6
VThe speechwriting staff?
p952
sg8
g9
sg10
VWILL
p953
sg12
g9
sa(dp954
g6
VI'm not sure.
p955
sg8
g9
sg10
VCASSIE
p956
sg12
g133
sa(dp957
g6
VWhat's your name?
p958
sg8
g9
sg10
VWILL
p959
sg12
g9
sa(dp960
g6
VLauren, do me a favor. Can you find out where the staff is?
p961
sg8
g9
sg10
VWILL
p962
sg12
g9
sa(dp963
g6
VMr. Ziegler left a message that you should call him.
p964
sg8
g9
sg10
VCASSIE
p965
sg12
g9
sa(dp966
g6
VYou're Cassie.
p967
sg8
g9
sg10
VWILL
p968
sg12
g9
sa(dp969
g6
VCassie Tatum, and this is Lauren Shelby, Lauren Romano...
p970
sg8
g9
sg10
VCASSIE
p971
sg12
g133
sa(dp972
g6
VThree of you are named Lauren?
p973
sg8
g9
sg10
VWILL
p974
sg12
g9
sa(dp975
g6
VYes, sir.
p976
sg8
g31
sg10
VCASSIE
p977
sg12
g31
sa(dp978
g6
VLauren, Lauren, Cassie and Lauren.
p979
sg8
g9
sg10
VWILL
p980
sg12
g9
sa(dp981
g6
VYes, sir.
p982
sg8
g31
sg10
VALL
p983
sg12
g31
sa(dp984
g6
VAnd you don't know where the staff is, and Toby tells me to call him?
p985
sg8
g9
sg10
VWILL
p986
sg12
g9
sa(dp987
g6
VYes.
p988
sg8
g9
sg10
VCASSIE
p989
sg12
g31
sa(dp990
g6
VOkay, I'm just going to step in this office over here a moment.
p991
sg8
g9
sg10
VWILL
p992
sg12
g9
sa(dp993
g6
V[to interns] You're all pretty dressed up.
p994
sg8
g31
sg10
VWILL
p995
sg12
g9
sa(dp996
g6
VThere's an intern party tonight, but Mr. Ziegler told us to stay.
p997
sg8
g9
sg10
VCASSIE
p998
sg12
g9
sa(dp999
g6
V[to interns] Doesn't sound that good, does it? [into phone] Toby, it's Will.
p1000
sg8
g31
sg10
VWILL
p1001
sg12
g9
sa(dp1002
g6
V74 degrees in February. There's no civilization here.
p1003
sg8
g31
sg10
VTOBY
p1004
sg12
g9
sa(dp1005
g6
VWhere's the staff?
p1006
sg8
g9
sg10
VWILL
p1007
sg12
g9
sa(dp1008
g6
VHmm?
p1009
sg8
g9
sg10
VTOBY
p1010
sg12
g9
sa(dp1011
g6
VI was just starting the staff meeting, and there's no staff.
p1012
sg8
g9
sg10
VWILL
p1013
sg12
g9
sa(dp1014
g6
VYeah, I fired some of them.
p1015
sg8
g9
sg10
VTOBY
p1016
sg12
g9
sa(dp1017
g6
VHow many of them?
p1018
sg8
g9
sg10
VWILL
p1019
sg12
g9
sa(dp1020
g6
VAll of them.
p1021
sg8
g9
sg10
VTOBY
p1022
sg12
g9
sa(dp1023
g6
VYou fired the speechwriting staff?
p1024
sg8
g9
sg10
VWILL
p1025
sg12
g9
sa(dp1026
g6
VI was thinking about what you said this morning, and I think they have a bad attitude. Also, they're pretty bad at their jobs.
p1027
sg8
g133
sg10
VTOBY
p1028
sg12
g9
sa(dp1029
g6
VWhen are we going to have new speechwriters?
p1030
sg8
g9
sg10
VWILL
p1031
sg12
g9
sa(dp1032
g6
VJust as soon as you hire them.
p1033
sg8
g31
sg10
VTOBY
p1034
sg12
g9
sa(dp1035
g6
VAll right, I'll get it done myself.
p1036
sg8
g9
sg10
VWILL
p1037
sg12
g9
sa(dp1038
g6
VYou can't.
p1039
sg8
g9
sg10
VTOBY
p1040
sg12
g9
sa(dp1041
g6
VI can't?
p1042
sg8
g9
sg10
VWILL
p1043
sg12
g9
sa(dp1044
g6
VYou can't. That's why I left you a staff.
p1045
sg8
g9
sg10
VTOBY
p1046
sg12
g9
sa(dp1047
g6
VThe interns?
p1048
sg8
g9
sg10
VWILL
p1049
sg12
g9
sa(dp1050
g6
VTell them what you want, and then expect it.
p1051
sg8
g31
sg10
VTOBY
p1052
sg12
g9
sa(dp1053
g6
VThat isn't a staff, Toby. Those are the Robert Palmer girls.
p1054
sg8
g9
sg10
VWILL
p1055
sg12
g9
sa(dp1056
g6
VThey're bright young women. Show some leadership skills. Get it done. We're here. I'll call you in a little bit.
p1057
sg8
g31
sg10
VTOBY
p1058
sg12
g9
sa(dp1059
g6
VOkay. The speechwriting staff-- you didnt fire them, they quit, right?
p1060
sg8
g133
sg10
VWILL
p1061
sg12
g9
sa(dp1062
g6
VYeah.
p1063
sg8
g9
sg10
VTOBY
p1064
sg12
g9
sa(dp1065
g6
VBecause of me, right?
p1066
sg8
g9
sg10
VWILL
p1067
sg12
g9
sa(dp1068
g6
VYeah.
p1069
sg8
g9
sg10
VTOBY
p1070
sg12
g9
sa(dp1071
g6
VOkay, thanks.
p1072
sg8
g9
sg10
VWILL
p1073
sg12
g9
sa(dp1074
g6
VHi.
p1075
sg8
g9
sg10
VWILL
p1076
sg12
g9
sa(dp1077
g6
VI'm sorry.
p1078
sg8
g9
sg10
VC.J.
p1079
sg12
g9
sa(dp1080
g6
VDon't worry about it.
p1081
sg8
g133
sg10
VSAM
p1082
sg12
g9
sa(dp1083
g6
VHi.
p1084
sg8
g9
sg10
VC.J.
p1085
sg12
g9
sa(dp1086
g6
VToby!
p1087
sg8
g9
sg10
VSAM
p1088
sg12
g9
sa(dp1089
g6
VSorry about that.
p1090
sg8
g9
sg10
VTOBY
p1091
sg12
g9
sa(dp1092
g6
VDon't worry about it.
p1093
sg8
g133
sg10
VSAM
p1094
sg12
g9
sa(dp1095
g6
VDid we do much damage?
p1096
sg8
g133
sg10
VC.J.
p1097
sg12
g9
sa(dp1098
g6
VThey got a photograph of an American SUV with three kids in the back crying 'cause they were stuck getting home from Disney's California Adventure. Listen, I feel bad you made the trip now. Who knew the Republicans were going to announce? Plus, he's got to be distracted by Kuhndu.
p1099
sg8
g133
sg10
VSAM
p1100
sg12
g9
sa(dp1101
g6
VHe's fine.
p1102
sg8
g9
sg10
VC.J.
p1103
sg12
g9
sa(dp1104
g6
VMr. President?
p1105
sg8
g9
sg10
VC.J.
p1106
sg12
g9
sa(dp1107
g6
VMan, I'm sorry about this. [hugs Sam]
p1108
sg8
g9
sg10
VBARTLET
p1109
sg12
g9
sa(dp1110
g6
VThank you for coming. I was just saying you must be distracted by Kuhndu.
p1111
sg8
g133
sg10
VSAM
p1112
sg12
g9
sa(dp1113
g6
VThe French have denied us access to their airspace. I'm not sure why they think we're going to need it to get from here to Africa, but what the hell. This weekend's all about you. Get up there.
p1114
sg8
g133
sg10
VBARTLET
p1115
sg12
g9
sa(dp1116
g6
V[hands Bartlet a phone] It's Leo.
p1117
sg8
g9
sg10
VCHARLIE
p1118
sg12
g9
sa(dp1119
g6
VThis is going to be about France. Did we accidently trap people in a theme park?
p1120
sg8
g9
sg10
VBARTLET
p1121
sg12
g9
sa(dp1122
g6
VYes, sir.
p1123
sg8
g31
sg10
VCHARLIE
p1124
sg12
g31
sa(dp1125
g6
V[into phone] Yeah?
p1126
sg8
g9
sg10
VBARTLET
p1127
sg12
g9
sa(dp1128
g6
VThank you very much. Thank you. You've heard from a lot of people tonight and many of them were me. I'm happy to see that so many teachers here tonight brought students. The man that I worked for is not only a great President; he's an extraordinary role model. And someone you can honestly...
p1129
sg8
g31
sg10
VSAM
p1130
sg12
g9
sa(dp1131
g6
VLadies and gentlemen, the President of the United States.
p1132
sg8
g9
sg10
VSAM
p1133
sg12
g9
sa(dp1134
g6
VGood morning.
p1135
sg8
g9
sg10
VWILL
p1136
sg12
g9
sa(dp1137
g6
VGood morning.
p1138
sg8
g9
sg10
VALL
p1139
sg12
g9
sa(dp1140
g6
VThese are for you.
p1141
sg8
g9
sg10
VWILL
p1142
sg12
g9
sa(dp1143
g6
VYou want us to put them on?
p1144
sg8
g9
sg10
VCASSIE
p1145
sg12
g9
sa(dp1146
g6
VIt would move things along. You've met my sister Elsie?
p1147
sg8
g9
sg10
VWILL
p1148
sg12
g9
sa(dp1149
g6
VYeah.
p1150
sg8
g9
sg10
VALL
p1151
sg12
g9
sa(dp1152
g6
VYesterday afternoon, the Republican Leadership unveiled their tax plan. On Monday morning, we're going to unveil ours, which means that all public remarks coming from the White House have to be about the Democratic tax plan. So, I need you all to help to take prepared remarks, say about the canning of catfish, and make it about the tax plan. Number 60, what are you writing down?
p1153
sg8
g133
sg10
VWILL
p1154
sg12
g9
sa(dp1155
g6
VThat was just an espression.
p1156
sg8
g9
sg10
VWILL
p1157
sg12
g9
sa(dp1158
g6
VI never heard it.
p1159
sg8
g9
sg10
VROMANO
p1160
sg12
g9
sa(dp1161
g6
VI've never heard it either.
p1162
sg8
g9
sg10
VELSIE
p1163
sg12
g9
sa(dp1164
g6
VI just made it up. 21, What's a capital gain?
p1165
sg8
g31
sg10
VWILL
p1166
sg12
g9
sa(dp1167
g6
VRight, what do Republicans want, 48?
p1168
sg8
g9
sg10
VWILL
p1169
sg12
g9
sa(dp1170
g6
VRight. Plus, a 15% cut across the board, while our plan would raise taxes one percent on the richest one percent in the country. So, what can be said about the differences between the two?
p1171
sg8
g9
sg10
VWILL
p1172
sg12
g9
sa(dp1173
g6
VThey want to lower taxes and we want to raise them.
p1174
sg8
g133
sg10
VCASSIE
p1175
sg12
g9
sa(dp1176
g6
VWell, I wouldn't put it quite like that.
p1177
sg8
g9
sg10
VWILL
p1178
sg12
g9
sa(dp1179
g6
VYou just did.
p1180
sg8
g9
sg10
VCASSIE
p1181
sg12
g9
sa(dp1182
g6
VI'm saying when you write your remarks into the catfish canning remarks...
p1183
sg8
g9
sg10
VWILL
p1184
sg12
g9
sa(dp1185
g6
VWill, we're interns. Do you think we have clue as to how to write a tax policy speech?
p1186
sg8
g9
sg10
VCASSIE
p1187
sg12
g9
sa(dp1188
g6
VWell, I'm sure you had to write in college in the many, many government and poly-sci and economics classes you took while attending...?
p1189
sg8
g133
sg10
VWILL
p1190
sg12
g9
sa(dp1191
g6
VThe London School of Ballet.
p1192
sg8
g9
sg10
VCASSIE
p1193
sg12
g9
sa(dp1194
g6
VWhat the hell are you doing here?
p1195
sg8
g133
sg10
VWILL
p1196
sg12
g9
sa(dp1197
g6
VI'm changing directions.
p1198
sg8
g9
sg10
VCASSIE
p1199
sg12
g9
sa(dp1200
g6
V[into phone] Will Bailey.
p1201
sg8
g9
sg10
VWILL
p1202
sg12
g9
sa(dp1203
g6
VIt's me.
p1204
sg8
g9
sg10
VTOBY
p1205
sg12
g9
sa(dp1206
g6
VWhat the hell happened last night?
p1207
sg8
g133
sg10
VWILL
p1208
sg12
g9
sa(dp1209
g6
VWe got off to a rough start.
p1210
sg8
g9
sg10
VTOBY
p1211
sg12
g9
sa(dp1212
g6
VI'd really like a chance to talk to Scott Holcomb.
p1213
sg8
g31
sg10
VWILL
p1214
sg12
g9
sa(dp1215
g6
VDon't worry about the campaign.
p1216
sg8
g133
sg10
VTOBY
p1217
sg12
g9
sa(dp1218
g6
VI think he's blowing the work we did down there.
p1219
sg8
g9
sg10
VWILL
p1220
sg12
g9
sa(dp1221
g6
VDon't worry about it. How are the remarks coming?
p1222
sg8
g133
sg10
VTOBY
p1223
sg12
g9
sa(dp1224
g6
VUh, great. These guys are pros. [to Elsie] Elsie, what are you doing?
p1225
sg8
g9
sg10
VWILL
p1226
sg12
g9
sa(dp1227
g6
VI'm erasing "canning of catfish."
p1228
sg8
g9
sg10
VELSIE
p1229
sg12
g9
sa(dp1230
g6
V[into phone] Okay, got to go.
p1231
sg8
g9
sg10
VWILL
p1232
sg12
g9
sa(dp1233
g6
VWell, there are some nice shots of you and the President, but the one you're going to see a lot of is you kissing a liberal, pregnant, unwed congresswoman.
p1234
sg8
g9
sg10
VC.J.
p1235
sg12
g9
sa(dp1236
g6
VYeah.
p1237
sg8
g9
sg10
VSAM
p1238
sg12
g9
sa(dp1239
g6
VKissing her where?
p1240
sg8
g9
sg10
VTOBY
p1241
sg12
g9
sa(dp1242
g6
VThe Journal's attacking him for campaigning at the same time he's sending troops overseas.
p1243
sg8
g133
sg10
VJOSH
p1244
sg12
g9
sa(dp1245
g6
VWhat the Register and Daily Pilot term "insulting remarks" at the school have made their special pull-out section.
p1246
sg8
g9
sg10
VSAM
p1247
sg12
g9
sa(dp1248
g6
VThey minded he insulted the French?
p1249
sg8
g9
sg10
VTOBY
p1250
sg12
g9
sa(dp1251
g6
VOr "poncy hairdressers," it's not clear...
p1252
sg8
g9
sg10
VC.J.
p1253
sg12
g9
sa(dp1254
g6
VYeah, but he also mentioned vouchers, closing the 5, 405 and the 55 didn't play well. And because he was late he couldn't see off a battalion leaving from Miramar, flights out of John Wayne were held on the ground and of course, children crying at the "Pirates of the Carribean," and it's still 6:30 in the morning.
p1255
sg8
g133
sg10
VSAM
p1256
sg12
g9
sa(dp1257
g6
VSo, you'd rate the trip so far, what, B, B-minus? C-minus? We'll get it together.
p1258
sg8
g9
sg10
VC.J.
p1259
sg12
g9
sa(dp1260
g6
VI have no idea what makes me say this, but it's good to see you. I have a strategy breakfast.
p1261
sg8
g31
sg10
VSAM
p1262
sg12
g9
sa(dp1263
g6
VYou want me to come?
p1264
sg8
g9
sg10
VJOSH
p1265
sg12
g9
sa(dp1266
g6
VThat's okay.
p1267
sg8
g9
sg10
VSAM
p1268
sg12
g9
sa(dp1269
g6
VLet him come, Sam.
p1270
sg8
g9
sg10
VTOBY
p1271
sg12
g9
sa(dp1272
g6
VYeah, well, you know, the thing is Scott Holcomb and Josh.
p1273
sg8
g9
sg10
VSAM
p1274
sg12
g9
sa(dp1275
g6
VOh, come on.
p1276
sg8
g9
sg10
VJOSH
p1277
sg12
g9
sa(dp1278
g6
VI think Holcomb's been making bad mistakes with you, Sam. I think Josh's been right.
p1279
sg8
g133
sg10
VC.J.
p1280
sg12
g9
sa(dp1281
g6
VI know Josh has been right and if you think that's easy for me to say...
p1282
sg8
g9
sg10
VTOBY
p1283
sg12
g9
sa(dp1284
g6
VHe's got you with business.
p1285
sg8
g9
sg10
VJOSH
p1286
sg12
g9
sa(dp1287
g6
VHe says it's how a Democrat wins Orange County.
p1288
sg8
g9
sg10
VSAM
p1289
sg12
g9
sa(dp1290
g6
VHas a Democrat ever won Orange County?
p1291
sg8
g9
sg10
VJOSH
p1292
sg12
g9
sa(dp1293
g6
VNo.
p1294
sg8
g9
sg10
VSAM
p1295
sg12
g9
sa(dp1296
g6
VThen how would he know?
p1297
sg8
g9
sg10
VJOSH
p1298
sg12
g9
sa(dp1299
g6
VThat's a fair point, but it's who the national committee wants running the campaign, and that's where money's coming from so I have a strategy breakfast and I'll see you all a little bit later.
p1300
sg8
g31
sg10
VSAM
p1301
sg12
g9
sa(dp1302
g6
VI wasn't trying to get under his skin. On the other hand, I didn't really care that I had, you know what I mean?
p1303
sg8
g9
sg10
VJOSH
p1304
sg12
g9
sa(dp1305
g6
VYeah.
p1306
sg8
g9
sg10
VSAM
p1307
sg12
g9
sa(dp1308
g6
VSome polls that have you within seven. If you only lost by seven, that would be huge, man.
p1309
sg8
g133
sg10
VJOSH
p1310
sg12
g9
sa(dp1311
g6
VI don't want to think like that yet.
p1312
sg8
g9
sg10
VSAM
p1313
sg12
g9
sa(dp1314
g6
VGood.
p1315
sg8
g9
sg10
VJOSH
p1316
sg12
g9
sa(dp1317
g6
VOkay, where are we?
p1318
sg8
g9
sg10
VJOSH
p1319
sg12
g9
sa(dp1320
g6
V[to photographer] Hello.
p1321
sg8
g9
sg10
VDONNA
p1322
sg12
g9
sa(dp1323
g6
V...let me put it this way.
p1324
sg8
g9
sg10
VIVAN
p1325
sg12
g9
sa(dp1326
g6
VThat was weird.
p1327
sg8
g133
sg10
VDONNA
p1328
sg12
g9
sa(dp1329
g6
VThat happens to me sometimes.
p1330
sg8
g9
sg10
VIVAN
p1331
sg12
g9
sa(dp1332
g6
VAre you a farm labor leader and a rock star?
p1333
sg8
g31
sg10
VDONNA
p1334
sg12
g31
sa(dp1335
g6
VNo. But my point was we have no way of determining whether 12 hours under the sun, picking grapes is worth less or more than 9:00 to 5:00 in an office.
p1336
sg8
g31
sg10
VIVAN
p1337
sg12
g9
sa(dp1338
g6
VTrue. True. But let me ask you this, Ivan.
p1339
sg8
g9
sg10
VDONNA
p1340
sg12
g9
sa(dp1341
g6
VYes.
p1342
sg8
g9
sg10
VIVAN
p1343
sg12
g31
sa(dp1344
g6
VWhat do you think of Richard Sutter?
p1345
sg8
g9
sg10
VDONNA
p1346
sg12
g9
sa(dp1347
g6
VI'm sorry?
p1348
sg8
g9
sg10
VIVAN
p1349
sg12
g9
sa(dp1350
g6
VRichard Sutter. I was just wondering what you opinion of Richard...?
p1351
sg8
g9
sg10
VDONNA
p1352
sg12
g9
sa(dp1353
g6
VWell, he's the enemy, is what he is. I mean simply put, he is the enemy. This is an Assemblyman who led the charge for...
p1354
sg8
g133
sg10
VIVAN
p1355
sg12
g9
sa(dp1356
g6
VExcellent.
p1357
sg8
g9
sg10
VDONNA
p1358
sg12
g9
sa(dp1359
g6
VUm, I'm sorry?
p1360
sg8
g9
sg10
VIVAN
p1361
sg12
g9
sa(dp1362
g6
VHe was. And I think what you have to say is valuable and I'm going to see if I can get you in to see Josh while we're here.
p1363
sg8
g31
sg10
VDONNA
p1364
sg12
g9
sa(dp1365
g6
VThat's wonderful. Thank you.
p1366
sg8
g31
sg10
VIVAN
p1367
sg12
g9
sa(dp1368
g6
VGood meeting you.
p1369
sg8
g9
sg10
VDONNA
p1370
sg12
g31
sa(dp1371
g6
VDonna!
p1372
sg8
g9
sg10
VSAM
p1373
sg12
g9
sa(dp1374
g6
VHi.
p1375
sg8
g9
sg10
VDONNA
p1376
sg12
g9
sa(dp1377
g6
V[to Scott Holcomb and an aide] Hey, everyone, this is one of my best friends. This is Donna Moss.
p1378
sg8
g9
sg10
VSAM
p1379
sg12
g9
sa(dp1380
g6
VI didn't get the chance to see you much last night. How are you doing?
p1381
sg8
g9
sg10
VSAM
p1382
sg12
g9
sa(dp1383
g6
VOh, everyone feels really bad about the start.
p1384
sg8
g133
sg10
VDONNA
p1385
sg12
g9
sa(dp1386
g6
VDon't worry about it. Where are you coming from?
p1387
sg8
g133
sg10
VSAM
p1388
sg12
g9
sa(dp1389
g6
VFive minutes with a guy named Ivan Perez from the California Agricultural Laborers Association. Josh wanted me to find out if he's legit.
p1390
sg8
g9
sg10
VDONNA
p1391
sg12
g9
sa(dp1392
g6
VIs he?
p1393
sg8
g9
sg10
VSAM
p1394
sg12
g9
sa(dp1395
g6
VI think.
p1396
sg8
g9
sg10
VDONNA
p1397
sg12
g9
sa(dp1398
g6
V[to Scott and his aides] Anyone ever heard of Ivan Perez?
p1399
sg8
g9
sg10
VSAM
p1400
sg12
g9
sa(dp1401
g6
VYeah.
p1402
sg8
g9
sg10
VDONNA
p1403
sg12
g9
sa(dp1404
g6
VYeah.
p1405
sg8
g9
sg10
VDONNA
p1406
sg12
g9
sa(dp1407
g6
VDonna just met with him.
p1408
sg8
g9
sg10
VSAM
p1409
sg12
g9
sa(dp1410
g6
VWhat party?
p1411
sg8
g9
sg10
VSAM
p1412
sg12
g9
sa(dp1413
g6
VThe Communist Party?
p1414
sg8
g9
sg10
VDONNA
p1415
sg12
g9
sa(dp1416
g6
VYeah.
p1417
sg8
g9
sg10
VSCOTT
p1418
sg12
g9
sa(dp1419
g6
VHe's a Communist?
p1420
sg8
g9
sg10
VDONNA
p1421
sg12
g9
sa(dp1422
g6
VYeah.
p1423
sg8
g9
sg10
VSCOTT
p1424
sg12
g9
sa(dp1425
g6
VI thought he was a farmer.
p1426
sg8
g9
sg10
VDONNA
p1427
sg12
g9
sa(dp1428
g6
VThey're all farmers.
p1429
sg8
g9
sg10
VSCOTT
p1430
sg12
g9
sa(dp1431
g6
VTake it easy. Donna, did anybody see you having coffee?
p1432
sg8
g9
sg10
VSAM
p1433
sg12
g9
sa(dp1434
g6
VYeah.
p1435
sg8
g9
sg10
VDONNA
p1436
sg12
g9
sa(dp1437
g6
VWho?
p1438
sg8
g9
sg10
VSAM
p1439
sg12
g9
sa(dp1440
g6
VA photographer.
p1441
sg8
g9
sg10
VDONNA
p1442
sg12
g9
sa(dp1443
g6
VOh, my God.
p1444
sg8
g9
sg10
VSCOTT
p1445
sg12
g9
sa(dp1446
g6
V[to aide] Hey! Out of here. You're fired.
p1447
sg8
g9
sg10
VSAM
p1448
sg12
g9
sa(dp1449
g6
VI need him.
p1450
sg8
g9
sg10
VSCOTT
p1451
sg12
g9
sa(dp1452
g6
VI don't care. He's out of here.
p1453
sg8
g9
sg10
VSAM
p1454
sg12
g9
sa(dp1455
g6
VLike I'm not used to that.
p1456
sg8
g9
sg10
VSAM
p1457
sg12
g9
sa(dp1458
g6
VExcuse me, Leo.
p1459
sg8
g9
sg10
VWILL
p1460
sg12
g9
sa(dp1461
g6
VHey, how's it going down there?
p1462
sg8
g9
sg10
VLEO
p1463
sg12
g9
sa(dp1464
g6
VFine.
p1465
sg8
g9
sg10
VWILL
p1466
sg12
g9
sa(dp1467
g6
VI heard your staff quit.
p1468
sg8
g133
sg10
VLEO
p1469
sg12
g9
sa(dp1470
g6
VYes, yes, they did.
p1471
sg8
g9
sg10
VWILL
p1472
sg12
g9
sa(dp1473
g6
VBecause we promoted you to deputy?
p1474
sg8
g9
sg10
VLEO
p1475
sg12
g9
sa(dp1476
g6
VIt would appear so.
p1477
sg8
g9
sg10
VWILL
p1478
sg12
g9
sa(dp1479
g6
VWell, that's a little small.
p1480
sg8
g133
sg10
VLEO
p1481
sg12
g9
sa(dp1482
g6
VWhatever. Do you suppose there's anyone around with speechwriting experience, I could borrow for a day or two?
p1483
sg8
g9
sg10
VWILL
p1484
sg12
g9
sa(dp1485
g6
VOn Saturday?
p1486
sg8
g9
sg10
VLEO
p1487
sg12
g9
sa(dp1488
g6
VBad day?
p1489
sg8
g9
sg10
VWILL
p1490
sg12
g9
sa(dp1491
g6
VNot ordinarily, but a lot of people made the California trip, the Treasury Secretary's staff is in the Midwest.
p1492
sg8
g9
sg10
VLEO
p1493
sg12
g9
sa(dp1494
g6
VNo problem. Is there anything I can do for you?
p1495
sg8
g133
sg10
VWILL
p1496
sg12
g9
sa(dp1497
g6
VFor me?
p1498
sg8
g9
sg10
VLEO
p1499
sg12
g9
sa(dp1500
g6
VWith regard to whatever's happening right now. I feel a little responsible.
p1501
sg8
g31
sg10
VWILL
p1502
sg12
g9
sa(dp1503
g6
VYou are.
p1504
sg8
g9
sg10
VLEO
p1505
sg12
g9
sa(dp1506
g6
VYou need me to prepare remarks at all?
p1507
sg8
g31
sg10
VWILL
p1508
sg12
g9
sa(dp1509
g6
VI hope not.
p1510
sg8
g31
sg10
VLEO
p1511
sg12
g9
sa(dp1512
g6
VWhen was the last flyover?
p1513
sg8
g9
sg10
VLEO
p1514
sg12
g9
sa(dp1515
g6
VA Superhornet did a past in the last hour.
p1516
sg8
g9
sg10
VFITZWALLACE
p1517
sg12
g9
sa(dp1518
g6
VAre we seeing any pictures of the Arkutu getting ready to surrender?
p1519
sg8
g133
sg10
VLEO
p1520
sg12
g9
sa(dp1521
g6
VNo. Here's what we're seeing. [shows Leo black and white reconnaisance photos] These are 3,200 Induye being marched down a road toward Mutsato. These are cranes and bulldozers at work and twice as amny smokestacks burning as of an hour ago. So this is the mass gravesite that the 3,200 Induye are being marched to.
p1522
sg8
g9
sg10
VFITZWALLACE
p1523
sg12
g9
sa(dp1524
g6
VHow many more in the next 20 hours?
p1525
sg8
g9
sg10
VLEO
p1526
sg12
g9
sa(dp1527
g6
VWe think about 20,000.
p1528
sg8
g9
sg10
VFITZWALLACE
p1529
sg12
g9
sa(dp1530
g6
VSo why not talk about blowing off the deadline?
p1531
sg8
g31
sg10
VLEO
p1532
sg12
g9
sa(dp1533
g6
V'Cause we'd need 55 more aircraft of the U.S.S. Colonade and 3rd Infantry.
p1534
sg8
g9
sg10
VFITZWALLACE
p1535
sg12
g9
sa(dp1536
g6
VHe's trying to finish the job before the deadline.
p1537
sg8
g31
sg10
VLEO
p1538
sg12
g9
sa(dp1539
g6
VYes.
p1540
sg8
g9
sg10
VFITZWALLACE
p1541
sg12
g31
sa(dp1542
g6
VSure. He's getting continuous updates. He's also spoken by phone today with the UN Secretary-General and the leadership of the World Bank and the IMF to begin discussing rebuilding packages after the Arkutu stepdown.
p1543
sg8
g9
sg10
VC.J.
p1544
sg12
g9
sa(dp1545
g6
VHe'll have a conference call with his economics team.
p1546
sg8
g9
sg10
VC.J.
p1547
sg12
g9
sa(dp1548
g6
VThe tax plan isn't a response to the Republicans, it's a tax plan, and yes.
p1549
sg8
g133
sg10
VC.J.
p1550
sg12
g9
sa(dp1551
g6
VA series of meetings upstairs in his suite. The California leadership of the FOP the Governor and the State Assembly Leadership on matching payments before he goes on to the fund-rasier.
p1552
sg8
g9
sg10
VC.J.
p1553
sg12
g9
sa(dp1554
g6
VWas a White House aide sent to meet with the Communist Party's candidate for governor?
p1555
sg8
g31
sg10
VC.J.
p1556
sg12
g9
sa(dp1557
g6
VNo, Donna Moss was sent to meet with the head of the California Agricultural Laborers Association, a man named Ivan Perez, who, it turns out has some loose ties to the American Communist Party.
p1558
sg8
g9
sg10
VC.J.
p1559
sg12
g9
sa(dp1560
g6
VLike that one. Mr. Perez was heard, as he certainly has a right to be, and that's that.
p1561
sg8
g9
sg10
VC.J.
p1562
sg12
g9
sa(dp1563
g6
VReally, really well. I'll talk to you before the dinner. Thank you.
p1564
sg8
g31
sg10
VC.J.
p1565
sg12
g9
sa(dp1566
g6
VThank you, C.J.
p1567
sg8
g9
sg10
VALL
p1568
sg12
g31
sa(dp1569
g6
V"Nothing is more important than teaching our children well." This is good. These are remarks prepared by number 48 for the Undersecretary of Education at the AFT Leadership Breakfast. Very good start. "Nothing is more important than teaching our children well, grounding them in the basics. And while we're at it, We should teach them that the Republican tax plan is a job killer..." Yeah, I don't think this is going to work out, do you?
p1570
sg8
g31
sg10
VWILL
p1571
sg12
g9
sa(dp1572
g6
VGot to give us points for our candor.
p1573
sg8
g9
sg10
VELSIE
p1574
sg12
g9
sa(dp1575
g6
VNumber 24...
p1576
sg8
g9
sg10
VWILL
p1577
sg12
g9
sa(dp1578
g6
VIn remarks to the National Headache Foundation said... Is there really a National Headache Foundation or did you just make that up, like the London School of Ballet?
p1579
sg8
g9
sg10
VWILL
p1580
sg12
g9
sa(dp1581
g6
VYes. I know you were. You don't know I know how to retreive information.
p1582
sg8
g31
sg10
VWILL
p1583
sg12
g9
sa(dp1584
g6
VWhat were you doing looking me up?
p1585
sg8
g9
sg10
VCASSIE
p1586
sg12
g9
sa(dp1587
g6
VWhat was I doing? My job, okay? That's what I was doing.
p1588
sg8
g31
sg10
VWILL
p1589
sg12
g9
sa(dp1590
g6
VThank God, huh?
p1591
sg8
g9
sg10
VELSIE
p1592
sg12
g9
sa(dp1593
g6
VWill Bailey.
p1594
sg8
g9
sg10
VWILL
p1595
sg12
g9
sa(dp1596
g6
V[on phone] How's it going?
p1597
sg8
g9
sg10
VTOBY
p1598
sg12
g9
sa(dp1599
g6
VHey, why would Holcomb book Sam in the Newport Beach Chamber of Commerce?
p1600
sg8
g9
sg10
VWILL
p1601
sg12
g9
sa(dp1602
g6
VDid I tell you to worry about the speeches or did I tell you to worry about Sam's campaign?
p1603
sg8
g133
sg10
VTOBY
p1604
sg12
g9
sa(dp1605
g6
VI worry about Sam's campaign without anyone telling me to.
p1606
sg8
g133
sg10
VWILL
p1607
sg12
g9
sa(dp1608
g6
VRead me what you've got for the swearing in of the Ambassador.
p1609
sg8
g9
sg10
VTOBY
p1610
sg12
g9
sa(dp1611
g6
V"Ambassador Stanis will help to build and sustain a new era of cooperation between the United States and Hungary. And let's please all remember that cutting capital gains taxes is a bad idea."
p1612
sg8
g9
sg10
VWILL
p1613
sg12
g9
sa(dp1614
g6
VOkay, you're going to polish that up?
p1615
sg8
g31
sg10
VTOBY
p1616
sg12
g9
sa(dp1617
g6
VYeah.
p1618
sg8
g9
sg10
VWILL
p1619
sg12
g9
sa(dp1620
g6
VThe President.
p1621
sg8
g9
sg10
VCHARLIE
p1622
sg12
g9
sa(dp1623
g6
VThe President's proposing the tax plan, not me.
p1624
sg8
g133
sg10
VCHARLIE
p1625
sg12
g9
sa(dp1626
g6
VThe White House wants to raise taxes on the wealthies one percent of the population by one percent, in order to pay for college tuition to be fully tax deductible for anyone making under $80,000 a year, and incrementally tax deductible after that. Does that make sense?
p1627
sg8
g31
sg10
VCHARLIE
p1628
sg12
g9
sa(dp1629
g6
VThat's 'cause you're part of the one percent.
p1630
sg8
g9
sg10
VCHARLIE
p1631
sg12
g9
sa(dp1632
g6
VYeah. Speaking of people getting to know you, you and Zoey went to a couple of runway shows in Paris, and there were an awful lot of pictures.
p1633
sg8
g133
sg10
VCHARLIE
p1634
sg12
g9
sa(dp1635
g6
VIt's not completely avoidable, but it's a little avoidable. And you should try, 'cause it's a security risk.
p1636
sg8
g9
sg10
VCHARLIE
p1637
sg12
g9
sa(dp1638
g6
V'Cause of the details crazy people pick out of photographs. You can make the scene without making a scene. You know what I'm saying?
p1639
sg8
g9
sg10
VCHARLIE
p1640
sg12
g9
sa(dp1641
g6
VYour parents weren't at the Versace show.
p1642
sg8
g9
sg10
VCHARLIE
p1643
sg12
g9
sa(dp1644
g6
VShe doesn't like having her picture taken.
p1645
sg8
g9
sg10
VCHARLIE
p1646
sg12
g9
sa(dp1647
g6
VHey.
p1648
sg8
g9
sg10
VZOEY
p1649
sg12
g9
sa(dp1650
g6
VOh.
p1651
sg8
g9
sg10
VZOEY
p1652
sg12
g9
sa(dp1653
g6
VWell, I've got to get to Sam's rally.
p1654
sg8
g9
sg10
VCHARLIE
p1655
sg12
g9
sa(dp1656
g6
VWe're right behind you.
p1657
sg8
g9
sg10
VZOEY
p1658
sg12
g31
sa(dp1659
g6
V[to Toby] You and Josh need to take over the campaign.
p1660
sg8
g9
sg10
VC.J.
p1661
sg12
g9
sa(dp1662
g6
VWe've asked.
p1663
sg8
g9
sg10
VTOBY
p1664
sg12
g9
sa(dp1665
g6
VJust for the last week.
p1666
sg8
g9
sg10
VC.J.
p1667
sg12
g9
sa(dp1668
g6
VWe've asked. We said we'd go off the White House payroll. I've had to bungee Will to his desk. Until higher authorities steps in, the DNC wants Holcomb.
p1669
sg8
g9
sg10
VTOBY
p1670
sg12
g9
sa(dp1671
g6
VWhen they have him in community centers at a podium...
p1672
sg8
g31
sg10
VC.J.
p1673
sg12
g9
sa(dp1674
g6
VI know.
p1675
sg8
g9
sg10
VTOBY
p1676
sg12
g9
sa(dp1677
g6
V...it looks like he's wearing his dad's old suit. He's got youth and vitality. He should...
p1678
sg8
g31
sg10
VC.J.
p1679
sg12
g9
sa(dp1680
g6
VI know.
p1681
sg8
g9
sg10
VTOBY
p1682
sg12
g9
sa(dp1683
g6
VCommunist look exactly like non-Communist.
p1684
sg8
g9
sg10
VDONNA
p1685
sg12
g9
sa(dp1686
g6
VTell me about it.
p1687
sg8
g9
sg10
VTOBY
p1688
sg12
g9
sa(dp1689
g6
VMiss Wyatt, those kids you got in there deserve a father.
p1690
sg8
g31
sg10
VMAN
p1691
sg12
g9
sa(dp1692
g6
VI'm sorry, are you talking to me?
p1693
sg8
g9
sg10
VANDY
p1694
sg12
g9
sa(dp1695
g6
VYes, I was. That's all.
p1696
sg8
g9
sg10
VMAN
p1697
sg12
g9
sa(dp1698
g6
VThey've got a father, and it's Congresswoman Wyatt, not Miss.
p1699
sg8
g9
sg10
VANDY
p1700
sg12
g9
sa(dp1701
g6
VWhatever you say.
p1702
sg8
g9
sg10
VMAN
p1703
sg12
g9
sa(dp1704
g6
VDamn right, whatever I say.
p1705
sg8
g9
sg10
VANDY
p1706
sg12
g9
sa(dp1707
g6
VYou may not realize it... but you are an example to young women, and there's something to be said for acting like it.
p1708
sg8
g31
sg10
VMAN
p1709
sg12
g9
sa(dp1710
g6
VWell, I believe I do.
p1711
sg8
g9
sg10
VANDY
p1712
sg12
g9
sa(dp1713
g6
VYou do?
p1714
sg8
g9
sg10
VMAN
p1715
sg12
g9
sa(dp1716
g6
VSir, you are way out of line, and we're having a private conversation, but thank you...
p1717
sg8
g9
sg10
VC.J.
p1718
sg12
g9
sa(dp1719
g6
VNo, it's not private when you're an elected official.
p1720
sg8
g9
sg10
VBETTY
p1721
sg12
g9
sa(dp1722
g6
V[stands up] Well, I appreciate you reminding me of my sworn duty, and if it's all right with you...
p1723
sg8
g9
sg10
VANDY
p1724
sg12
g9
sa(dp1725
g6
VYeah, but it's not all right with me...
p1726
sg8
g9
sg10
VMAN
p1727
sg12
g9
sa(dp1728
g6
VWell, I'm sorry to hear that....
p1729
sg8
g9
sg10
VANDY
p1730
sg12
g9
sa(dp1731
g6
VY-You should be sorry!
p1732
sg8
g9
sg10
VMAN
p1733
sg12
g9
sa(dp1734
g6
VOkay, sir, you're standing too close now.
p1735
sg8
g31
sg10
VTOBY
p1736
sg12
g9
sa(dp1737
g6
VIt's the father.
p1738
sg8
g9
sg10
VBETTY
p1739
sg12
g9
sa(dp1740
g6
VYeah, it's the father and you're standing too close, so, if you're going to insist on being drunk and minding other people's business, you've got to take a step back, 'cause as you are apparently aware, the Congresswoman is pregnant.
p1741
sg8
g31
sg10
VTOBY
p1742
sg12
g9
sa(dp1743
g6
VIs there a problem, Toby?
p1744
sg8
g133
sg10
VCHARLIE
p1745
sg12
g9
sa(dp1746
g6
VThis is the one who was with the daughter.
p1747
sg8
g31
sg10
VBETTY
p1748
sg12
g9
sa(dp1749
g6
V#500 million in undirected aid. Assurance that he stays in power-- a guarantee that he and his top aides will receive immunity from prosecution for war crimes.
p1750
sg8
g31
sg10
VROBBIE
p1751
sg12
g9
sa(dp1752
g6
VHe's killed 115,000 people and he wants to stay in power, get immunity and cash a check for half a billion dollars?
p1753
sg8
g31
sg10
VLEO
p1754
sg12
g9
sa(dp1755
g6
VYes.
p1756
sg8
g9
sg10
VROBBIE
p1757
sg12
g31
sa(dp1758
g6
VYeah?
p1759
sg8
g9
sg10
VLEO
p1760
sg12
g9
sa(dp1761
g6
VExcuse me. Excuse me, Mr. Ambassador.
p1762
sg8
g9
sg10
VMARGARET
p1763
sg12
g9
sa(dp1764
g6
V[to Margaret] Get me Fitzwallace and then get me the President.
p1765
sg8
g9
sg10
VLEO
p1766
sg12
g9
sa(dp1767
g6
V[into phone] Don't come here. Turn around, go to the event. We're fine. C.J., we're fine. And tell Andy not to come here. We'll meet her there as soon as we're done. [to officer taking Charlie's fingerprints] Excuse me, Officer, ballpark-- How long do you think this is going to be?
p1768
sg8
g31
sg10
VTOBY
p1769
sg12
g9
sa(dp1770
g6
VAssault-- six to 20 months.
p1771
sg8
g9
sg10
VOFFICER
p1772
sg12
g9
sa(dp1773
g6
VIt wasn't assault. He slipped on a thing.
p1774
sg8
g133
sg10
VCHARLIE
p1775
sg12
g9
sa(dp1776
g6
VYeah, one of the guys says you hit him.
p1777
sg8
g133
sg10
VOFFICER
p1778
sg12
g9
sa(dp1779
g6
VWell, that was different. That part may have been assault.
p1780
sg8
g133
sg10
VCHARLIE
p1781
sg12
g9
sa(dp1782
g6
V[into phone] Tell him he's got to hit hard on quality-- health care quality-- and in his acknowledgements he's got to...
p1783
sg8
g133
sg10
VTOBY
p1784
sg12
g9
sa(dp1785
g6
V[to Toby] Okay.
p1786
sg8
g9
sg10
VOFFICER
p1787
sg12
g9
sa(dp1788
g6
V[to Officer] One second. [into phone] In his acknowledgements, he's got to mention the AFL folk. The President's working the...
p1789
sg8
g31
sg10
VTOBY
p1790
sg12
g9
sa(dp1791
g6
VBuddy.
p1792
sg8
g9
sg10
VOFFICER
p1793
sg12
g9
sa(dp1794
g6
VThe President's working the rope line for 15...
p1795
sg8
g31
sg10
VTOBY
p1796
sg12
g9
sa(dp1797
g6
VNo.
p1798
sg8
g9
sg10
VCHARLIE
p1799
sg12
g9
sa(dp1800
g6
VNo. Charlie says no on the rope line.
p1801
sg8
g9
sg10
VTOBY
p1802
sg12
g9
sa(dp1803
g6
VHey, give me the damn phone.
p1804
sg8
g133
sg10
VOFFICER
p1805
sg12
g9
sa(dp1806
g6
VAnd if you can call the NEC and get a one-pager on trucking faxed to me in my cell, I'd really...
p1807
sg8
g9
sg10
VTOBY
p1808
sg12
g9
sa(dp1809
g6
VNow!
p1810
sg8
g9
sg10
VOFFICER
p1811
sg12
g9
sa(dp1812
g6
VOkay. I got to go. I'm under arrest. [hangs up]
p1813
sg8
g133
sg10
VTOBY
p1814
sg12
g9
sa(dp1815
g6
VHe's not going to know the names of the people he's meeting.
p1816
sg8
g9
sg10
VCHARLIE
p1817
sg12
g9
sa(dp1818
g6
VDoes he ever know the names of the people's he's meeting?
p1819
sg8
g9
sg10
VTOBY
p1820
sg12
g9
sa(dp1821
g6
VOkay, over here. Give me your left thumb.
p1822
sg8
g9
sg10
VOFFICER
p1823
sg12
g9
sa(dp1824
g6
VIs there any chance I could get a corner cell or anything possibly with a loft?
p1825
sg8
g9
sg10
VTOBY
p1826
sg12
g9
sa(dp1827
g6
VThey're solitary.
p1828
sg8
g9
sg10
VOFFICER
p1829
sg12
g9
sa(dp1830
g6
VPerfect.
p1831
sg8
g9
sg10
VTOBY
p1832
sg12
g9
sa(dp1833
g6
VSam.
p1834
sg8
g9
sg10
VSCOTT
p1835
sg12
g9
sa(dp1836
g6
VI got salsa on my shirt.
p1837
sg8
g9
sg10
VSAM
p1838
sg12
g9
sa(dp1839
g6
VWe got a new shirt?
p1840
sg8
g9
sg10
VSCOTT
p1841
sg12
g31
sa(dp1842
g6
VYeah, they got it.
p1843
sg8
g9
sg10
VSAM
p1844
sg12
g9
sa(dp1845
g6
V[to staffers in the room] Can I have the room please?
p1846
sg8
g9
sg10
VSCOTT
p1847
sg12
g9
sa(dp1848
g6
VWhat's going on?
p1849
sg8
g9
sg10
VSAM
p1850
sg12
g9
sa(dp1851
g6
VI'm going to propose something bold.
p1852
sg8
g31
sg10
VSCOTT
p1853
sg12
g9
sa(dp1854
g6
VI like bold.
p1855
sg8
g31
sg10
VSAM
p1856
sg12
g9
sa(dp1857
g6
VThe White House is going to announce their answer to the Republican tax plan on Monday. It's a one percent tax hike on the wealthiest one percent, which would pay for, among other things...
p1858
sg8
g133
sg10
VSCOTT
p1859
sg12
g9
sa(dp1860
g6
VTax deductible tuition.
p1861
sg8
g9
sg10
VSAM
p1862
sg12
g9
sa(dp1863
g6
VRight. Come out against it tonight.
p1864
sg8
g9
sg10
VSCOTT
p1865
sg12
g9
sa(dp1866
g6
VWhy?
p1867
sg8
g9
sg10
VSAM
p1868
sg12
g9
sa(dp1869
g6
VTo show you're not bought and paid for by the West Wing. And by the way, many of that one percent live right here.
p1870
sg8
g9
sg10
VSCOTT
p1871
sg12
g9
sa(dp1872
g6
VI worked on it.
p1873
sg8
g9
sg10
VSAM
p1874
sg12
g9
sa(dp1875
g6
VOn what?
p1876
sg8
g9
sg10
VSCOTT
p1877
sg12
g9
sa(dp1878
g6
VTax deductible tuition. I worked on it.
p1879
sg8
g9
sg10
VSAM
p1880
sg12
g9
sa(dp1881
g6
VYou were doing what the President told you to do.
p1882
sg8
g9
sg10
VSCOTT
p1883
sg12
g9
sa(dp1884
g6
VYeah, and the President was also doing what I helped advise him to do.
p1885
sg8
g31
sg10
VSAM
p1886
sg12
g9
sa(dp1887
g6
VIt doesn't matter, what I'm saying is....
p1888
sg8
g9
sg10
VSCOTT
p1889
sg12
g9
sa(dp1890
g6
VWait a second. They're announcing on Monday?
p1891
sg8
g9
sg10
VSAM
p1892
sg12
g9
sa(dp1893
g6
VYeah.
p1894
sg8
g9
sg10
VSCOTT
p1895
sg12
g9
sa(dp1896
g6
VHow do you know?
p1897
sg8
g9
sg10
VSAM
p1898
sg12
g31
sa(dp1899
g6
VI know.
p1900
sg8
g9
sg10
VSCOTT
p1901
sg12
g9
sa(dp1902
g6
VAnd it's been scored, fully scored?
p1903
sg8
g31
sg10
VSAM
p1904
sg12
g9
sa(dp1905
g6
VYeah.
p1906
sg8
g9
sg10
VSCOTT
p1907
sg12
g9
sa(dp1908
g6
VWell, why the hell would...? Excuse me.
p1909
sg8
g133
sg10
VSAM
p1910
sg12
g9
sa(dp1911
g6
VMr. President?
p1912
sg8
g9
sg10
VDEBBIE
p1913
sg12
g9
sa(dp1914
g6
VMrs. Hottentot?
p1915
sg8
g9
sg10
VBARTLET
p1916
sg12
g9
sa(dp1917
g6
VToby and Charlie...
p1918
sg8
g9
sg10
VDEBBIE
p1919
sg12
g9
sa(dp1920
g6
VYeah, where are they?
p1921
sg8
g9
sg10
VBARTLET
p1922
sg12
g133
sa(dp1923
g6
VThey're being held.
p1924
sg8
g9
sg10
VDEBBIE
p1925
sg12
g9
sa(dp1926
g6
VWhat do you mean?
p1927
sg8
g9
sg10
VBARTLET
p1928
sg12
g9
sa(dp1929
g6
VToby and Charlie are under arrest. There was an incident at a bar.
p1930
sg8
g133
sg10
VDEBBIE
p1931
sg12
g9
sa(dp1932
g6
VThey're under arrest?
p1933
sg8
g133
sg10
VBARTLET
p1934
sg12
g9
sa(dp1935
g6
VYes, sir.
p1936
sg8
g31
sg10
VDEBBIE
p1937
sg12
g31
sa(dp1938
g6
VDid they rob the bar?
p1939
sg8
g133
sg10
VBARTLET
p1940
sg12
g9
sa(dp1941
g6
VNo, sir. A patron was jostling Congresswoman Wyatt and Toby tried to get him to step back, and the man slipped on the floor. And then the man's friend lunged for Toby.
p1942
sg8
g31
sg10
VDEBBIE
p1943
sg12
g9
sa(dp1944
g6
VUh-huh. And what did Charlie do?
p1945
sg8
g9
sg10
VBARTLET
p1946
sg12
g9
sa(dp1947
g6
VHe hit him.
p1948
sg8
g133
sg10
VDEBBIE
p1949
sg12
g9
sa(dp1950
g6
VSir.
p1951
sg8
g9
sg10
VJOSH
p1952
sg12
g9
sa(dp1953
g6
VToby and Charlie were arrested in a bar fight.
p1954
sg8
g133
sg10
VBARTLET
p1955
sg12
g9
sa(dp1956
g6
VYes, sir, it's not going to be a problem. C.J.'s taking care of it.
p1957
sg8
g9
sg10
VJOSH
p1958
sg12
g9
sa(dp1959
g6
VReally?
p1960
sg8
g9
sg10
VBARTLET
p1961
sg12
g9
sa(dp1962
g6
VIt's going to be a little bit of a problem.
p1963
sg8
g133
sg10
VJOSH
p1964
sg12
g9
sa(dp1965
g6
VEverytime we come to Southern California we are absolutely the Clampetts.
p1966
sg8
g9
sg10
VBARTLET
p1967
sg12
g9
sa(dp1968
g6
VHe booked him at the Newport Beach Chamber of Commerce. He had him skip a union lunch without telling restaurant employees...
p1969
sg8
g133
sg10
VJOSH
p1970
sg12
g9
sa(dp1971
g6
VI came...
p1972
sg8
g9
sg10
VBARTLET
p1973
sg12
g9
sa(dp1974
g6
VHe wants him speaking at Cal Lutheran. Scott Holcomb's given up on Sam, and he's running his own agenda. Now, I can't leave with the tax proposal coming out, but Toby says he can for a week. Evidently, Will's put together a top-flight staff that can handle the paper for a week. And I suppose it's worth mentioning that Toby probably can't leave the state anyway. Now, as the leader of this party you...
p1975
sg8
g133
sg10
VJOSH
p1976
sg12
g9
sa(dp1977
g6
VYou really don't want to shake up a campaign like this at this point in the election calendar.
p1978
sg8
g9
sg10
VBARTLET
p1979
sg12
g9
sa(dp1980
g6
VAt this point in the election calendar look which way his numbers are going. I'm amazed he's kept a veneer of sanity, much less...
p1981
sg8
g31
sg10
VJOSH
p1982
sg12
g9
sa(dp1983
g6
VAre you crazy?!
p1984
sg8
g133
sg10
VSAM
p1985
sg12
g9
sa(dp1986
g6
VWe were just...
p1987
sg8
g9
sg10
VJOSH
p1988
sg12
g9
sa(dp1989
g6
VHave you all lost your minds?
p1990
sg8
g133
sg10
VSAM
p1991
sg12
g9
sa(dp1992
g6
VWell, C.J. maybe.
p1993
sg8
g9
sg10
VJOSH
p1994
sg12
g9
sa(dp1995
g6
VI just assumed that it wasn't ready yet. It's ready now, isn't it?
p1996
sg8
g9
sg10
VSAM
p1997
sg12
g9
sa(dp1998
g6
VYeah.
p1999
sg8
g9
sg10
VJOSH
p2000
sg12
g9
sa(dp2001
g6
VYou are missing news cycle after news cycle after news cycle, but you didn't announce 'cause you didn't want to do it from Orange County.
p2002
sg8
g133
sg10
VSAM
p2003
sg12
g9
sa(dp2004
g6
VWould you?
p2005
sg8
g9
sg10
VJOSH
p2006
sg12
g31
sa(dp2007
g6
VYes! I say to hell with the election! There's a guy in St. Louis making $55,000 a year trying to send his kid to Notre Dame!
p2008
sg8
g133
sg10
VSAM
p2009
sg12
g9
sa(dp2010
g6
VGuys, we've got to keep our voices down a little.
p2011
sg8
g9
sg10
VBARTLET
p2012
sg12
g9
sa(dp2013
g6
VIf I'm going to lose, I'd like to lose doing something.
p2014
sg8
g133
sg10
VSAM
p2015
sg12
g9
sa(dp2016
g6
VThank you. Thank you very much. The President of the United States is backstage. He'll be out here in a minute. He'll be out here in a minute because, of course, he's monitoring our troops in Kuhndu. But I wanted to say that yesterday the Republicans rolled out their tax plan. Do not let this President off this stage until he's told you his. Send me to Congress, and mine will be the first yea vote cast.
p2017
sg8
g133
sg10
VSAM
p2018
sg12
g9
sa(dp2019
g6
VHe didn't just say that. He did not just say that.
p2020
sg8
g9
sg10
VSCOTT
p2021
sg12
g9
sa(dp2022
g6
VScott...
p2023
sg8
g9
sg10
VBARTLET
p2024
sg12
g9
sa(dp2025
g6
VYes, sir?
p2026
sg8
g31
sg10
VSCOTT
p2027
sg12
g31
sa(dp2028
g6
VWhy are you putting Sam next to business?
p2029
sg8
g9
sg10
VBARTLET
p2030
sg12
g9
sa(dp2031
g6
VSir...
p2032
sg8
g9
sg10
VSCOTT
p2033
sg12
g9
sa(dp2034
g6
VNo, I'm just curious.
p2035
sg8
g9
sg10
VBARTLET
p2036
sg12
g9
sa(dp2037
g6
VYou read numbers as well as anyone, sir. Webb's going to win here. That's not a surprise. So why burn the DNC's bridges...?
p2038
sg8
g31
sg10
VSCOTT
p2039
sg12
g9
sa(dp2040
g6
VJosh...
p2041
sg8
g9
sg10
VBARTLET
p2042
sg12
g9
sa(dp2043
g6
VYes, sir.
p2044
sg8
g31
sg10
VJOSH
p2045
sg12
g31
sa(dp2046
g6
VTell Toby to take over the campaign.
p2047
sg8
g9
sg10
VBARTLET
p2048
sg12
g9
sa(dp2049
g6
VYou're going to get creamed. [leaves]
p2050
sg8
g9
sg10
VSCOTT
p2051
sg12
g9
sa(dp2052
g6
VExcuse me, ma'am.
p2053
sg8
g9
sg10
VLIEUTENANT
p2054
sg12
g9
sa(dp2055
g6
VYes.
p2056
sg8
g9
sg10
VDEBBIE
p2057
sg12
g31
sa(dp2058
g6
VMr. McGarry.
p2059
sg8
g9
sg10
VLIEUTENANT
p2060
sg12
g9
sa(dp2061
g6
VThank you.
p2062
sg8
g9
sg10
VDEBBIE
p2063
sg12
g31
sa(dp2064
g6
VSir.
p2065
sg8
g9
sg10
VDEBBIE
p2066
sg12
g9
sa(dp2067
g6
VYeah. [into phone] Leo, I just fired Scott Holcomb. Toby, who, with Charlie, is meeting with a bails bondsman right now, has to come off the payroll for a week.
p2068
sg8
g9
sg10
VBARTLET
p2069
sg12
g9
sa(dp2070
g6
VSir, I'm afraid something has happened.
p2071
sg8
g133
sg10
VLEO
p2072
sg12
g9
sa(dp2073
g6
VWhat?
p2074
sg8
g9
sg10
VBARTLET
p2075
sg12
g9
sa(dp2076
g6
VTwo Marine Lance Corporals and a PFC have been taken.
p2077
sg8
g9
sg10
VLEO
p2078
sg12
g133
sa(dp2079
g6
VWhat do you mean they've been taken?
p2080
sg8
g9
sg10
VBARTLET
p2081
sg12
g9
sa(dp2082
g6
VPatrolling Bitanga airport in a humvee, 50 guys came out of nowhere.
p2083
sg8
g9
sg10
VLEO
p2084
sg12
g9
sa(dp2085
g6
VWe secured the airport.
p2086
sg8
g9
sg10
VBARTLET
p2087
sg12
g9
sa(dp2088
g6
VThey came out of nowhere.
p2089
sg8
g9
sg10
VLEO
p2090
sg12
g9
sa(dp2091
g6
VWhat are we doing?
p2092
sg8
g9
sg10
VBARTLET
p2093
sg12
g9
sa(dp2094
g6
VSpecial Ops wants to brief you on some rescue scenarios.
p2095
sg8
g31
sg10
VLEO
p2096
sg12
g9
sa(dp2097
g6
VWe're coming home.
p2098
sg8
g9
sg10
VBARTLET
p2099
sg12
g9
sa(dp2100
g6
VNzele says for immunity and $500 million he'll keep them alive.
p2101
sg8
g31
sg10
VLEO
p2102
sg12
g9
sa(dp2103
g6
VTell Ghana to tell Nzele he's got 9 hours and 20 minutes before I take him.
p2104
sg8
g9
sg10
VBARTLET
p2105
sg12
g9
sa(dp2106
g6
VYes, sir.
p2107
sg8
g31
sg10
VLEO
p2108
sg12
g31
sa(dp2109
g6
VSir, he's about to introduce you.
p2110
sg8
g9
sg10
VNANCY
p2111
sg12
g9
sa(dp2112
g6
VThanks.
p2113
sg8
g9
sg10
VBARTLET
p2114
sg12
g9
sa(dp2115
g6
VLieutenant.
p2116
sg8
g9
sg10
VBARTLET
p2117
sg12
g9
sa(dp2118
g6
VYes, sir.
p2119
sg8
g31
sg10
VLIEUTENANT
p2120
sg12
g31
sa(dp2121
g6
VHow old are you?
p2122
sg8
g9
sg10
VBARTLET
p2123
sg12
g31
sa(dp2124
g6
VI'm 22 years old, sir.
p2125
sg8
g31
sg10
VLIEUTENANT
p2126
sg12
g9
sa(dp2127
g6
VAnd so, friends, the President of the United States.
p2128
sg8
g9
sg10
VSAM
p2129
sg12
g9
sa(dp2130
g6
VLet's go.
p2131
sg8
g9
sg10
VBARTLET
p2132
sg12
g9
sas.