(dp0
S'season'
p1
I4
sS'episode'
p2
I18
sS'script'
p3
(lp4
(dp5
S'text'
p6
VHello.
p7
sS'character'
p8
VBARTLET
p9
sS'maxent_score'
p10
S'neutral'
p11
sa(dp12
g6
VOh, okay. I didn't ask for five?
p13
sg8
VBARTLET
p14
sg10
g11
sa(dp15
g6
VShe's allowed to do that?
p16
sg8
VBARTLET
p17
sg10
g11
sa(dp18
g6
VAh, it's okay. Thanks.
p19
sg8
VBARTLET
p20
sg10
g11
sa(dp21
g6
VYou're up.
p22
sg8
VABBEY
p23
sg10
g11
sa(dp24
g6
VYeah, what the hell's going on?
p25
sg8
VBARTLET
p26
sg10
g11
sa(dp27
g6
VI gave you an extra hour. I checked the schedule and there's absolutely no reason you couldn't sleep an extra hour.
p28
sg8
VABBEY
p29
sg10
g11
sa(dp30
g6
VI know and when she called me at five, I was going to say call me back in an hour and go back to sleep. I was going to do it myself.
p31
sg8
VBARTLET
p32
sg10
g11
sa(dp33
g6
VYou had a little plan.
p34
sg8
VABBEY
p35
sg10
S'negative'
p36
sa(dp37
g6
VYeah, and now I missed the whole thing.
p38
sg8
VBARTLET
p39
sg10
g11
sa(dp40
g6
VI accidentally blew your plan. And you had advisors on this and everything didn't you? You had memos from senior staff on Operation Human Snooze Button.
p41
sg8
VABBEY
p42
sg10
g11
sa(dp43
g6
VOperation Resting Eagle.
p44
sg8
VBARTLET
p45
sg10
g11
sa(dp46
g6
VOh, no, please tell me you didn't really name it.
p47
sg8
VABBEY
p48
sg10
S'positive'
p49
sa(dp50
g6
VYou know I was having a little fun in my sleep. It's how I relax. Wait, let me put my glasses on. Something's turning me on about you, and I can't tell why.
p51
sg8
VBARTLET
p52
sg10
g11
sa(dp53
g6
VMy hair's wet.
p54
sg8
VABBEY
p55
sg10
g11
sa(dp56
g6
VOh, yeah!
p57
sg8
VBARTLET
p58
sg10
g11
sa(dp59
g6
VI was working out.
p60
sg8
VABBEY
p61
sg10
g11
sa(dp62
g6
VI got in late last night.
p63
sg8
VBARTLET
p64
sg10
g11
sa(dp65
g6
VI know, that's why I changed the call.
p66
sg8
VABBEY
p67
sg10
g11
sa(dp68
g6
VWe didn't even leave Nashville until after ten. I ended up touring a weapons research facility in Oak Ridge. They've got one of the most powerful reactors in the world. They were able to show me an insulin molecule. Basically scoop up two zinc ions.
p69
sg8
VBARTLET
p70
sg10
g11
sa(dp71
g6
VBefore your very eyes.
p72
sg8
VABBEY
p73
sg10
g11
sa(dp74
g6
VYou're a scientist and your still making fun of this?
p75
sg8
VBARTLET
p76
sg10
g11
sa(dp77
g6
VNo, I'm making fun of you.
p78
sg8
VABBEY
p79
sg10
g11
sa(dp80
g6
VAnyway, look, I'm trying to tell you something.
p81
sg8
VBARTLET
p82
sg10
g11
sa(dp83
g6
VGood morning.
p84
sg8
VABBEY
p85
sg10
g11
sa(dp86
g6
VGood morning ma'am.
p87
sg8
VSTEWARD
p88
sg10
g11
sa(dp89
g6
VYou know what? That's okay, I'm going to get that.
p90
sg8
VBARTLET
p91
sg10
g11
sa(dp92
g6
VThank you.
p93
sg8
VABBEY
p94
sg10
g49
sa(dp95
g6
VWould you like me to lay out the papers?
p96
sg8
VSTEWARD
p97
sg10
g11
sa(dp98
g6
VNo, I'll get them, thanks.
p99
sg8
VBARTLET
p100
sg10
g11
sa(dp101
g6
VYes sir.
p102
sg8
VSTEWARD
p103
sg10
g49
sa(dp104
g6
VLay out the papers, yes, and today I'd like you to alphabetize them.
p105
sg8
VBARTLET
p106
sg10
g11
sa(dp107
g6
VHe's just doing his job.
p108
sg8
VABBEY
p109
sg10
g11
sa(dp110
g6
VAnyway when we finally got back from Nashville, Leo was waiting.
p111
sg8
VBARTLET
p112
sg10
g11
sa(dp113
g6
VWhat's going on with Leo and Jordan these days?
p114
sg8
VABBEY
p115
sg10
g11
sa(dp116
g6
VI don't know but we're going to be interested in that less right now than we are in other things.
p117
sg8
VBARTLET
p118
sg10
g11
sa(dp119
g6
VWhat's the trouble, Sheriff Taylor?
p120
sg8
VABBEY
p121
sg10
g11
sa(dp122
g6
VForeign Ops came out of mark-up.
p123
sg8
VBARTLET
p124
sg10
g11
sa(dp125
g6
VHow is it?
p126
sg8
VABBEY
p127
sg10
g11
sa(dp128
g6
VIt's good. They only cut two billion and shifted half a billion from the Sub Saharan to Western Europe because I guess the crippling hunger in Provence has given the lactose intolerant a problem with-- I don't know but I can live with all that.
p129
sg8
VBARTLET
p130
sg10
g11
sa(dp131
g6
VGood.
p132
sg8
VABBEY
p133
sg10
g11
sa(dp134
g6
VClancy Bangart attached an amendment.
p135
sg8
VBARTLET
p136
sg10
g11
sa(dp137
g6
VStipulating what?
p138
sg8
VABBEY
p139
sg10
g11
sa(dp140
g6
VStipulating that Foreign Ops dollars wouldn't go to any overseas clinics that council abortion.
p141
sg8
VBARTLET
p142
sg10
g11
sa(dp143
g6
VIs that out of the blue?
p144
sg8
VABBEY
p145
sg10
g11
sa(dp146
g6
VYeah.
p147
sg8
VBARTLET
p148
sg10
g11
sa(dp149
g6
VIt is, I mean, or it was...
p150
sg8
VABBEY
p151
sg10
g11
sa(dp152
g6
VThis is the Senate. They can do that.
p153
sg8
VBARTLET
p154
sg10
g11
sa(dp155
g6
VI was just asking. I mean did Bangart give any indication...?
p156
sg8
VABBEY
p157
sg10
g11
sa(dp158
g6
VNo, there was no indication. Clancy Bangart doesn't let me know what he's thinking.
p159
sg8
VBARTLET
p160
sg10
g11
sa(dp161
g6
VHey, I was just asking you.
p162
sg8
VABBEY
p163
sg10
g49
sa(dp164
g6
VThere's a handful, a handful and a half of cranky conservative Senators who want this stuff, and were waiting to pounce. It's what happened.
p165
sg8
VBARTLET
p166
sg10
g11
sa(dp167
g6
VClancy wants to reinstate the gag rule.
p168
sg8
VABBEY
p169
sg10
g11
sa(dp170
g6
VYeah.
p171
sg8
VBARTLET
p172
sg10
g11
sa(dp173
g6
VIs the bill sunk?
p174
sg8
VABBEY
p175
sg10
g11
sa(dp176
g6
VI'm sorry?
p177
sg8
VBARTLET
p178
sg10
g11
sa(dp179
g6
VHow many Democrats are defecting?
p180
sg8
VABBEY
p181
sg10
g11
sa(dp182
g6
VI don't know yet.
p183
sg8
VBARTLET
p184
sg10
g49
sa(dp185
g6
VHow many would defect if you asked them?
p186
sg8
VABBEY
p187
sg10
g11
sa(dp188
g6
VI don't know.
p189
sg8
VBARTLET
p190
sg10
g11
sa(dp191
g6
VYou didn't make the calls?
p192
sg8
VABBEY
p193
sg10
g11
sa(dp194
g6
VI'm not prepared to do that yet.
p195
sg8
VBARTLET
p196
sg10
g49
sa(dp197
g6
VWhat would happen if you said, "Send me this bill with the gag rule and I'll veto?"
p198
sg8
VABBEY
p199
sg10
g11
sa(dp200
g6
VI don't know.
p201
sg8
VBARTLET
p202
sg10
g11
sa(dp203
g6
VDid you talk to the leadership?
p204
sg8
VABBEY
p205
sg10
g11
sa(dp206
g6
VI'm not prepared to do that yet.
p207
sg8
VBARTLET
p208
sg10
g49
sa(dp209
g6
VIt's not that the money can't go to clinics that perform abortions. It's that it can't go to clinics that talk about abortions.
p210
sg8
VABBEY
p211
sg10
g11
sa(dp212
g6
VI know what the gag rule is.
p213
sg8
VBARTLET
p214
sg10
g11
sa(dp215
g6
VI wasn't reminding you what the gag rule was. I was reminding you that you sent 11,000 U.S. troops to KuHndu because in your inauguration you told us that we were for freedom of speech everywhere.
p216
sg8
VABBEY
p217
sg10
g11
sa(dp218
g6
VThat's great except people are starving to death, and they're dying of disease to death, and they can't cook the Bill of Rights.
p219
sg8
VBARTLET
p220
sg10
g11
sa(dp221
g6
VSo we're for freedom of speech everywhere, but poor countries where they can have our help but only if they live up to Clancy Bangart's moral standards? What the hell kind of free world are you running?
p222
sg8
VABBEY
p223
sg10
g11
sa(dp224
g6
VI really don't know Abbey, the day hasn't started yet.
p225
sg8
VBARTLET
p226
sg10
g11
sa(dp227
g6
VThis is from David Elsin from the USGS-the US Geological Survey-and the Coast Guard Commander Dennis Travis, "Last night at 3:45 a.m. Battletree Lake burst through its natural dam in what is known as a 'glacial lake outburst". Okay, it's a rushing river of ice and water and rock. It's about 300 feet wide and it's sweeping through Kachadee which is a town on one of the sides of the lake.
p228
sg8
VJOSH
p229
sg10
g11
sa(dp230
g6
VA 300 foot wide river of ice and rock is sweeping through a small town?
p231
sg8
VLEO
p232
sg10
g11
sa(dp233
g6
VYeah.
p234
sg8
VJOSH
p235
sg10
g11
sa(dp236
g6
VAnd you think that's funny?
p237
sg8
VLEO
p238
sg10
g11
sa(dp239
g6
VNo.
p240
sg8
VJOSH
p241
sg10
g11
sa(dp242
g6
VI thought you were trying to be funny.
p243
sg8
VLEO
p244
sg10
g11
sa(dp245
g6
VNo, I'm trying to brief you on a state of emergency in Alaska.
p246
sg8
VJOSH
p247
sg10
g11
sa(dp248
g6
VOh, sorry, man. We're on the same page now.
p249
sg8
VLEO
p250
sg10
g11
sa(dp251
g6
VWe have an agreement with Canada and Russia on for mutual assistance in Artic airborne rescue so I think the President's going to need to get on the phone or at the very least be briefed.
p252
sg8
VJOSH
p253
sg10
g11
sa(dp254
g6
VYeah, me too. I think so too. I'll see to it. Why did it happen? Why did the natural dam break?
p255
sg8
VLEO
p256
sg10
g11
sa(dp257
g6
VThe dam was part of a glacier, and the glacier melted.
p258
sg8
VJOSH
p259
sg10
g11
sa(dp260
g6
VThe glacier melted?
p261
sg8
VLEO
p262
sg10
g11
sa(dp263
g6
VIt did.
p264
sg8
VJOSH
p265
sg10
g11
sa(dp266
g6
VGlaciers melt once every hundred million years. This one melted today?
p267
sg8
VLEO
p268
sg10
g11
sa(dp269
g6
VI don't know anything about geology. I think it's been melting for a long time. But, yeah, 3:45 this morning was the straw that broke the camels back.
p270
sg8
VJOSH
p271
sg10
g11
sa(dp272
g6
VAll right.
p273
sg8
VLEO
p274
sg10
g11
sa(dp275
g6
VThank you.
p276
sg8
VJOSH
p277
sg10
g49
sa(dp278
g6
VYou don't want to stand here for a minute and reflect on the fact that a glacier melted this morning.
p279
sg8
VLEO
p280
sg10
g11
sa(dp281
g6
VWell, I would, Leo, but a glacier melted this morning, so at this point Americans are simply trying to outrun it.
p282
sg8
VJOSH
p283
sg10
g11
sa(dp284
g6
VSure. Thank you.
p285
sg8
VLEO
p286
sg10
g49
sa(dp287
g6
VThank you, Leo.
p288
sg8
VJOSH
p289
sg10
g49
sa(dp290
g6
VHey Josh.
p291
sg8
VWILL
p292
sg10
g11
sa(dp293
g6
VA glacier in Alaska melted. You're going to see this on the news in a second. I'll help you prep C.J., but a natural dam broke, there was flooding, and there's going to be a lot more.
p294
sg8
VJOSH
p295
sg10
g11
sa(dp296
g6
VA glacier melted?
p297
sg8
VWILL
p298
sg10
g11
sa(dp299
g6
VDon't fixate on that.
p300
sg8
VJOSH
p301
sg10
g11
sa(dp302
g6
VI'm not fixating, but you know, a glacier melted.
p303
sg8
VWILL
p304
sg10
g11
sa(dp305
g6
VYeah.
p306
sg8
VJOSH
p307
sg10
g11
sa(dp308
g6
VOkay, well I was just going to ask you if by any chance the first lady is a distant relative of a pirate.
p309
sg8
VWILL
p310
sg10
g11
sa(dp311
g6
VSomebody called?
p312
sg8
VJOSH
p313
sg10
g11
sa(dp314
g6
VThe Boston Globe.
p315
sg8
VWILL
p316
sg10
g11
sa(dp317
g6
VC.J., talk to C.J. [to C.J.] He got called by The Globe about Captain Feathersworth.
p318
sg8
VJOSH
p319
sg10
g11
sa(dp320
g6
VIs this for real?
p321
sg8
VWILL
p322
sg10
g11
sa(dp323
g6
VThe Globe?
p324
sg8
VC.J.
p325
sg10
g11
sa(dp326
g6
VBecause the Globe got a call from Marion Cotesworth-Haye of Marblehead who has denounced Mrs. Bartlet's membership in the DAR. I'm sorry but is it okay if I laugh a couple of times during this?
p327
sg8
VWILL
p328
sg10
g11
sa(dp329
g6
VWell at Marion Cotesworth-Haye of Marblehead certainly.
p330
sg8
VC.J.
p331
sg10
g11
sa(dp332
g6
VYeah, anyway, to be a member of the DAR you have to have descended directly--
p333
sg8
VWILL
p334
sg10
g11
sa(dp335
g6
VFrom doilies?
p336
sg8
VC.J.
p337
sg10
g11
sa(dp338
g6
VFrom patriots. And Mrs. Cotesworth-Haye says that the First Lady's qualifying ancestor is Thomas Broom Weathergill, a pirate.
p339
sg8
VWILL
p340
sg10
g11
sa(dp341
g6
VHe wasn't a pirate, he was a privateer.
p342
sg8
VC.J.
p343
sg10
g11
sa(dp344
g6
VHe was a professional pirate.
p345
sg8
VWILL
p346
sg10
g11
sa(dp347
g6
VYeah, but he worked for us, and he was hired by the fathers of the Daughters of the American Revolution.
p348
sg8
VC.J.
p349
sg10
g11
sa(dp350
g6
VOkay, should we tell that to the DAR lady?
p351
sg8
VWILL
p352
sg10
g11
sa(dp353
g6
VIt's not our job to tell things to Mrs. Marble-Haye.
p354
sg8
VC.J.
p355
sg10
g11
sa(dp356
g6
VCotesworth-Haye, and I couldn't agree more, but she's organizing a boycott of the White House reception for the DAR, and that's why the Boston Globe is calling.
p357
sg8
VWILL
p358
sg10
g11
sa(dp359
g6
VHe was a privateer; he wasn't a pirate.
p360
sg8
VC.J.
p361
sg10
g11
sa(dp362
g6
VRight, and also it was a couple hundred years ago, wasn't it?
p363
sg8
VWILL
p364
sg10
g11
sa(dp365
g6
VAll right, I think it's time for a visit to the First Lady's office.
p366
sg8
VC.J.
p367
sg10
g11
sa(dp368
g6
VFor both of us?
p369
sg8
VWILL
p370
sg10
g11
sa(dp371
g6
VYeah.
p372
sg8
VC.J.
p373
sg10
g11
sa(dp374
g6
VYou know I was this close to not answering that phone when it rang.
p375
sg8
VWILL
p376
sg10
g11
sa(dp377
g6
VBut close wasn't good enough was it?
p378
sg8
VC.J.
p379
sg10
g11
sa(dp380
g6
VNo. I'm just telling you that if this day ends up with me face to face with Marion Cotesworth-Haye I'm going to, you know...
p381
sg8
VWILL
p382
sg10
g11
sa(dp383
g6
VLaugh inappropriately.
p384
sg8
VC.J.
p385
sg10
g11
sa(dp386
g6
VThere's a very real possibility.
p387
sg8
VWILL
p388
sg10
g11
sa(dp389
g6
VLet's go.
p390
sg8
VC.J.
p391
sg10
g11
sa(dp392
g6
VMiss Gardner?
p393
sg8
VNAT
p394
sg10
g11
sa(dp395
g6
VYeah.
p396
sg8
VAMY
p397
sg10
g11
sa(dp398
g6
VI'm Nat. We met yesterday during your orientation. I'm an intern here in the First Lady's office. Or I was until Mrs. Bartlet fired my boss and hired you.
p399
sg8
VNAT
p400
sg10
g11
sa(dp401
g6
VYeah okay. Well you can stay, let's see how it works out. Nat?
p402
sg8
VAMY
p403
sg10
g11
sa(dp404
g6
VYeah.
p405
sg8
VNAT
p406
sg10
g11
sa(dp407
g6
VOkay.
p408
sg8
VAMY
p409
sg10
g11
sa(dp410
g6
VAnd Mrs. Bartlet's waiting to see you.
p411
sg8
VNAT
p412
sg10
g11
sa(dp413
g6
VNow?
p414
sg8
VAMY
p415
sg10
g11
sa(dp416
g6
VYeah.
p417
sg8
VNAT
p418
sg10
g11
sa(dp419
g6
VOkay, well, that's the kind of thing you want to tell me first.
p420
sg8
VAMY
p421
sg10
g11
sa(dp422
g6
VMrs. Bartlet.
p423
sg8
VAMY
p424
sg10
g11
sa(dp425
g6
VGood morning.
p426
sg8
VABBEY
p427
sg10
g11
sa(dp428
g6
VI'm sorry ma'am. [to Nat] Thank you.
p429
sg8
VAMY
p430
sg10
g11
sa(dp431
g6
VWhat happened here?
p432
sg8
VABBEY
p433
sg10
g11
sa(dp434
g6
VI don't know. I'm sure it's... Good morning.
p435
sg8
VAMY
p436
sg10
g11
sa(dp437
g6
VRelax.
p438
sg8
VABBEY
p439
sg10
g11
sa(dp440
g6
VOkay.
p441
sg8
VAMY
p442
sg10
g11
sa(dp443
g6
VThis is easy.
p444
sg8
VABBEY
p445
sg10
g11
sa(dp446
g6
VWhat's easy?
p447
sg8
VAMY
p448
sg10
g11
sa(dp449
g6
VWhat I want to talk to you about right now. I'm saying it's your first day and I don't want you to feel overwhelmed by this. The Foreign Ops bill came out of mark-up late last night. Senator Bangart, Clancy Bangart, added an amendment, the global gag rule. I'd like you to get the staff together and start coming up with a way this office can influence the President to let Congress know he'd veto the bill with that amendment attached.
p450
sg8
VABBEY
p451
sg10
g11
sa(dp452
g6
VThe President would want to hear--
p453
sg8
VAMY
p454
sg10
g11
sa(dp455
g6
VWould want to hear from Senior Staff.
p456
sg8
VABBEY
p457
sg10
g11
sa(dp458
g6
VYou want me to get the President to declare his intention to veto his own bill?
p459
sg8
VAMY
p460
sg10
g11
sa(dp461
g6
VYes. No, it's not that easy, but we're going to do it anyway.
p462
sg8
VABBEY
p463
sg10
g11
sa(dp464
g6
VYes ma'am.
p465
sg8
VAMY
p466
sg10
g49
sa(dp467
g6
VStart lobbying.
p468
sg8
VABBEY
p469
sg10
g11
sa(dp470
g6
VYes.
p471
sg8
VAMY
p472
sg10
g49
sa(dp473
g6
VThank you.
p474
sg8
VABBEY
p475
sg10
g49
sa(dp476
g6
VThank you ma'am.
p477
sg8
VAMY
p478
sg10
g49
sa(dp479
g6
VGood morning ma'am.
p480
sg8
VWILL
p481
sg10
g11
sa(dp482
g6
VGood morning. A glacier melted in Alaska.
p483
sg8
VABBEY
p484
sg10
g11
sa(dp485
g6
VAre you a little freaked about that too, ma'am?
p486
sg8
VWILL
p487
sg10
g11
sa(dp488
g6
VNo.
p489
sg8
VABBEY
p490
sg10
g11
sa(dp491
g6
VI didn't mean that I was.
p492
sg8
VWILL
p493
sg10
g11
sa(dp494
g6
V[on her way out the door] Okay.
p495
sg8
VABBEY
p496
sg10
g11
sa(dp497
g6
VAmy, we have a problem for your office.
p498
sg8
VWILL
p499
sg10
g11
sa(dp500
g6
VNo, you can't. 'Cause it's only my first day, and Mrs. Bartlet already has me overthrowing the government.
p501
sg8
VAMY
p502
sg10
g11
sa(dp503
g6
VThe legitimacy of her membership in the DAR is being questioned because her qualifying relative was a pirate.
p504
sg8
VWILL
p505
sg10
g11
sa(dp506
g6
VA pirate?
p507
sg8
VAMY
p508
sg10
g11
sa(dp509
g6
VA pirate, a pirate. Oh, yes, a pirate, he.
p510
sg8
VWILL
p511
sg10
g11
sa(dp512
g6
VA privateer actually.
p513
sg8
VC.J.
p514
sg10
g11
sa(dp515
g6
VIsn't that just a hired pirate?
p516
sg8
VAMY
p517
sg10
g11
sa(dp518
g6
VYeah. Anyway, Mrs. Helena Hodsworth Hooter-Tooter of Braintree wants to organize a boycott of the reception and, well, there it is. Yes, Mrs. Bartlet descends from quite the murderous band of ruffians, and her membership in the DAR is suspect on those grounds or so believes the Boston Globe.
p519
sg8
VC.J.
p520
sg10
g11
sa(dp521
g6
VYour picture frames fell.
p522
sg8
VWILL
p523
sg10
g11
sa(dp524
g6
VYeah, they did Willie.
p525
sg8
VAMY
p526
sg10
g36
sa(dp527
g6
VBurt.
p528
sg8
VTOBY
p529
sg10
g11
sa(dp530
g6
VStopped in to say hello.
p531
sg8
VBURT
p532
sg10
g11
sa(dp533
g6
VYou were in the building?
p534
sg8
VTOBY
p535
sg10
g11
sa(dp536
g6
VThey had us meeting about testimony tomorrow. I'm testifying to House Resources on Polluter Pays. This is Don Novak the lawyer from Kierney-Passaic. Don, this is one of my first roommates, Toby Ziegler.
p537
sg8
VBURT
p538
sg10
g11
sa(dp539
g6
VGood to meet you. You're working for Kierney-Passaic?
p540
sg8
VTOBY
p541
sg10
g11
sa(dp542
g6
VYeah, we don't make chemicals, Toby, we make ideas.
p543
sg8
VBURT
p544
sg10
g11
sa(dp545
g6
VMm-hmm, but what do you sell?
p546
sg8
VTOBY
p547
sg10
g11
sa(dp548
g6
VChemicals.
p549
sg8
VBURT
p550
sg10
g11
sa(dp551
g6
VAnd you're testifying for Polluter Pays?
p552
sg8
VTOBY
p553
sg10
g11
sa(dp554
g6
VYeah.
p555
sg8
VBURT
p556
sg10
g11
sa(dp557
g6
VOn behalf of nature?
p558
sg8
VTOBY
p559
sg10
g11
sa(dp560
g6
VYeah, you know what you know you demonize companies that create jobs.
p561
sg8
VBURT
p562
sg10
g11
sa(dp563
g6
V[laughs] "You demonize companies that create..." You think taxpayers should pay to clean up pollution instead?
p564
sg8
VTOBY
p565
sg10
g11
sa(dp566
g6
VA little bit, yes. A modest amount of pollution is an inevitable cost of any business. Chemical companies are good corporate citizens.
p567
sg8
VBURT
p568
sg10
g11
sa(dp569
g6
VThat's nice to know, but tomorrow we've got 15 scientists who aren't on industry payroll, and you'll have...
p570
sg8
VTOBY
p571
sg10
g11
sa(dp572
g6
VThe republican majority actually.
p573
sg8
VDON
p574
sg10
g11
sa(dp575
g6
VYeah, well, that's got to help.
p576
sg8
VTOBY
p577
sg10
g11
sa(dp578
g6
VIt does.
p579
sg8
VDON
p580
sg10
g11
sa(dp581
g6
VI just wanted to say hi.
p582
sg8
VBURT
p583
sg10
g11
sa(dp584
g6
VGood luck tomorrow.
p585
sg8
VTOBY
p586
sg10
g11
sa(dp587
g6
VNice meeting you.
p588
sg8
VDON
p589
sg10
g49
sa(dp590
g6
VYeah.
p591
sg8
VTOBY
p592
sg10
g11
sa(dp593
g6
VI forgot to ask about his kids.
p594
sg8
VBURT
p595
sg10
g11
sa(dp596
g6
VHuh?
p597
sg8
VDON
p598
sg10
g11
sa(dp599
g6
VHis wife is pregnant with twins. Not his-- his ex wife actually. I don't want him to think I was being rude. Hang on a second.
p600
sg8
VBURT
p601
sg10
g11
sa(dp602
g6
VExcuse me...
p603
sg8
VBURT
p604
sg10
g11
sa(dp605
g6
VYeah?
p606
sg8
VTOBY
p607
sg10
g11
sa(dp608
g6
VI'm supposed to be in here looking at pictures of Andy. Could you take out your wallet and look for a picture?
p609
sg8
VBURT
p610
sg10
g11
sa(dp611
g6
VWhat?
p612
sg8
VTOBY
p613
sg10
g11
sa(dp614
g6
VToby, please take out your wallet and look for a picture you can show me. Kierney-Passaic's been lying for three years. I need protection under federal whistle blower laws.
p615
sg8
VBURT
p616
sg10
g11
sa(dp617
g6
VThat's nice. Oh, she looks great there. Is that from Christmas?
p618
sg8
VBURT
p619
sg10
g11
sa(dp620
g6
VYeah.
p621
sg8
VTOBY
p622
sg10
g11
sa(dp623
g6
VWhen are the twins due?
p624
sg8
VBURT
p625
sg10
g11
sa(dp626
g6
VBurt are you defecting?
p627
sg8
VTOBY
p628
sg10
g49
sa(dp629
g6
VYeah.
p630
sg8
VBURT
p631
sg10
g11
sa(dp632
g6
VThey're due in May. It's a boy and a girl. We can't decide on names. She likes Rebecca or Sophie for girls. I like Sophie too, but I think a lot of kids are named Sophie now. And I like Rebecca, but I also like Millicent and, which she doesn't like at all, and we're nowhere with boy's names.
p633
sg8
VTOBY
p634
sg10
g11
sa(dp635
g6
VBut they say it comes to you, and we've got a little time. We're still working on it.
p636
sg8
VTOBY
p637
sg10
g11
sa(dp638
g6
VWhat's going on?
p639
sg8
VJOSH
p640
sg10
g11
sa(dp641
g6
VHang on.
p642
sg8
VTOBY
p643
sg10
g11
sa(dp644
g6
VWhat's going on?
p645
sg8
VJOSH
p646
sg10
g11
sa(dp647
g6
VCool out.
p648
sg8
VTOBY
p649
sg10
g11
sa(dp650
g6
VI got a call that said that--
p651
sg8
VJOSH
p652
sg10
g11
sa(dp653
g6
VCool out.
p654
sg8
VTOBY
p655
sg10
g11
sa(dp656
g6
VWho are those two guys talking over there?
p657
sg8
VJOSH
p658
sg10
g11
sa(dp659
g6
VWould you cool out?
p660
sg8
VTOBY
p661
sg10
g11
sa(dp662
g6
VOkay.
p663
sg8
VBURT
p664
sg10
g11
sa(dp665
g6
VIt's okay.
p666
sg8
VTOBY
p667
sg10
g11
sa(dp668
g6
VI told him... this is...
p669
sg8
VBURT
p670
sg10
g11
sa(dp671
g6
VThis is Josh Lyman, it's okay.
p672
sg8
VTOBY
p673
sg10
g11
sa(dp674
g6
VI told him we were going to go get some coffee and catch up.
p675
sg8
VBURT
p676
sg10
g11
sa(dp677
g6
VThis is Burt Gantz. Burt's the... what's your title again Burt?
p678
sg8
VTOBY
p679
sg10
g11
sa(dp680
g6
VDirector of Scientific Research at Kierney-Passaic.
p681
sg8
VBURT
p682
sg10
g11
sa(dp683
g6
VHe's testifying tomorrow on Polluter Pays.
p684
sg8
VTOBY
p685
sg10
g11
sa(dp686
g6
VI've, I've read your testimony.
p687
sg8
VJOSH
p688
sg10
g11
sa(dp689
g6
VYeah, but...
p690
sg8
VTOBY
p691
sg10
g11
sa(dp692
g6
VHis testimony's been written already.
p693
sg8
VJOSH
p694
sg10
g11
sa(dp695
g6
VIt was.
p696
sg8
VBURT
p697
sg10
g11
sa(dp698
g6
VAnd it says?
p699
sg8
VJOSH
p700
sg10
g11
sa(dp701
g6
VThat Polluter Pays is unfair and unreasonable. That our technology and process is as safe as is practicably possible and that even an insurance bond is ridiculous because there's no evidence we're causing environmental damage.
p702
sg8
VBURT
p703
sg10
g11
sa(dp704
g6
VSo we just saved the committee a lot of time.
p705
sg8
VJOSH
p706
sg10
g11
sa(dp707
g6
VHe wants to change his testimony.
p708
sg8
VTOBY
p709
sg10
g11
sa(dp710
g6
VTo what?
p711
sg8
VJOSH
p712
sg10
g11
sa(dp713
g6
VKierney-Passaic has been concealing from the EPA and local health officials the amount of highly carcinogenic toxins at three of our waste disposal sites.
p714
sg8
VBURT
p715
sg10
g11
sa(dp716
g6
VYou have?
p717
sg8
VJOSH
p718
sg10
g11
sa(dp719
g6
VYes.
p720
sg8
VBURT
p721
sg10
g49
sa(dp722
g6
VWhat is the amount?
p723
sg8
VJOSH
p724
sg10
g11
sa(dp725
g6
VLots.
p726
sg8
VBURT
p727
sg10
g11
sa(dp728
g6
VLots?
p729
sg8
VJOSH
p730
sg10
g11
sa(dp731
g6
VYes.
p732
sg8
VBURT
p733
sg10
g49
sa(dp734
g6
VSo Kierney-Passaic's not been damaging the environment quite so much as they've been--
p735
sg8
VJOSH
p736
sg10
g11
sa(dp737
g6
VCausing cancer. I have documentation.
p738
sg8
VBURT
p739
sg10
g36
sa(dp740
g6
VStay here and don't say anything to anyone till I call. Who knows he's here?
p741
sg8
VJOSH
p742
sg10
g11
sa(dp743
g6
VA lawyer from K-P.
p744
sg8
VTOBY
p745
sg10
g11
sa(dp746
g6
V[exiting] Wait till I call.
p747
sg8
VJOSH
p748
sg10
g11
sa(dp749
g6
VJosh, Amy Gardner was looking for you.
p750
sg8
VBONNIE
p751
sg10
g11
sa(dp752
g6
VHi.
p753
sg8
VAMY
p754
sg10
g11
sa(dp755
g6
VIt's your first day.
p756
sg8
VJOSH
p757
sg10
g11
sa(dp758
g6
VYes.
p759
sg8
VAMY
p760
sg10
g49
sa(dp761
g6
VIs it true that everything fell off your wall?
p762
sg8
VJOSH
p763
sg10
g11
sa(dp764
g6
VHow do you know that?
p765
sg8
VAMY
p766
sg10
g11
sa(dp767
g6
VI'm everywhere.
p768
sg8
VJOSH
p769
sg10
g11
sa(dp770
g6
VOh, well I've been orientating myself for the last few days so I'm fine.
p771
sg8
VAMY
p772
sg10
g11
sa(dp773
g6
VOkay, but I don't think orientating is a word. Do you have an assignment?
p774
sg8
VJOSH
p775
sg10
g11
sa(dp776
g6
VYes, can I see you in your office?
p777
sg8
VAMY
p778
sg10
g11
sa(dp779
g6
VDonna, I need to speak to someone from the Council's Office.
p780
sg8
VJOSH
p781
sg10
g11
sa(dp782
g6
VYeah.
p783
sg8
VDONNA
p784
sg10
g11
sa(dp785
g6
VClancy Bangart attached...
p786
sg8
VAMY
p787
sg10
g11
sa(dp788
g6
VAttached a global gag rule to Foreign Ops and the first Lady's fershnicked.
p789
sg8
VJOSH
p790
sg10
g11
sa(dp791
g6
VShe's what?
p792
sg8
VAMY
p793
sg10
g11
sa(dp794
g6
VShe's fershnicked.
p795
sg8
VJOSH
p796
sg10
g11
sa(dp797
g6
VWell she's not the only one.
p798
sg8
VAMY
p799
sg10
g11
sa(dp800
g6
VYou too?
p801
sg8
VJOSH
p802
sg10
g11
sa(dp803
g6
VI was thinking about the 62% of us who support a woman's right to choose.
p804
sg8
VAMY
p805
sg10
g11
sa(dp806
g6
V57%
p807
sg8
VJOSH
p808
sg10
g11
sa(dp809
g6
VKaiser says 62.
p810
sg8
VAMY
p811
sg10
g11
sa(dp812
g6
VAnd I'm one of them.
p813
sg8
VJOSH
p814
sg10
g11
sa(dp815
g6
VThis is a huge step forward for the other 38.
p816
sg8
VAMY
p817
sg10
g11
sa(dp818
g6
VYou think I like it more than you do?
p819
sg8
VJOSH
p820
sg10
g11
sa(dp821
g6
VI don't know, but I also don't think you have a reproductive system.
p822
sg8
VAMY
p823
sg10
g11
sa(dp824
g6
VI do not.
p825
sg8
VJOSH
p826
sg10
g11
sa(dp827
g6
VThe President should make it clear he'll veto Foreign Ops with the gag amendment.
p828
sg8
VAMY
p829
sg10
g11
sa(dp830
g6
VHe should veto his own bill?
p831
sg8
VJOSH
p832
sg10
g11
sa(dp833
g6
VNo, he should--
p834
sg8
VAMY
p835
sg10
g11
sa(dp836
g6
VLet me jot that down.
p837
sg8
VJOSH
p838
sg10
g11
sa(dp839
g6
VNo he should threaten to veto.
p840
sg8
VAMY
p841
sg10
g11
sa(dp842
g6
VIf he does then he has to veto.
p843
sg8
VJOSH
p844
sg10
g11
sa(dp845
g6
VI'm saying with the threat maybe the more moderate Senators will insist the attachment be taken off.
p846
sg8
VAMY
p847
sg10
g11
sa(dp848
g6
VYeah, but if Amy's plan of magic and wonder doesn't he's got to veto Foreign Ops after not one, two, but three continuing resolutions. We need a win and 230 million people overseas need a sandwich so he can't veto Foreign Ops. Donna!
p849
sg8
VJOSH
p850
sg10
g11
sa(dp851
g6
VWhat can we do?
p852
sg8
VAMY
p853
sg10
g11
sa(dp854
g6
VWhat?
p855
sg8
VJOSH
p856
sg10
g11
sa(dp857
g6
VWhat can we do?
p858
sg8
VAMY
p859
sg10
g11
sa(dp860
g6
VThey tried to attach it to everything in the last four years and we've beaten it back every time with executive orders but this one's going to be law and we have to eat it.
p861
sg8
VJOSH
p862
sg10
g11
sa(dp863
g6
VOkay.
p864
sg8
VAMY
p865
sg10
g11
sa(dp866
g6
VWhy did your stuff fall off the wall?
p867
sg8
VJOSH
p868
sg10
g11
sa(dp869
g6
VI don't know. Thanks.
p870
sg8
VAMY
p871
sg10
g11
sa(dp872
g6
VDonna.
p873
sg8
VJOSH
p874
sg10
g11
sa(dp875
g6
VYeah?
p876
sg8
VDONNA
p877
sg10
g11
sa(dp878
g6
VDid you get me in with the council's office?
p879
sg8
VJOSH
p880
sg10
g11
sa(dp881
g6
VThey're all in a meeting till after lunch.
p882
sg8
VDONNA
p883
sg10
g11
sa(dp884
g6
VAll right, after lunch then?
p885
sg8
VJOSH
p886
sg10
g11
sa(dp887
g6
VYeah.
p888
sg8
VDONNA
p889
sg10
g11
sa(dp890
g6
VHey, you know how you really want to go to the DAR reception tonight?
p891
sg8
VJOSH
p892
sg10
g11
sa(dp893
g6
VI didn't want to go to the reception.
p894
sg8
VDONNA
p895
sg10
g11
sa(dp896
g6
VWell you're going. The Secret Service needs us to baby-sit someone. One of the Daughters of the American Revolution is also the daughter of the ranking member of House Armed Services.
p897
sg8
VJOSH
p898
sg10
g11
sa(dp899
g6
VSo she needs to be shadowed?
p900
sg8
VDONNA
p901
sg10
g11
sa(dp902
g6
VNot her, her date. Matthew Lambert, 26, was arrested when he was 21 and a senior at Emerson. He was arrested for selling drugs and found guilty of a felony and the Secret Service won't let him in unless someone who's credentialed is watching him.
p903
sg8
VJOSH
p904
sg10
g11
sa(dp905
g6
VI have to stay with him the whole night?
p906
sg8
VDONNA
p907
sg10
g11
sa(dp908
g6
VYeah, and he won't know why, so try to be cool.
p909
sg8
VJOSH
p910
sg10
g11
sa(dp911
g6
VHe won't know why?
p912
sg8
VDONNA
p913
sg10
g11
sa(dp914
g6
VOr his girlfriend I would think. After lunch with the council's office?
p915
sg8
VJOSH
p916
sg10
g11
sa(dp917
g6
VCan I talk to him?
p918
sg8
VDONNA
p919
sg10
g11
sa(dp920
g6
VIf you want but don't tell him we regard him as a security risk. It's just, you know, inhospitable.
p921
sg8
VJOSH
p922
sg10
g11
sa(dp923
g6
VYeah.
p924
sg8
VDONNA
p925
sg10
g11
sa(dp926
g6
VWhy?
p927
sg8
VLEO
p928
sg10
g11
sa(dp929
g6
VFor one thing most of them don't have addresses anymore.
p930
sg8
VHENDRICKS
p931
sg10
g11
sa(dp932
g6
VPaul...
p933
sg8
VLEO
p934
sg10
g11
sa(dp935
g6
VAnd for another there are high winds in the more exposed areas right on the shore.
p936
sg8
VHENDRICKS
p937
sg10
g11
sa(dp938
g6
VAll right, and Canada?
p939
sg8
VLEO
p940
sg10
g11
sa(dp941
g6
VCanada's delivering the Pavehawks inside the hour.
p942
sg8
VHENDRICKS
p943
sg10
g11
sa(dp944
g6
VCan someone tell me why this happened? Is this an act of God?
p945
sg8
VLEO
p946
sg10
g11
sa(dp947
g6
VI'm sorry?
p948
sg8
VLEO
p949
sg10
g11
sa(dp950
g6
VThis is Hillary Toobin. She's a hydroclimatologist with the USGS.
p951
sg8
VHENDRICKS
p952
sg10
g11
sa(dp953
g6
VWhat's a hydroclimatologist?
p954
sg8
VLEO
p955
sg10
g11
sa(dp956
g6
VAn expert in what I'm about to say. Mean temperatures in Alaska have risen seven degrees in the last 30 years. That's insane. The temperature hike has caused glaciers to shrink and go backwards, leaving lakes of melted glacier water in their wake. A shift in these collapsing glaciers puts pressure on the lakes forcing them to overflow their natural limits, and killing, this morning, 14 people, not spotted owls.
p957
sg8
VHILLARY
p958
sg10
g11
sa(dp959
g6
VAre you telling me the deaths this morning are the first fatalities of global warming?
p960
sg8
VLEO
p961
sg10
g11
sa(dp962
g6
VThey're definitely global warming fatalities, but I doubt that they're the first.
p963
sg8
VHILLARY
p964
sg10
g11
sa(dp965
g6
VOkay. Can you stay around for a while?
p966
sg8
VLEO
p967
sg10
g11
sa(dp968
g6
VYeah.
p969
sg8
VHENDRICKS
p970
sg10
g11
sa(dp971
g6
VMrs. Bartlet.
p972
sg8
VAMY
p973
sg10
g11
sa(dp974
g6
VHi. You know the stuff fell off the wall again.
p975
sg8
VABBEY
p976
sg10
g11
sa(dp977
g6
VDid it?
p978
sg8
VAMY
p979
sg10
g11
sa(dp980
g6
VYeah, I think some of the guys might be having fun with you on your first day.
p981
sg8
VABBEY
p982
sg10
g11
sa(dp983
g6
VThey're such rascals.
p984
sg8
VAMY
p985
sg10
g11
sa(dp986
g6
VYes.
p987
sg8
VABBEY
p988
sg10
g49
sa(dp989
g6
VI'm just coming from seeing Josh.
p990
sg8
VAMY
p991
sg10
g11
sa(dp992
g6
VAnd?
p993
sg8
VABBEY
p994
sg10
g11
sa(dp995
g6
VWell his point, and it's reasonable I think, is that the President can't threaten to do what he's not prepared to do.
p996
sg8
VAMY
p997
sg10
g11
sa(dp998
g6
VI wasn't talking about an empty threat.
p999
sg8
VABBEY
p1000
sg10
g11
sa(dp1001
g6
VHe's... he's not going to veto his own Foreign Ops proposal.
p1002
sg8
VAMY
p1003
sg10
g11
sa(dp1004
g6
VIt's not his, it's the Senate's.
p1005
sg8
VABBEY
p1006
sg10
g11
sa(dp1007
g6
VIt's his.
p1008
sg8
VAMY
p1009
sg10
g11
sa(dp1010
g6
VWith this attached?
p1011
sg8
VABBEY
p1012
sg10
g36
sa(dp1013
g6
VIt's 18 billion dollars worth of appropriations. It's 950 million for child survival, 140 million for infectious diseases. The White House will have to negotiate another aid package a year from now. Why not gear up for that when I've been on the job for a year--?
p1014
sg8
VAMY
p1015
sg10
g11
sa(dp1016
g6
VNo!
p1017
sg8
VABBEY
p1018
sg10
g11
sa(dp1019
g6
V--instead of the 5 hours I've been on the job right now.
p1020
sg8
VAMY
p1021
sg10
g11
sa(dp1022
g6
VShould I get someone else?
p1023
sg8
VABBEY
p1024
sg10
g11
sa(dp1025
g6
VOf course not, ma'am. That's not what I was saying.
p1026
sg8
VAMY
p1027
sg10
g11
sa(dp1028
g6
VWhat right do we have to restrict anything anyone says anywhere, much less what a doctor can say to a woman who needs a doctor? That's right. My husband is one of the most liberal Presidents this country is likely to see for a while. I don't have that many next years left.
p1029
sg8
VABBEY
p1030
sg10
g11
sa(dp1031
g6
VI think you're wrong there, but...
p1032
sg8
VAMY
p1033
sg10
g11
sa(dp1034
g6
VLet's get back to it.
p1035
sg8
VABBEY
p1036
sg10
g11
sa(dp1037
g6
VYes, ma'am.
p1038
sg8
VAMY
p1039
sg10
g49
sa(dp1040
g6
VHey, what's going on?
p1041
sg8
VWILL
p1042
sg10
g11
sa(dp1043
g6
VYou mean in Alaska?
p1044
sg8
VCHARLIE
p1045
sg10
g11
sa(dp1046
g6
VI meant in general.
p1047
sg8
VWILL
p1048
sg10
g11
sa(dp1049
g6
VHang on... I got a Dear John letter from Zoey. She's breaking up with me again. In email. It's a Dear John email from my ex-girlfriend. This is going to be a high self-image day for me.
p1050
sg8
VCHARLIE
p1051
sg10
g11
sa(dp1052
g6
VWhy is she breaking up with you again?
p1053
sg8
VWILL
p1054
sg10
g11
sa(dp1055
g6
VI make Jean-Paul uncomfortable. They've had a talk.
p1056
sg8
VCHARLIE
p1057
sg10
g11
sa(dp1058
g6
VSo it's really your ex-girlfriend, on behalf of her new boyfriend, who sent you a Dear John email.
p1059
sg8
VWILL
p1060
sg10
g11
sa(dp1061
g6
VYeah that makes it better.
p1062
sg8
VCHARLIE
p1063
sg10
g11
sa(dp1064
g6
VWhat brought this on?
p1065
sg8
VWILL
p1066
sg10
g11
sa(dp1067
g6
VZoey's being indicted into the DAR and there's a reception. And Jean-Paul thinks it's unnatural, and he's the son of a Count.
p1068
sg8
VCHARLIE
p1069
sg10
g11
sa(dp1070
g6
VOh, who isn't?
p1071
sg8
VWILL
p1072
sg10
g11
sa(dp1073
g6
VAn email.
p1074
sg8
VCHARLIE
p1075
sg10
g11
sa(dp1076
g6
VYou're going to take this lying down?
p1077
sg8
VWILL
p1078
sg10
g11
sa(dp1079
g6
VNo, I'll be standing up most of the time.
p1080
sg8
VCHARLIE
p1081
sg10
g11
sa(dp1082
g6
VI'm serious.
p1083
sg8
VWILL
p1084
sg10
g11
sa(dp1085
g6
VWhat other way is there for me to take it?
p1086
sg8
VCHARLIE
p1087
sg10
g11
sa(dp1088
g6
VBelligerently.
p1089
sg8
VWILL
p1090
sg10
g11
sa(dp1091
g6
VBelligerently?
p1092
sg8
VCHARLIE
p1093
sg10
g11
sa(dp1094
g6
VI'd say no. I'd do it respectfully.
p1095
sg8
VWILL
p1096
sg10
g11
sa(dp1097
g6
VYou'd say no?
p1098
sg8
VCHARLIE
p1099
sg10
g11
sa(dp1100
g6
VRespectfully.
p1101
sg8
VWILL
p1102
sg10
g11
sa(dp1103
g6
VWhat would that sound like?
p1104
sg8
VCHARLIE
p1105
sg10
g11
sa(dp1106
g6
VZoey, you say Jean-Paul is uncomfortable with our relationship and he'd rather I not be around, and I respectfully say no.
p1107
sg8
VWILL
p1108
sg10
g11
sa(dp1109
g6
VCan I ask you something?
p1110
sg8
VCHARLIE
p1111
sg10
g11
sa(dp1112
g6
VSure.
p1113
sg8
VWILL
p1114
sg10
g11
sa(dp1115
g6
VDo you have a girlfriend right now?
p1116
sg8
VCHARLIE
p1117
sg10
g11
sa(dp1118
g6
VNo.
p1119
sg8
VWILL
p1120
sg10
g11
sa(dp1121
g6
VWhen was the last time you had one?
p1122
sg8
VCHARLIE
p1123
sg10
g11
sa(dp1124
g6
VAbout 9 months ago.
p1125
sg8
VWILL
p1126
sg10
g11
sa(dp1127
g6
VHow long did it last?
p1128
sg8
VCHARLIE
p1129
sg10
g11
sa(dp1130
g6
VA couple of days.
p1131
sg8
VWILL
p1132
sg10
g11
sa(dp1133
g6
VOkay.
p1134
sg8
VCHARLIE
p1135
sg10
g11
sa(dp1136
g6
VIn my own defense, she was psycho.
p1137
sg8
VWILL
p1138
sg10
g11
sa(dp1139
g6
VSo why are you giving me relationship help?
p1140
sg8
VCHARLIE
p1141
sg10
g11
sa(dp1142
g6
VBecause I'm the only one in this conversation who didn't get a Dear John email from his ex-girlfriend's boyfriend.
p1143
sg8
VWILL
p1144
sg10
g11
sa(dp1145
g6
VGod, that's really true isn't it?
p1146
sg8
VCHARLIE
p1147
sg10
g11
sa(dp1148
g6
VWill!
p1149
sg8
VC.J.
p1150
sg10
g11
sa(dp1151
g6
VExcuse me.
p1152
sg8
VWILL
p1153
sg10
g11
sa(dp1154
g6
VShe's coming right now.
p1155
sg8
VC.J.
p1156
sg10
g11
sa(dp1157
g6
VI got a message saying I should meet you both here.
p1158
sg8
VAMY
p1159
sg10
g11
sa(dp1160
g6
VYes. We think we solved your problem.
p1161
sg8
VC.J.
p1162
sg10
g11
sa(dp1163
g6
VWhich problem?
p1164
sg8
VAMY
p1165
sg10
g11
sa(dp1166
g6
VMarion Cotesworth-Haye of Marblehead.
p1167
sg8
VC.J.
p1168
sg10
g11
sa(dp1169
g6
VWho's organizing a boycott of the reception?
p1170
sg8
VAMY
p1171
sg10
g11
sa(dp1172
g6
VYes.
p1173
sg8
VC.J.
p1174
sg10
g49
sa(dp1175
g6
VHow big a problem is it?
p1176
sg8
VAMY
p1177
sg10
g11
sa(dp1178
g6
VNot a problem at all, because we have her here.
p1179
sg8
VC.J.
p1180
sg10
g11
sa(dp1181
g6
VHere in the White House?
p1182
sg8
VAMY
p1183
sg10
g11
sa(dp1184
g6
VHere in the Mural room.
p1185
sg8
VC.J.
p1186
sg10
g11
sa(dp1187
g6
VI thought she lives in Marblehead.
p1188
sg8
VAMY
p1189
sg10
g11
sa(dp1190
g6
VTurns out she came to Washington.
p1191
sg8
VC.J.
p1192
sg10
g11
sa(dp1193
g6
VTo boycott the reception?
p1194
sg8
VAMY
p1195
sg10
g11
sa(dp1196
g6
VWhat do you care? Just go in there and talk it through, and if you feel like that isn't working, tell her the First Lady wants to give her an award tonight.
p1197
sg8
VC.J.
p1198
sg10
g11
sa(dp1199
g6
VI make up an award?
p1200
sg8
VAMY
p1201
sg10
g11
sa(dp1202
g6
VSave yourself the headache.
p1203
sg8
VC.J.
p1204
sg10
g11
sa(dp1205
g6
VAm I being hazed? Is this a hazing? 'Cause I'll go along and everything but I have to see Josh again so...
p1206
sg8
VAMY
p1207
sg10
g11
sa(dp1208
g6
VIt's not a hazing. They don't do that... except, yes, you put olives in my jacket again.
p1209
sg8
VWILL
p1210
sg10
g11
sa(dp1211
g6
VI did. I did put olives in his jacket but this is on the level.
p1212
sg8
VC.J.
p1213
sg10
g11
sa(dp1214
g6
VOkay.
p1215
sg8
VAMY
p1216
sg10
g11
sa(dp1217
g6
VHang on.
p1218
sg8
VC.J.
p1219
sg10
g11
sa(dp1220
g6
VWhat?
p1221
sg8
VAMY
p1222
sg10
g11
sa(dp1223
g6
VI got to make sure I don't laugh.
p1224
sg8
VC.J.
p1225
sg10
g11
sa(dp1226
g6
VOh God.
p1227
sg8
VAMY
p1228
sg10
g11
sa(dp1229
g6
VIt's a funny name to me, that's all, just give me a second. Hang on. Okay.
p1230
sg8
VC.J.
p1231
sg10
g11
sa(dp1232
g6
VMr. Thomas?
p1233
sg8
VC.J.
p1234
sg10
g11
sa(dp1235
g6
VI'm C.J. Cregg. My assistant spoke to you on the phone. Mrs. Cotesworth-Haye, I'm C.J. Cregg. I'm the White House Press Secretary. This is Will Bailey our Deputy Communications Director and Amelia Gardner, who's the First Lady's Chief of Staff. And this is her first day as a matter of fact. We're so happy you could take the time to come over so we could talk this through.
p1236
sg8
VC.J.
p1237
sg10
g11
sa(dp1238
g6
V[starts laughing hysterically] I'm sorry. I was... I was... thinking of this thing from... this thing that just happened... with the deficit. I'm sorry...
p1239
sg8
VC.J.
p1240
sg10
g11
sa(dp1241
g6
VOh God. Excuse us.
p1242
sg8
VAMY
p1243
sg10
g11
sa(dp1244
g6
VIs this a hazing?
p1245
sg8
VAMY
p1246
sg10
g36
sa(dp1247
g6
VI swear it's not a hazing. It's real. It's real. I just laughed 'cause of the name. You've got to fix it.
p1248
sg8
VC.J.
p1249
sg10
g11
sa(dp1250
g6
VMa'am.
p1251
sg8
VAMY
p1252
sg10
g11
sa(dp1253
g6
VThis is my secretary Mr. Thomas.
p1254
sg8
VMARION
p1255
sg10
g11
sa(dp1256
g6
VGood to meet you. Ma'am, the First Lady was saddened to see you weren't going to be attending the reception tonight.
p1257
sg8
VAMY
p1258
sg10
g11
sa(dp1259
g6
VShe was saddened? That doesn't sound like Abigail.
p1260
sg8
VMARION
p1261
sg10
g11
sa(dp1262
g6
VWell the problem is, and you weren't to be told before hand, but Mrs. Bartlet, during the presentation of honors this evening, was to personally present you with an award.
p1263
sg8
VAMY
p1264
sg10
g11
sa(dp1265
g6
VI hadn't heard about this.
p1266
sg8
VMARION
p1267
sg10
g11
sa(dp1268
g6
VShe likes to keep it a surprise. For the faces, the surprise faces.
p1269
sg8
VAMY
p1270
sg10
g11
sa(dp1271
g6
VMay I ask what the award is for?
p1272
sg8
VMARION
p1273
sg10
g11
sa(dp1274
g6
VIt's for your many years of service.
p1275
sg8
VAMY
p1276
sg10
g11
sa(dp1277
g6
VIs this the Liberty Award?
p1278
sg8
VMARION
p1279
sg10
g11
sa(dp1280
g6
VNo...
p1281
sg8
VAMY
p1282
sg10
g11
sa(dp1283
g6
VIt's a key.
p1284
sg8
VAMY
p1285
sg10
g11
sa(dp1286
g6
V...The Francis Scott key. It's the Francis Scott Key key.
p1287
sg8
VAMY
p1288
sg10
g11
sa(dp1289
g6
VWell that is a different foxhunt all together isn't it?
p1290
sg8
VMARION
p1291
sg10
g11
sa(dp1292
g6
VYes. You'll be there?
p1293
sg8
VAMY
p1294
sg10
g11
sa(dp1295
g6
VI will strongly consider it, yes.
p1296
sg8
VMARION
p1297
sg10
g11
sa(dp1298
g6
VThank you. [to Will] Thank you.
p1299
sg8
VAMY
p1300
sg10
g11
sa(dp1301
g6
VThank you.
p1302
sg8
VC.J.
p1303
sg10
g49
sa(dp1304
g6
VThank you.
p1305
sg8
VWILL
p1306
sg10
g49
sa(dp1307
g6
VYou know what happened? I didn't have my game face on.
p1308
sg8
VC.J.
p1309
sg10
g11
sa(dp1310
g6
VYes.
p1311
sg8
VAMY
p1312
sg10
g49
sa(dp1313
g6
VAnyway, problem solved.
p1314
sg8
VC.J.
p1315
sg10
g11
sa(dp1316
g6
VExcuse me.
p1317
sg8
VAMY
p1318
sg10
g11
sa(dp1319
g6
VJosh. Excuse me.
p1320
sg8
VAMY
p1321
sg10
g11
sa(dp1322
g6
VHey, is it true your office doors fell down?
p1323
sg8
VJOSH
p1324
sg10
g11
sa(dp1325
g6
VYeah, I understand how you did that, but how did you get the stuff to fall off the wall?
p1326
sg8
VAMY
p1327
sg10
g11
sa(dp1328
g6
VThe guys from Army Counter-Intelligence get a bunch of boys, I don't ask questions.
p1329
sg8
VJOSH
p1330
sg10
g11
sa(dp1331
g6
VI was wondering...
p1332
sg8
VAMY
p1333
sg10
g11
sa(dp1334
g6
VHang on.
p1335
sg8
VJOSH
p1336
sg10
g11
sa(dp1337
g6
VWhy?
p1338
sg8
VAMY
p1339
sg10
g11
sa(dp1340
g6
VIt's a public lobby.
p1341
sg8
VJOSH
p1342
sg10
g11
sa(dp1343
g6
VI don't know launch sequences.
p1344
sg8
VAMY
p1345
sg10
g11
sa(dp1346
g6
V[chuckles] She really doesn't so everything's fine.
p1347
sg8
VJOSH
p1348
sg10
g11
sa(dp1349
g6
VWould you consider having the Senior Staff write a statement of administrative policy?
p1350
sg8
VAMY
p1351
sg10
g11
sa(dp1352
g6
VWe write SAP's all the time. Saying what?
p1353
sg8
VJOSH
p1354
sg10
g11
sa(dp1355
g6
VSaying the President should veto a Foreign Ops bill if it comes to him--
p1356
sg8
VAMY
p1357
sg10
g11
sa(dp1358
g6
VNo.
p1359
sg8
VJOSH
p1360
sg10
g11
sa(dp1361
g6
V--if it comes to him with a gag rule.
p1362
sg8
VAMY
p1363
sg10
g11
sa(dp1364
g6
VHe's not going to veto Foreign Ops.
p1365
sg8
VJOSH
p1366
sg10
g11
sa(dp1367
g6
VThreaten to veto.
p1368
sg8
VAMY
p1369
sg10
g11
sa(dp1370
g6
VHe's not going to threaten to veto--
p1371
sg8
VJOSH
p1372
sg10
g11
sa(dp1373
g6
VNot the President, the staff. The staff writes an SAP which is public, it might get enough moderate republicans--
p1374
sg8
VAMY
p1375
sg10
g11
sa(dp1376
g6
VFirst of all, I don't think it will.
p1377
sg8
VJOSH
p1378
sg10
g11
sa(dp1379
g6
VIt might.
p1380
sg8
VAMY
p1381
sg10
g11
sa(dp1382
g6
VBut if it doesn't?
p1383
sg8
VJOSH
p1384
sg10
g11
sa(dp1385
g6
VIf it doesn't, then he signs it.
p1386
sg8
VAMY
p1387
sg10
g11
sa(dp1388
g6
VThen we look like a bunch of empty shirts.
p1389
sg8
VJOSH
p1390
sg10
g11
sa(dp1391
g6
VWho?
p1392
sg8
VAMY
p1393
sg10
g11
sa(dp1394
g6
VThe Senior Staff.
p1395
sg8
VJOSH
p1396
sg10
g11
sa(dp1397
g6
VThat's vanity.
p1398
sg8
VAMY
p1399
sg10
g11
sa(dp1400
g6
VNo, it is not. I am at my most effective for this country when lawmakers are under the impression that I have influence with the President, so is Leo, and so is Toby, so is C.J., so is the Vice President. We're not giving back Roe. We're going to swallow it on Foreign Ops, that is all. It's a good package, and I'm celebrating tonight.
p1401
sg8
VJOSH
p1402
sg10
g11
sa(dp1403
g6
VWith the Daughters of the American Revolution?
p1404
sg8
VAMY
p1405
sg10
g11
sa(dp1406
g6
VThe daughters of any revolution will do. Listen, I'm not going to ask for an SAP on the resolution, but I think it's important enough that I don't mind if you go over my head and ask Leo to call for it.
p1407
sg8
VJOSH
p1408
sg10
g11
sa(dp1409
g6
VThank you.
p1410
sg8
VAMY
p1411
sg10
g49
sa(dp1412
g6
VIt's okay to tell Mrs. Bartlet you disagree with her you know.
p1413
sg8
VJOSH
p1414
sg10
g11
sa(dp1415
g6
VWhat makes you think I disagree with her?
p1416
sg8
VAMY
p1417
sg10
g11
sa(dp1418
g6
VI know everything.
p1419
sg8
VJOSH
p1420
sg10
g11
sa(dp1421
g6
VI'll see you tonight.
p1422
sg8
VAMY
p1423
sg10
g49
sa(dp1424
g6
VIt's not lying, but the information gets hidden in soil sample reports that are submitted to the EPA.
p1425
sg8
VBURT
p1426
sg10
g11
sa(dp1427
g6
VWhat's an acceptable level?
p1428
sg8
VMIKE
p1429
sg10
g11
sa(dp1430
g6
VOf carcinogens?
p1431
sg8
VBURT
p1432
sg10
g11
sa(dp1433
g6
VYeah.
p1434
sg8
VMIKE
p1435
sg10
g11
sa(dp1436
g6
VWhat does it matter?
p1437
sg8
VTOBY
p1438
sg10
g11
sa(dp1439
g6
VIt doesn't, just curious.
p1440
sg8
VMIKE
p1441
sg10
g11
sa(dp1442
g6
VWell, one part per billion is unacceptable. What our engineers do is raise the MDLs.
p1443
sg8
VBURT
p1444
sg10
g11
sa(dp1445
g6
VMethod detection levels?
p1446
sg8
VMIKE
p1447
sg10
g11
sa(dp1448
g6
VYeah, to 100 ppb.
p1449
sg8
VBURT
p1450
sg10
g11
sa(dp1451
g6
VInteresting.
p1452
sg8
VMIKE
p1453
sg10
g11
sa(dp1454
g6
VMike?
p1455
sg8
VTOBY
p1456
sg10
g11
sa(dp1457
g6
VYeah.
p1458
sg8
VMIKE
p1459
sg10
g11
sa(dp1460
g6
VYou wanted to become a scientist, but you didn't. You became a lawyer and got a job at the council's office so let's do that now.
p1461
sg8
VTOBY
p1462
sg10
g11
sa(dp1463
g6
VI did my undergrad in Chemical Engineering. I was good. And then I went to law school, and I don't know what happened.
p1464
sg8
VMIKE
p1465
sg10
g11
sa(dp1466
g6
V[chuckles] That's cool.
p1467
sg8
VBURT
p1468
sg10
g11
sa(dp1469
g6
VCan we get on with it?
p1470
sg8
VJOSH
p1471
sg10
g11
sa(dp1472
g6
VHouse Resources is hearing testimony on the Polluter Pays bill. If we can get justice to grant him immunity under the whistle blower statute, he testify tomorrow and say that Kierney-Passaic has been hiding dangerous levels of cancer causing whatever in the EPA reports. It will do tremendous good for us in terms of winning this one.
p1473
sg8
VTOBY
p1474
sg10
g11
sa(dp1475
g6
VToby?
p1476
sg8
VJOSH
p1477
sg10
g11
sa(dp1478
g6
VYeah?
p1479
sg8
VTOBY
p1480
sg10
g11
sa(dp1481
g6
VPlus we retard Kierney-Passaic's progress in killing people.
p1482
sg8
VJOSH
p1483
sg10
g11
sa(dp1484
g6
VJosh is right. There are several positive outcomes.
p1485
sg8
VTOBY
p1486
sg10
g11
sa(dp1487
g6
VMike, can he get whistle blower status?
p1488
sg8
VJOSH
p1489
sg10
g11
sa(dp1490
g6
VI don't think it matters.
p1491
sg8
VMIKE
p1492
sg10
g11
sa(dp1493
g6
VWhy?
p1494
sg8
VTOBY
p1495
sg10
g11
sa(dp1496
g6
VWell you're talking about the Anti Retaliation Provisions in the of the False Claim Act.
p1497
sg8
VMIKE
p1498
sg10
g11
sa(dp1499
g6
VYes.
p1500
sg8
VTOBY
p1501
sg10
g49
sa(dp1502
g6
VThis entitles an employee to relief. If he's fired or demoted or suspended or in any matter discriminated against because lawful acts done by the employee on behalf of employer.
p1503
sg8
VMIKE
p1504
sg10
g11
sa(dp1505
g6
VYes.
p1506
sg8
VTOBY
p1507
sg10
g49
sa(dp1508
g6
VThese acts weren't lawful.
p1509
sg8
VMIKE
p1510
sg10
g11
sa(dp1511
g6
VHow is testifying in front of House Resources not lawful?
p1512
sg8
VTOBY
p1513
sg10
g11
sa(dp1514
g6
VNo that's lawful but, Bert, how did you become aware that the EPA documents were being falsified?
p1515
sg8
VMIKE
p1516
sg10
g11
sa(dp1517
g6
VI'm the senior engineer.
p1518
sg8
VBURT
p1519
sg10
g11
sa(dp1520
g6
VYou initialled them.
p1521
sg8
VMIKE
p1522
sg10
g11
sa(dp1523
g6
VYes.
p1524
sg8
VBURT
p1525
sg10
g49
sa(dp1526
g6
VWell let me ask you this the way the federal prosecutors will. Did you knowingly and purposefully sign fraudulent documents submitted to federal authorities?
p1527
sg8
VMIKE
p1528
sg10
g11
sa(dp1529
g6
VWell, it's not that the documents were...
p1530
sg8
VBURT
p1531
sg10
g11
sa(dp1532
g6
VOh my God.
p1533
sg8
VTOBY
p1534
sg10
g11
sa(dp1535
g6
VYeah, he doesn't need 37-30, he needs immunity from criminal prosecution. I'll tell you something else, he'd better get it.
p1536
sg8
VMIKE
p1537
sg10
g11
sa(dp1538
g6
VWhat do you mean he'd better get it? If he doesn't get it, he doesn't talk.
p1539
sg8
VJOSH
p1540
sg10
g11
sa(dp1541
g6
VYou two would be compelled to name him and recount everything he told you when subpoenaed by the US Attorney to appear before a Federal Grand Jury.
p1542
sg8
VMIKE
p1543
sg10
g11
sa(dp1544
g6
VWe have to turn him in now?
p1545
sg8
VJOSH
p1546
sg10
g11
sa(dp1547
g6
VNo, you don't have to, but you'll go to jail as a co-conspirator.
p1548
sg8
VMIKE
p1549
sg10
g11
sa(dp1550
g6
VI don't understand. All I did was get up in the morning... then I got a message to go see you.
p1551
sg8
VJOSH
p1552
sg10
g11
sa(dp1553
g6
VHow come he knows about the rule?
p1554
sg8
VTOBY
p1555
sg10
g11
sa(dp1556
g6
VEverybody knows about that.
p1557
sg8
VJOSH
p1558
sg10
g11
sa(dp1559
g6
VWas something else on your mind that moment in law school when they taught that rule? Were you distracted by a bumblebee?
p1560
sg8
VTOBY
p1561
sg10
g11
sa(dp1562
g6
VMike.
p1563
sg8
VJOSH
p1564
sg10
g11
sa(dp1565
g6
VBurt, why don't you come sit in my office while we call your lawyer?
p1566
sg8
VMIKE
p1567
sg10
g11
sa(dp1568
g6
VYeah.
p1569
sg8
VBURT
p1570
sg10
g11
sa(dp1571
g6
VYou have a lawyer?
p1572
sg8
VTOBY
p1573
sg10
g11
sa(dp1574
g6
VOf course I have a lawyer.
p1575
sg8
VMIKE
p1576
sg10
g36
sa(dp1577
g6
VThen why the hell did you come to my office and tell me... I don't care. Mike, let's get him immunity.
p1578
sg8
VTOBY
p1579
sg10
g11
sa(dp1580
g6
VWe'll wait in my office.
p1581
sg8
VMIKE
p1582
sg10
g11
sa(dp1583
g6
VI can leave my coat here?
p1584
sg8
VBURT
p1585
sg10
g36
sa(dp1586
g6
VYeah.
p1587
sg8
VTOBY
p1588
sg10
g11
sa(dp1589
g6
VYou going to the DAR thing tonight? It's not that I didn't know the federal law it's... we... we got in a little deep before I was able to, you know, summon that...
p1590
sg8
VJOSH
p1591
sg10
g11
sa(dp1592
g6
VShut up.
p1593
sg8
VTOBY
p1594
sg10
g36
sa(dp1595
g6
VI was talking about the threat of a veto.
p1596
sg8
VABBEY
p1597
sg10
g11
sa(dp1598
g6
VNo, they understood that.
p1599
sg8
VAMY
p1600
sg10
g36
sa(dp1601
g6
VThey?
p1602
sg8
VABBEY
p1603
sg10
g11
sa(dp1604
g6
VI took it to Leo McGarry too.
p1605
sg8
VAMY
p1606
sg10
g11
sa(dp1607
g6
VDon't let Josh find that out.
p1608
sg8
VABBEY
p1609
sg10
g11
sa(dp1610
g6
VNo, he suggested it.
p1611
sg8
VAMY
p1612
sg10
g11
sa(dp1613
g6
VAnd not even, we were talking about the threat of a veto, we were talking about an SAP.
p1614
sg8
VABBEY
p1615
sg10
g11
sa(dp1616
g6
VBut those policy recommendations are published by the OMB which means there'd be a record of the President ignoring...
p1617
sg8
VAMY
p1618
sg10
g11
sa(dp1619
g6
VI don't care.
p1620
sg8
VABBEY
p1621
sg10
g11
sa(dp1622
g6
VIt makes it look like they don't have their act together.
p1623
sg8
VAMY
p1624
sg10
g11
sa(dp1625
g6
VThey're exporting religious doctrine. They don't have their act together. Are they playing you?
p1626
sg8
VABBEY
p1627
sg10
g11
sa(dp1628
g6
VNo, ma'am.
p1629
sg8
VAMY
p1630
sg10
g11
sa(dp1631
g6
VLike the diplomas falling off the wall?
p1632
sg8
VABBEY
p1633
sg10
g11
sa(dp1634
g6
VNo ma'am.
p1635
sg8
VAMY
p1636
sg10
g11
sa(dp1637
g6
VThey didn't stump me ma'am. We simply exhausted our options which was fairly predictable.
p1638
sg8
VAMY
p1639
sg10
g11
sa(dp1640
g6
VWhat options did we exhaust?
p1641
sg8
VABBEY
p1642
sg10
g11
sa(dp1643
g6
VThe HHS Secretary, the Appropriations Manager. I spoke to the Minority Leader's office. Several Senators, all of whom you'd consider close allies. The amendment's going to hold.
p1644
sg8
VAMY
p1645
sg10
g11
sa(dp1646
g6
VWould the staff consider recommending another amendment be attached?
p1647
sg8
VABBEY
p1648
sg10
g11
sa(dp1649
g6
VSaying what?
p1650
sg8
VAMY
p1651
sg10
g11
sa(dp1652
g6
VWe put condoms in every classroom around the globe.
p1653
sg8
VABBEY
p1654
sg10
g11
sa(dp1655
g6
VI don't think the staff would consider that, no.
p1656
sg8
VAMY
p1657
sg10
g11
sa(dp1658
g6
VOh, why?
p1659
sg8
VABBEY
p1660
sg10
g11
sa(dp1661
g6
VBecause it would kill the Foreign Ops bill.
p1662
sg8
VAMY
p1663
sg10
g11
sa(dp1664
g6
VYou tried to kill welfare reauthorization because you didn't like marriage incentives. Wasn't that chocking off money to the poor to cater to a women's issue?
p1665
sg8
VABBEY
p1666
sg10
g11
sa(dp1667
g6
VI did it because I had hope that it would change the bill before the vote. In this case, I have no hope of that.
p1668
sg8
VAMY
p1669
sg10
g11
sa(dp1670
g6
VWell, thanks for the pep talk there.
p1671
sg8
VABBEY
p1672
sg10
g11
sa(dp1673
g6
VHey, Jean-Paul. How are you doing?
p1674
sg8
VCHARLIE
p1675
sg10
g49
sa(dp1676
g6
VWhat?
p1677
sg8
VCHARLIE
p1678
sg10
g11
sa(dp1679
g6
VIs it here?
p1680
sg8
VCHARLIE
p1681
sg10
g36
sa(dp1682
g6
V[baffled] Is this by the car? No. This is... we're inside! This is a building!
p1683
sg8
VCHARLIE
p1684
sg10
g11
sa(dp1685
g6
VI swear to god Jean-Paul, I had no ungodly idea what you were talking about.
p1686
sg8
VCHARLIE
p1687
sg10
g11
sa(dp1688
g6
VYes.
p1689
sg8
VCHARLIE
p1690
sg10
g49
sa(dp1691
g6
VWell, they think it's possible my great, great grandfather is Thomas Jefferson so...
p1692
sg8
VCHARLIE
p1693
sg10
g11
sa(dp1694
g6
VYou're stoned right now. And that's incredibly risky when you're around Zoey. It's unbelievably stupid. So could you be careful with that?
p1695
sg8
VCHARLIE
p1696
sg10
g11
sa(dp1697
g6
VThe ellipse. That's where they're receiving people.
p1698
sg8
VCHARLIE
p1699
sg10
g11
sa(dp1700
g6
VThis is ridiculous.
p1701
sg8
VDONNA
p1702
sg10
g11
sa(dp1703
g6
VYou don't have to make a big deal out of it. He doesn't have to know he's being tailed.
p1704
sg8
VJOSH
p1705
sg10
g11
sa(dp1706
g6
VThis wasn't on Laverne and Shirley?
p1707
sg8
VDONNA
p1708
sg10
g11
sa(dp1709
g6
VIt may have been.
p1710
sg8
VJOSH
p1711
sg10
g11
sa(dp1712
g6
VI loathe you.
p1713
sg8
VDONNA
p1714
sg10
g49
sa(dp1715
g6
VOkay.
p1716
sg8
VJOSH
p1717
sg10
g11
sa(dp1718
g6
VExcuse me, are you Matthew Lambert?
p1719
sg8
VDONNA
p1720
sg10
g49
sa(dp1721
g6
VHi, I'm Donna Moss.
p1722
sg8
VDONNA
p1723
sg10
g11
sa(dp1724
g6
VHi, this is my girlfriend Heidi Choat.
p1725
sg8
VMATTHEW
p1726
sg10
g36
sa(dp1727
g6
VHi... You guys here at the party?
p1728
sg8
VDONNA
p1729
sg10
g11
sa(dp1730
g6
VYeah. They said we could walk around the West Wing so we're just going to go walk around.
p1731
sg8
VMATTHEW
p1732
sg10
g11
sa(dp1733
g6
VGreat, I'll go with you.
p1734
sg8
VDONNA
p1735
sg10
g11
sa(dp1736
g6
VHi.
p1737
sg8
VLEO
p1738
sg10
g11
sa(dp1739
g6
VHello.
p1740
sg8
VC.J.
p1741
sg10
g11
sa(dp1742
g6
VI've spent a portion of the day with a hydroclimatologist named Hillary Toobin, who says that Alaska happened because of greenhouse gas, and seven other geologists think so too.
p1743
sg8
VLEO
p1744
sg10
g11
sa(dp1745
g6
VWe can't politicize it.
p1746
sg8
VC.J.
p1747
sg10
g11
sa(dp1748
g6
VWe have to politicize it, it's politics.
p1749
sg8
VLEO
p1750
sg10
g11
sa(dp1751
g6
VIt's disrespectful.
p1752
sg8
VC.J.
p1753
sg10
g11
sa(dp1754
g6
VIt is, and we'll have to say so.
p1755
sg8
VLEO
p1756
sg10
g11
sa(dp1757
g6
VIs Hillary Toobin ready to get publicly scolded by the White House?
p1758
sg8
VC.J.
p1759
sg10
g11
sa(dp1760
g6
VShe is. She'll call for a 25% reduction decrease in emissions over the next ten years, and you'll reprimand her for politicizing the tragedy. What do you think?
p1761
sg8
VLEO
p1762
sg10
g11
sa(dp1763
g6
VI think that's right, but I think that I should do it.
p1764
sg8
VWILL
p1765
sg10
g11
sa(dp1766
g6
VYou don't want to do it.
p1767
sg8
VC.J.
p1768
sg10
g11
sa(dp1769
g6
VI really don't, but I don't think a researcher at Interior is going to jump-start this the way you need.
p1770
sg8
VWILL
p1771
sg10
g11
sa(dp1772
g6
VI appreciate it.
p1773
sg8
VLEO
p1774
sg10
g11
sa(dp1775
g6
VYes, sir.
p1776
sg8
VWILL
p1777
sg10
g49
sa(dp1778
g6
VLook at that DAR dress you're wearing. Man, that's fantastic. You could churn butter in that thing.
p1779
sg8
VCHARLIE
p1780
sg10
g11
sa(dp1781
g6
VWere you skulking in the shadows?
p1782
sg8
VZOEY
p1783
sg10
g11
sa(dp1784
g6
VI was.
p1785
sg8
VCHARLIE
p1786
sg10
g11
sa(dp1787
g6
VWas Jean-Paul not able to meet me?
p1788
sg8
VZOEY
p1789
sg10
g11
sa(dp1790
g6
VHe's meeting you right now. He's waiting at the Ellipse.
p1791
sg8
VCHARLIE
p1792
sg10
g11
sa(dp1793
g6
VI don't ever use the Ellipse.
p1794
sg8
VZOEY
p1795
sg10
g11
sa(dp1796
g6
VOh, that's right. You know what, I forgot.
p1797
sg8
VCHARLIE
p1798
sg10
g11
sa(dp1799
g6
VLook...
p1800
sg8
VZOEY
p1801
sg10
g11
sa(dp1802
g6
VYou sent me an email?
p1803
sg8
VCHARLIE
p1804
sg10
g11
sa(dp1805
g6
VWhat was I supposed to do?
p1806
sg8
VZOEY
p1807
sg10
g11
sa(dp1808
g6
VNot send me an email.
p1809
sg8
VCHARLIE
p1810
sg10
g11
sa(dp1811
g6
VHe is very jealous of you. He is, and I'd like to try to make this work. So if you don't mind.
p1812
sg8
VZOEY
p1813
sg10
g11
sa(dp1814
g6
VOh, but I do mind.
p1815
sg8
VCHARLIE
p1816
sg10
g49
sa(dp1817
g6
VWell, I don't think that matters.
p1818
sg8
VZOEY
p1819
sg10
g11
sa(dp1820
g6
VI think it does.
p1821
sg8
VCHARLIE
p1822
sg10
g11
sa(dp1823
g6
VAre you going to do what I asked in the email?
p1824
sg8
VZOEY
p1825
sg10
g11
sa(dp1826
g6
VNo.
p1827
sg8
VCHARLIE
p1828
sg10
g11
sa(dp1829
g6
VYou just refuse?
p1830
sg8
VZOEY
p1831
sg10
g11
sa(dp1832
g6
VI do. I refuse respectfully.
p1833
sg8
VCHARLIE
p1834
sg10
g11
sa(dp1835
g6
VYou can't refuse and be respectful at the same time.
p1836
sg8
VZOEY
p1837
sg10
g11
sa(dp1838
g6
VWatch me. Ask again.
p1839
sg8
VCHARLIE
p1840
sg10
g11
sa(dp1841
g6
VStop pursuing me.
p1842
sg8
VZOEY
p1843
sg10
g11
sa(dp1844
g6
VRespectfully no.
p1845
sg8
VCHARLIE
p1846
sg10
g11
sa(dp1847
g6
VWhy?
p1848
sg8
VZOEY
p1849
sg10
g11
sa(dp1850
g6
V'Cause I'm in love with you and that's the way it goes.
p1851
sg8
VCHARLIE
p1852
sg10
g11
sa(dp1853
g6
V[smiles] I have to go inside for dinner.
p1854
sg8
VZOEY
p1855
sg10
g11
sa(dp1856
g6
VHow long do you think before Jean Paul figures out your there?
p1857
sg8
VCHARLIE
p1858
sg10
g11
sa(dp1859
g6
VOh, shut up.
p1860
sg8
VZOEY
p1861
sg10
g11
sa(dp1862
g6
VIs there anything you guys need?
p1863
sg8
VDONNA
p1864
sg10
g49
sa(dp1865
g6
VNo, I'm not working the party.
p1866
sg8
VDONNA
p1867
sg10
g11
sa(dp1868
g6
VI thought you said you worked here.
p1869
sg8
VHEIDI
p1870
sg10
g11
sa(dp1871
g6
VI work here at the White House, I'm a guest at the party.
p1872
sg8
VDONNA
p1873
sg10
g11
sa(dp1874
g6
VSo you're just talking to us...
p1875
sg8
VHEIDI
p1876
sg10
g11
sa(dp1877
g6
VFor fun.
p1878
sg8
VDONNA
p1879
sg10
g11
sa(dp1880
g6
VOkay, well I'll go get us drinks.
p1881
sg8
VHEIDI
p1882
sg10
g11
sa(dp1883
g6
VOkay. I'll stay here with Matt.
p1884
sg8
VDONNA
p1885
sg10
g11
sa(dp1886
g6
VHoney?
p1887
sg8
VHEIDI
p1888
sg10
g11
sa(dp1889
g6
VYou want me to go to the bar with you?
p1890
sg8
VMATTHEW
p1891
sg10
g11
sa(dp1892
g6
VYeah.
p1893
sg8
VHEIDI
p1894
sg10
g11
sa(dp1895
g6
V[gets up to follow them] Cool. Bar trip.
p1896
sg8
VDONNA
p1897
sg10
g11
sa(dp1898
g6
VWhat are you doing here?
p1899
sg8
VTOBY
p1900
sg10
g11
sa(dp1901
g6
VThey're still making calls. They told me I could walk around.
p1902
sg8
VBURT
p1903
sg10
g11
sa(dp1904
g6
VIt didn't occur to me until I asked why you didn't tell your lawyer. You knew what you were doing the whole way, right? Get the President's muscle to lean on justice for immunity.
p1905
sg8
VTOBY
p1906
sg10
g11
sa(dp1907
g6
VI'm scared of criminal prosecution. I'm just terrified of it. But to my credit I think I'm righting this wrong.
p1908
sg8
VBURT
p1909
sg10
g11
sa(dp1910
g6
VAfter three years.
p1911
sg8
VTOBY
p1912
sg10
g11
sa(dp1913
g6
VThat's something.
p1914
sg8
VBURT
p1915
sg10
g11
sa(dp1916
g6
VThat's quite an impressive ethical learning curve.
p1917
sg8
VTOBY
p1918
sg10
g11
sa(dp1919
g6
VIt's not as clear cut as you think.
p1920
sg8
VBURT
p1921
sg10
g11
sa(dp1922
g6
V[chuckles] Really. The U.S. attorneys are going to grill you for a while, but you'll get the immunity.
p1923
sg8
VTOBY
p1924
sg10
g11
sa(dp1925
g6
VLadies and Gentlemen would you please make your way to the State Dining room. Dinner is being served.
p1926
sg8
VSTEWARD
p1927
sg10
g11
sa(dp1928
g6
VI'm right behind you guys.
p1929
sg8
VDONNA
p1930
sg10
g49
sa(dp1931
g6
VListen...
p1932
sg8
VABBEY
p1933
sg10
g11
sa(dp1934
g6
VMa'am, I spent a year and a half as issues director for NOW, two years as political director of Emily's List, founder of the Democratic Women's forum, AA to Hope Schrader and Director of the Women's Leadership Coalition.
p1935
sg8
VAMY
p1936
sg10
g11
sa(dp1937
g6
VLook...
p1938
sg8
VABBEY
p1939
sg10
g11
sa(dp1940
g6
VExcuse me, ma'am, but I beat back five anti-choice judicial nominees, got the Violence Against Women Act reauthorized with a republican majority and raised 22 million dollars for House candidates.
p1941
sg8
VAMY
p1942
sg10
g11
sa(dp1943
g6
VAmy...
p1944
sg8
VABBEY
p1945
sg10
g11
sa(dp1946
g6
VAll the while this White House, your office included, allowed equal pay to be pushed off the agenda, allowed marriage incentives to be put in welfare reform, buried a surgeon generals report on birth control and allowed the global gag rule in the first place. You hired me to put a professional face on your office. This bill is going to be law tonight. If you want to fire me, fire me.
p1947
sg8
VAMY
p1948
sg10
g11
sa(dp1949
g6
VI don't want to fire you.
p1950
sg8
VABBEY
p1951
sg10
g11
sa(dp1952
g6
VOh, why did you want to talk to me?
p1953
sg8
VAMY
p1954
sg10
g11
sa(dp1955
g6
VTo tell you you had a good first day.
p1956
sg8
VABBEY
p1957
sg10
g11
sa(dp1958
g6
VOh, okay, I jumped the gun.
p1959
sg8
VAMY
p1960
sg10
g11
sa(dp1961
g6
VYeah. This is strange for me Amy, I used to baby-sit for you, give me a little time.
p1962
sg8
VABBEY
p1963
sg10
g11
sa(dp1964
g6
VI used to get you in some jams.
p1965
sg8
VAMY
p1966
sg10
g11
sa(dp1967
g6
VYes you did. Let's go to dinner.
p1968
sg8
VABBEY
p1969
sg10
g11
sa(dp1970
g6
VYou're giving someone an award tonight. I'll explain on the way.
p1971
sg8
VAMY
p1972
sg10
g11
sa(dp1973
g6
VWhat award?
p1974
sg8
VABBEY
p1975
sg10
g11
sa(dp1976
g6
VThe Francis Scott Key key. I didn't know you were related to pirates. That's pretty hot.
p1977
sg8
VAMY
p1978
sg10
g11
sa(dp1979
g6
VI'm related to a privateer. What is a Francis Scott...?
p1980
sg8
VABBEY
p1981
sg10
g11
sa(dp1982
g6
VI've written some remarks.
p1983
sg8
VAMY
p1984
sg10
g11
sa(dp1985
g6
VThe White House is doing some quick backpedaling today claiming that Deputy Communications Director Will Bailey was not speaking for the President when he said that the deaths in Kachadee Alaska were caused by, quote, reckless disregard for the issue of global warming. Senate Republican Whip, Bill Armstrong, said that...
p1986
sg8
VNEWSCASTER
p1987
sg10
g11
sa(dp1988
g6
VWill's a good boy.
p1989
sg8
VBARTLET
p1990
sg10
g11
sa(dp1991
g6
VHe fell on it?
p1992
sg8
VABBEY
p1993
sg10
g11
sa(dp1994
g6
VYeah.
p1995
sg8
VBARTLET
p1996
sg10
g11
sa(dp1997
g6
VI gave a made up award to Marion tonight.
p1998
sg8
VABBEY
p1999
sg10
g11
sa(dp2000
g6
VMarblehead?
p2001
sg8
VBARTLET
p2002
sg10
g11
sa(dp2003
g6
VI think she's from Marblehead.
p2004
sg8
VABBEY
p2005
sg10
g11
sa(dp2006
g6
VNo, some of us call her Marblehead.
p2007
sg8
VBARTLET
p2008
sg10
g49
sa(dp2009
g6
VShe was going to boycott the thing.
p2010
sg8
VABBEY
p2011
sg10
g11
sa(dp2012
g6
VCause you're a pirate?
p2013
sg8
VBARTLET
p2014
sg10
g11
sa(dp2015
g6
VOh, not me. Seventeen generations ago, and he was a privateer. He fought the war, we didn't have a Navy.
p2016
sg8
VABBEY
p2017
sg10
g11
sa(dp2018
g6
VI know what they were.
p2019
sg8
VBARTLET
p2020
sg10
g11
sa(dp2021
g6
VYou put a guy on the Tenth Circuit Court of Appeals who called sexual harassment "a flight of fancy for the overindulged". You put him on the Tenth Circuit.
p2022
sg8
VABBEY
p2023
sg10
g11
sa(dp2024
g6
VToday?
p2025
sg8
VBARTLET
p2026
sg10
g11
sa(dp2027
g6
VThree years ago. And TANF cut child care subsidies, and equal pay got pocket vetoed, and abstinence only, and teacher funding initiatives. And I didn't do a lot, or really anything, to stop it.
p2028
sg8
VABBEY
p2029
sg10
g11
sa(dp2030
g6
VYeah, you did.
p2031
sg8
VBARTLET
p2032
sg10
g49
sa(dp2033
g6
VAnd now this thing. I want to contribute is all. Like Will tonight, screwing up on purpose.
p2034
sg8
VABBEY
p2035
sg10
g11
sa(dp2036
g6
VWe don't have to ask you to screw up Abbey, you do by your...
p2037
sg8
VBARTLET
p2038
sg10
g11
sa(dp2039
g6
VI'm not kidding around.
p2040
sg8
VABBEY
p2041
sg10
g11
sa(dp2042
g6
VI can't publicly reprimand you, it wouldn't play well. We save you for other things.
p2043
sg8
VBARTLET
p2044
sg10
g11
sa(dp2045
g6
VOkay.
p2046
sg8
VABBEY
p2047
sg10
g11
sa(dp2048
g6
VYou want to hear about Max Weber?
p2049
sg8
VBARTLET
p2050
sg10
g11
sa(dp2051
g6
VGet into bed.
p2052
sg8
VABBEY
p2053
sg10
g11
sa(dp2054
g6
VGerman thinker Max Weber said that politics is the "slow boring of hard boards and that anyone who seeks to do it must risk his own soul". You know what that means?
p2055
sg8
VBARTLET
p2056
sg10
g11
sa(dp2057
g6
VI like how you think that patronizing me is going to make me feel better. It's sweet.
p2058
sg8
VABBEY
p2059
sg10
g11
sa(dp2060
g6
VIt means that change comes in excruciating increments for those who want it. You're trying to move mountains. It takes lifetimes. But Zoey Bartlet is the newest Daughter of the American Revolution so I like our chances for the long run.
p2061
sg8
VBARTLET
p2062
sg10
g11
sa(dp2063
g6
VThat's what you have to say?
p2064
sg8
VABBEY
p2065
sg10
g11
sa(dp2066
g6
VYes.
p2067
sg8
VBARTLET
p2068
sg10
g49
sa(dp2069
g6
VAll right, it's pretty good... So what do you think? You wait a few weeks?
p2070
sg8
VABBEY
p2071
sg10
g11
sa(dp2072
g6
VTill the bulk of the bill is appropriated.
p2073
sg8
VBARTLET
p2074
sg10
g11
sa(dp2075
g6
VYeah. Then maybe you cap the percentage of the funding as covered by the gag rule.
p2076
sg8
VABBEY
p2077
sg10
g11
sa(dp2078
g6
VYeah.
p2079
sg8
VBARTLET
p2080
sg10
g11
sa(dp2081
g6
VAnd... How do you monitor what a doctor says to a woman in Zimbabwe anyway?
p2082
sg8
VABBEY
p2083
sg10
g11
sa(dp2084
g6
VYou don't.
p2085
sg8
VBARTLET
p2086
sg10
g11
sa(dp2087
g6
VWe'll just get more aggressive on the domestic side.
p2088
sg8
VABBEY
p2089
sg10
g11
sa(dp2090
g6
VWe will.
p2091
sg8
VBARTLET
p2092
sg10
g11
sa(dp2093
g6
VMove family planning to a discretionary account in next year's budget rounds.
p2094
sg8
VABBEY
p2095
sg10
g11
sa(dp2096
g6
VKeep talking, I'm going to turn off the light.
p2097
sg8
VBARTLET
p2098
sg10
g11
sa(dp2099
g6
VAre you getting up at six tomorrow?
p2100
sg8
VABBEY
p2101
sg10
g11
sa(dp2102
g6
VNo, I have to get up early.
p2103
sg8
VBARTLET
p2104
sg10
g36
sas.