(dp0
S'season'
p1
I4
sS'episode'
p2
I5
sS'script'
p3
(lp4
(dp5
S'text'
p6
VAffirmative action and quotas are about two different things. Affirmative action is about providing people an opportunity they might not otherwise get.
p7
sS'bow_score'
p8
S'positive'
p9
sS'character'
p10
VBARTLET
p11
sS'maxent_score'
p12
S'neutral'
p13
sa(dp14
g6
VI don't know how you can talk about providing opportunity, while at the same time supporting racial profiling.
p15
sg8
g9
sg10
VSAM
p16
sg12
g13
sa(dp17
g6
VWhat that hell is...? I don't support racial profiling.
p18
sg8
S'negative'
p19
sg10
VBARTLET
p20
sg12
g19
sa(dp21
g6
VYour nominee for Attorney General did. Can you tell us why you nominated him?
p22
sg8
g13
sg10
VSAM
p23
sg12
g13
sa(dp24
g6
VWhy?
p25
sg8
g13
sg10
VBARTLET
p26
sg12
g13
sa(dp27
g6
VYes.
p28
sg8
g13
sg10
VSAM
p29
sg12
g9
sa(dp30
g6
V'Cause bite me, that's why.
p31
sg8
g19
sg10
VBARTLET
p32
sg12
g19
sa(dp33
g6
VWhoa...
p34
sg8
g13
sg10
VALL
p35
sg12
g13
sa(dp36
g6
VIt's a legitamate question.
p37
sg8
g9
sg10
VC.J.
p38
sg12
g13
sa(dp39
g6
VIt's been almost four years Sam, how long do you want to say "I told you so?"
p40
sg8
g13
sg10
VBARTLET
p41
sg12
g13
sa(dp42
g6
VHe wasn't saying "I told you so," sir. We need an answer on Rooker.
p43
sg8
g9
sg10
VJOSH
p44
sg12
g13
sa(dp45
g6
VWhat wrong with "bite me?"
p46
sg8
g19
sg10
VBARTLET
p47
sg12
g19
sa(dp48
g6
VI think we'd lose.
p49
sg8
g19
sg10
VJOSH
p50
sg12
g19
sa(dp51
g6
VNot in New Jersey.
p52
sg8
g13
sg10
VTOBY
p53
sg12
g13
sa(dp54
g6
V"It's never been shown that racial profiling works, and I'm against it."
p55
sg8
g13
sg10
VC.J.
p56
sg12
g13
sa(dp57
g6
VThat answer's pretty simple, isn't it?
p58
sg8
g9
sg10
VJOSH
p59
sg12
g19
sa(dp60
g6
VWe can make it more complicated.
p61
sg8
g19
sg10
VC.J.
p62
sg12
g13
sa(dp63
g6
VA lot of people in... Mr. President, do you mind if I...?
p64
sg8
g13
sg10
VANDY
p65
sg12
g13
sa(dp66
g6
VNo...
p67
sg8
g13
sg10
VJOSH
p68
sg12
g13
sa(dp69
g6
VI think she was talking to me there, Dexter. What?
p70
sg8
g13
sg10
VBARTLET
p71
sg12
g19
sa(dp72
g6
VA lot of people in law enforcement believe profiling helps them do their job better. Not everyone's against it.
p73
sg8
g13
sg10
VANDY
p74
sg12
g13
sa(dp75
g6
VI'm against it.
p76
sg8
g13
sg10
VBARTLET
p77
sg12
g19
sa(dp78
g6
VHow you doing there Joey? Kippy?
p79
sg8
g13
sg10
VBARTLET
p80
sg12
g13
sa(dp81
g6
VKenny.
p82
sg8
g13
sg10
VJOSH
p83
sg12
g13
sa(dp84
g6
VOkay.
p85
sg8
g13
sg10
VBARTLET
p86
sg12
g13
sa(dp87
g6
VIs that what you were saying, Andy?
p88
sg8
g13
sg10
VBARTLET
p89
sg12
g13
sa(dp90
g6
VYes, sir.
p91
sg8
g9
sg10
VANDY
p92
sg12
g9
sa(dp93
g6
VYeah, but Richie will bring it back to Rooker and the fact that you don't know what your position on racial profiling...
p94
sg8
g13
sg10
VC.J.
p95
sg12
g13
sa(dp96
g6
VI do know what my position is.
p97
sg8
g13
sg10
VBARTLET
p98
sg12
g19
sa(dp99
g6
VWe're losing the question. Fundamentally, it's "What was the story with Rooker?"
p100
sg8
g13
sg10
VTOBY
p101
sg12
g13
sa(dp102
g6
VWe gave him our full support until it became clear that an increasingly divided Congress was going to shoot down our nominee.
p103
sg8
g13
sg10
VC.J.
p104
sg12
g13
sa(dp105
g6
VWe didn't give him our full support. We withdrew the nomination.
p106
sg8
g9
sg10
VTOBY
p107
sg12
g13
sa(dp108
g6
VWhy not blow past the nomination fight and give a strong...
p109
sg8
g13
sg10
VJOSH
p110
sg12
g9
sa(dp111
g6
VBlow past the nomination fight?
p112
sg8
g13
sg10
VC.J.
p113
sg12
g9
sa(dp114
g6
V...and give a strong, unambiguous statement in support of law enforcement?
p115
sg8
g13
sg10
VJOSH
p116
sg12
g13
sa(dp117
g6
V'Cause that's not going to be the vote.
p118
sg8
g13
sg10
VTOBY
p119
sg12
g13
sa(dp120
g6
VNobody's for stronger, fairer law enforcement.
p121
sg8
g19
sg10
VJOSH
p122
sg12
g13
sa(dp123
g6
VThat's not going to be the question.
p124
sg8
g9
sg10
VTOBY
p125
sg12
g13
sa(dp126
g6
VWhy not just say we screwed up? (imitating Bartlet) "Mr. Rooker's a devoted crimer fighter-- we had our differences-- but on this, all Americans can agree..."
p127
sg8
g13
sg10
VSAM
p128
sg12
g13
sa(dp129
g6
VExcuse me...
p130
sg8
g13
sg10
VBARTLET
p131
sg12
g19
sa(dp132
g6
V...Yes sir?
p133
sg8
g9
sg10
VSAM
p134
sg12
g9
sa(dp135
g6
VWere you doing me just then?
p136
sg8
g13
sg10
VBARTLET
p137
sg12
g19
sa(dp138
g6
VI was offering an answer...
p139
sg8
g13
sg10
VSAM
p140
sg12
g19
sa(dp141
g6
VYou were doing me.
p142
sg8
g13
sg10
VBARTLET
p143
sg12
g19
sa(dp144
g6
VI may have slipped into it, yes.
p145
sg8
g13
sg10
VSAM
p146
sg12
g9
sa(dp147
g6
VAnybody else do a pretty good Bartlet? It's talent night here at Debate Camp, anybody want to do a little skit?
p148
sg8
g9
sg10
VBARTLET
p149
sg12
g13
sa(dp150
g6
VApparently, eight Israeli Thunder fighters--these are also known as American-made Boeing F15E Strike Eagles--have hit two terrorist bases in the north and south of Qumar. And while no Qumari government personel or institutions were destroyed, Qumar, of course, considers an attack on its soil to be an act of war. So we are, as always, one bad bottle of Tequila away from all-out war in West Asia. (to Sam) Would you like to take this one or shall I?
p151
sg8
g19
sg10
VBARTLET
p152
sg12
g13
sa(dp153
g6
VWhy don't you get this one. I'll get... the next one.
p154
sg8
g13
sg10
VSAM
p155
sg12
g13
sa(dp156
g6
VOkay.
p157
sg8
g13
sg10
VBARTLET
p158
sg12
g13
sa(dp159
g6
VWe've got a secure link.
p160
sg8
g13
sg10
VLEO
p161
sg12
g13
sa(dp162
g6
V(leaving room) I agreed to be locked up with you people for 48 hours. How much time do I have left?
p163
sg8
g9
sg10
VBARTLET
p164
sg12
g13
sa(dp165
g6
V47 hours, 41 minutes.
p166
sg8
g13
sg10
VLEO
p167
sg12
g19
sa(dp168
g6
VHutchinson and Berryhill are hooked in along with Nancy and Fitzwallace and we're still getting Peter from State.
p169
sg8
g19
sg10
VLEO
p170
sg12
g13
sa(dp171
g6
VDefense condition three for the bases in Qumar is what?
p172
sg8
g13
sg10
VBARTLET
p173
sg12
g13
sa(dp174
g6
VMike
p175
sg8
g13
sg10
VLEO
p176
sg12
g13
sa(dp177
g6
VIt deploys the Independence to the Gulf. They've got 75 aircraft.
p178
sg8
g13
sg10
VMIKE
p179
sg12
g13
sa(dp180
g6
VWhat's happening on the ground?
p181
sg8
g13
sg10
VBARTLET
p182
sg12
g13
sa(dp183
g6
VAC Recon Striker says 30,000 troops are massing at the Syrian border.
p184
sg8
g13
sg10
VMAN
p185
sg12
g13
sa(dp186
g6
VThat was fast.
p187
sg8
g13
sg10
VBARTLET
p188
sg12
g19
sa(dp189
g6
VThey're not there yet.
p190
sg8
g13
sg10
VLEO
p191
sg12
g19
sa(dp192
g6
VWe're getting MILSAT confirmation.
p193
sg8
g13
sg10
VMIKE
p194
sg12
g19
sa(dp195
g6
VTen hut.
p196
sg8
g9
sg10
VOFFICER
p197
sg12
g9
sa(dp198
g6
VAlright. Well, we've got ourselves a Marx Brothers' movie.
p199
sg8
g13
sg10
VBARTLET
p200
sg12
g13
sa(dp201
g6
VYou have the order. Oh, Fitz.
p202
sg8
g13
sg10
VBARTLET
p203
sg12
g13
sa(dp204
g6
V(over phone) Yes, sir?
p205
sg8
g9
sg10
VFITZWALLACE
p206
sg12
g13
sa(dp207
g6
VHow're you doing?
p208
sg8
g13
sg10
VBARTLET
p209
sg12
g13
sa(dp210
g6
VFine. Thank you, sir. And you?
p211
sg8
g9
sg10
VFITZWALLACE
p212
sg12
g9
sa(dp213
g6
VWell, we've made camp in North Carolina for prep, so I've been thinking about killing myself, but let me ask you something. Besides Qumar, Iran, Syria, Hezbullah, they've all got short and medium-range missiles. If Israel feels threatened by them, what happens?
p214
sg8
g19
sg10
VBARTLET
p215
sg12
g13
sa(dp216
g6
VThey launch a pre-emptive strike.
p217
sg8
g13
sg10
VFITZWALLACE
p218
sg12
g19
sa(dp219
g6
VYeah, but before that happens, Qumar shows its teeth, right?
p220
sg8
g13
sg10
VLEO
p221
sg12
g13
sa(dp222
g6
VYeah.
p223
sg8
g13
sg10
VFITZWALLACE
p224
sg12
g13
sa(dp225
g6
VYeah. So what happens then?
p226
sg8
g13
sg10
VLEO
p227
sg12
g13
sa(dp228
g6
VThey'll want something from us in exchange for standing down.
p229
sg8
g9
sg10
VFITZWALLACE
p230
sg12
g9
sa(dp231
g6
VWell, for the moment, they haven't stood up, but in the meantime, let's think of something we can give them when they do.
p232
sg8
g13
sg10
VBARTLET
p233
sg12
g13
sa(dp234
g6
V(angrily) That's what we should do in the meantime?
p235
sg8
g13
sg10
VLEO
p236
sg12
g13
sa(dp237
g6
V(warning tone) Leo...
p238
sg8
g13
sg10
VBARTLET
p239
sg12
g13
sa(dp240
g6
VWe should think of something we can *give* them?!
p241
sg8
g13
sg10
VLEO
p242
sg12
g13
sa(dp243
g6
VHoney, if we're going to have this fight, can we not do it in front of the Joint Chiefs? It just scares the hell out of them.
p244
sg8
g19
sg10
VBARTLET
p245
sg12
g13
sa(dp246
g6
VYes.
p247
sg8
g13
sg10
VLEO
p248
sg12
g9
sa(dp249
g6
VMr. Chairman, would you put our bases in Qumar at Defense Condition 3 with the U.S. Military at Defcon Four?
p250
sg8
g13
sg10
VBARTLET
p251
sg12
g13
sa(dp252
g6
VYes, sir.
p253
sg8
g9
sg10
VFITZWALLACE
p254
sg12
g9
sa(dp255
g6
VThank you.
p256
sg8
g13
sg10
VBARTLET
p257
sg12
g9
sa(dp258
g6
VAndy...
p259
sg8
g13
sg10
VTOBY
p260
sg12
g13
sa(dp261
g6
VYeah?
p262
sg8
g13
sg10
VANDY
p263
sg12
g13
sa(dp264
g6
VA couple of things. I need you to look at a couple of answers on defense readiness. I need concrete examples of waste in Pentagon procurement. We need two more members of the IRC for post spin. I need you to fill out this marriage license and paperwork for a joint checking account and review this 60-second answer on Rwanda.
p265
sg8
g9
sg10
VTOBY
p266
sg12
g13
sa(dp267
g6
VOkay, okay, okay and um, under no circumstances, and sure.
p268
sg8
g13
sg10
VANDY
p269
sg12
g9
sa(dp270
g6
VSee, by my count, you said under no circumstances to the IRC post spin and sure....
p271
sg8
g9
sg10
VTOBY
p272
sg12
g13
sa(dp273
g6
VI said under no circumstances to marrying you again.
p274
sg8
g13
sg10
VANDY
p275
sg12
g13
sa(dp276
g6
VMay I ask why?
p277
sg8
g13
sg10
VTOBY
p278
sg12
g19
sa(dp279
g6
VI've had the unique experience of having done it once before.
p280
sg8
g9
sg10
VANDY
p281
sg12
g13
sa(dp282
g6
VYes, well...
p283
sg8
g13
sg10
VTOBY
p284
sg12
g9
sa(dp285
g6
VI have to get to the things you gave me. A person's running for President.
p286
sg8
g13
sg10
VANDY
p287
sg12
g13
sa(dp288
g6
VHey, that was good, Sam. Stay up in his face. Don't back off.
p289
sg8
g9
sg10
VTOBY
p290
sg12
g13
sa(dp291
g6
VYou want to shoot for two minutes? There's a hoop in the back.
p292
sg8
g19
sg10
VSAM
p293
sg12
g13
sa(dp294
g6
VYeah.
p295
sg8
g13
sg10
VTOBY
p296
sg12
g13
sa(dp297
g6
VHe's right. Don't back off.
p298
sg8
g13
sg10
VJOSH
p299
sg12
g13
sa(dp300
g6
VYeah. (to Toby) What's going on with you and Andy?
p301
sg8
g13
sg10
VSAM
p302
sg12
g13
sa(dp303
g6
VNothing.
p304
sg8
g13
sg10
VTOBY
p305
sg12
g13
sa(dp306
g6
VI think you're wrong.
p307
sg8
g19
sg10
VSAM
p308
sg12
g19
sa(dp309
g6
VI'm not.
p310
sg8
g13
sg10
VTOBY
p311
sg12
g19
sa(dp312
g6
VI think you're getting back together.
p313
sg8
g13
sg10
VSAM
p314
sg12
g13
sa(dp315
g6
VWe're not.
p316
sg8
g13
sg10
VTOBY
p317
sg12
g19
sa(dp318
g6
VBut you want to.
p319
sg8
g13
sg10
VSAM
p320
sg12
g13
sa(dp321
g6
VYes.
p322
sg8
g13
sg10
VTOBY
p323
sg12
g9
sa(dp324
g6
VI think... Wait. What?
p325
sg8
g13
sg10
VSAM
p326
sg12
g19
sa(dp327
g6
VSee, sometimes if I slam on the brakes, you run right past.
p328
sg8
g19
sg10
VTOBY
p329
sg12
g9
sa(dp330
g6
VOkay, fill us in on everything you've got so far between the two of you.
p331
sg8
g13
sg10
VJOSH
p332
sg12
g13
sa(dp333
g6
V(sarcastically) Yeah, that's what's going to happen right now.
p334
sg8
g13
sg10
VTOBY
p335
sg12
g13
sa(dp336
g6
VWell, if you do that...
p337
sg8
g13
sg10
VSAM
p338
sg12
g13
sa(dp339
g6
VAre you going to stay up in his face?
p340
sg8
g13
sg10
VTOBY
p341
sg12
g13
sa(dp342
g6
VDid you hear me say I would?
p343
sg8
g13
sg10
VSAM
p344
sg12
g13
sa(dp345
g6
VNo, actually.
p346
sg8
g13
sg10
VTOBY
p347
sg12
g13
sa(dp348
g6
VWell, I will. Listen, let me tell you something. What I said wasn't personal.
p349
sg8
g13
sg10
VSAM
p350
sg12
g19
sa(dp351
g6
VWho said it was?
p352
sg8
g13
sg10
VTOBY
p353
sg12
g13
sa(dp354
g6
VHe did. He said, "It's been four years and when am I going to stop saying, 'I told you so?'" And that wasn't... I was... Let's say we're new. We made mistakes. We'd just gotten to... We weren't even in the White House when we heard Rooker. It was like January 5.
p355
sg8
g13
sg10
VSAM
p356
sg12
g13
sa(dp357
g6
V(with certainty) It was the 15th. It was January 15th.
p358
sg8
g9
sg10
VTOBY
p359
sg12
g13
sa(dp360
g6
VHow do you remember?
p361
sg8
g13
sg10
VSAM
p362
sg12
g13
sa(dp363
g6
VI just do.
p364
sg8
g13
sg10
VTOBY
p365
sg12
g19
sa(dp366
g6
VI think Cornell Rooker's going to be the AG. How about that?
p367
sg8
g13
sg10
VLEO
p368
sg12
g13
sa(dp369
g6
VWhat do you mean?
p370
sg8
g13
sg10
VTOBY
p371
sg12
g13
sa(dp372
g6
VHe's on the phone with the governor right now.
p373
sg8
g13
sg10
VLEO
p374
sg12
g13
sa(dp375
g6
VWe're settled on that?
p376
sg8
g13
sg10
VSAM
p377
sg12
g13
sa(dp378
g6
VYeah, it's Cornell Rooker, if that's what he's saying on the phone. If he's saying no, then it's going to be somebody else.
p379
sg8
g13
sg10
VLEO
p380
sg12
g13
sa(dp381
g6
VWell analyzed.
p382
sg8
g13
sg10
VJOSH
p383
sg12
g13
sa(dp384
g6
VI thought there might be more conversations about the more conservative tendancies.
p385
sg8
g13
sg10
VSAM
p386
sg12
g13
sa(dp387
g6
VLike privacy?
p388
sg8
g13
sg10
VLEO
p389
sg12
g19
sa(dp390
g6
VYeah.
p391
sg8
g13
sg10
VSAM
p392
sg12
g13
sa(dp393
g6
V(walks in) He's a Democrat with a record the right win can't complain about. (sits)
p394
sg8
g19
sg10
VC.J.
p395
sg12
g13
sa(dp396
g6
V(enters) Excuse me, Josh. I'm looking for Donna.
p397
sg8
g13
sg10
VMARGARET
p398
sg12
g19
sa(dp399
g6
VDonna is at the White House, as a matter of fact.
p400
sg8
g13
sg10
VJOSH
p401
sg12
g13
sa(dp402
g6
V(surprised) She's at the White House?!
p403
sg8
g13
sg10
VC.J.
p404
sg12
g13
sa(dp405
g6
VYup.
p406
sg8
g13
sg10
VJOSH
p407
sg12
g13
sa(dp408
g6
VShe knows the old tenants are still there, right?
p409
sg8
g13
sg10
VC.J.
p410
sg12
g9
sa(dp411
g6
VShe's being taken out to lunch by her predecessor, a guy who's the assistant to Mac McConnell, the assistant to the Deputy C.O.S.
p412
sg8
g13
sg10
VJOSH
p413
sg12
g13
sa(dp414
g6
VNobody did that with me. (to Leo) Anybody do that with you?
p415
sg8
g13
sg10
VC.J.
p416
sg12
g13
sa(dp417
g6
V(shakes his head) Sam...
p418
sg8
g13
sg10
VLEO
p419
sg12
g13
sa(dp420
g6
V(interrupts) He's who the judiciary calls when they want to put a stamp on a yes. He has a record conservatives can't complain about.
p421
sg8
g19
sg10
VJOSH
p422
sg12
g13
sa(dp423
g6
VFolks, our opponent had a record conservatives can't complain about, but he lost.
p424
sg8
g19
sg10
VSAM
p425
sg12
g19
sa(dp426
g6
V(knocks on door frame) Excuse me. Mr. Ziegler?
p427
sg8
g13
sg10
VASSISTANT
p428
sg12
g13
sa(dp429
g6
VYeah?
p430
sg8
g13
sg10
VTOBY
p431
sg12
g13
sa(dp432
g6
VCongresswoman Wyatt is here in person without an appointment, and she's asking to see you.
p433
sg8
g13
sg10
VASSISTANT
p434
sg12
g9
sa(dp435
g6
VYeah. (irritated) Congresswoman Wyatt is also Mrs. Ziegler. Just... uh, I'll be right out.
p436
sg8
g13
sg10
VTOBY
p437
sg12
g13
sa(dp438
g6
VYes, sir. (leaves)
p439
sg8
g9
sg10
VASSISTANT
p440
sg12
g9
sa(dp441
g6
VYou think we're going to get hit from the left?
p442
sg8
g19
sg10
VTOBY
p443
sg12
g13
sa(dp444
g6
VI do.
p445
sg8
g13
sg10
VSAM
p446
sg12
g19
sa(dp447
g6
VI don't.
p448
sg8
g13
sg10
VJOSH
p449
sg12
g19
sa(dp450
g6
VLook...
p451
sg8
g13
sg10
VSAM
p452
sg12
g13
sa(dp453
g6
VHe gets a honeymoon. Let's take advantage.
p454
sg8
g9
sg10
VJOSH
p455
sg12
g9
sa(dp456
g6
VYou're missing the point.
p457
sg8
g19
sg10
VSAM
p458
sg12
g13
sa(dp459
g6
VWhat?
p460
sg8
g13
sg10
VJOSH
p461
sg12
g13
sa(dp462
g6
VI think he'll be confirmed. We might even get the honeymoon from the left.
p463
sg8
g9
sg10
VSAM
p464
sg12
g13
sa(dp465
g6
VBut?
p466
sg8
g13
sg10
VJOSH
p467
sg12
g19
sa(dp468
g6
VI'm not sure he's the right guy.
p469
sg8
g13
sg10
VSAM
p470
sg12
g13
sa(dp471
g6
V(enters) We got Rooker.
p472
sg8
g13
sg10
VBARTLET
p473
sg12
g13
sa(dp474
g6
VYeah.
p475
sg8
g13
sg10
VDONNA
p476
sg12
g13
sa(dp477
g6
VJeff Johnson. Come on back.
p478
sg8
g13
sg10
VJEFF
p479
sg12
g19
sa(dp480
g6
VThis is incredibly nice of you.
p481
sg8
g13
sg10
VDONNA
p482
sg12
g9
sa(dp483
g6
VWell, the guy before did it for me, so who knows? Maybe you'll do it for someone else in four years.
p484
sg8
g13
sg10
VJEFF
p485
sg12
g13
sa(dp486
g6
VEight years.
p487
sg8
g13
sg10
VDONNA
p488
sg12
g13
sa(dp489
g6
VWhatever.
p490
sg8
g13
sg10
VJEFF
p491
sg12
g13
sa(dp492
g6
VIs this where I'll be working?
p493
sg8
g9
sg10
VDONNA
p494
sg12
g13
sa(dp495
g6
VWho knows? The White House reinvents itself with every administration. It's never the same. There are some things I can tell you that won't be in the briefing. You want to hear them?
p496
sg8
g13
sg10
VJEFF
p497
sg12
g13
sa(dp498
g6
VSure.
p499
sg8
g13
sg10
VDONNA
p500
sg12
g19
sa(dp501
g6
VNever wear your badge off campus. It's like wearing a bull's eye. Don't let your kids get the mail out of your mailbox. You don't know what separatist just sent you a chain mail.
p502
sg8
g19
sg10
VJEFF
p503
sg12
g13
sa(dp504
g6
VI don't have kids.
p505
sg8
g13
sg10
VDONNA
p506
sg12
g19
sa(dp507
g6
VGood, because there are days when you're gonna need to get here at eight, maybe even earlier, and not go home till six or seven. What else? The iodine tablet. Some people take 'em; some people don't. I did, but you can ask your doctor.
p508
sg8
g9
sg10
VJEFF
p509
sg12
g13
sa(dp510
g6
VWhat's the iodine for?
p511
sg8
g13
sg10
VDONNA
p512
sg12
g13
sa(dp513
g6
VUh, it protects your thyroid from the radiation.
p514
sg8
g19
sg10
VJEFF
p515
sg12
g13
sa(dp516
g6
VAnd why is there radiation?
p517
sg8
g19
sg10
VDONNA
p518
sg12
g19
sa(dp519
g6
VThere's an XW-9 warhead in a silo 93 feet below the Eisenhower putting green. They say it's not enough radiation to hurt you, but do you really want to take chances with something like that?
p520
sg8
g19
sg10
VJEFF
p521
sg12
g13
sa(dp522
g6
VReally? Wow. God, no.
p523
sg8
g13
sg10
VDONNA
p524
sg12
g19
sa(dp525
g6
VListen, before I forget, I've gotten hit up for a favor. My girlfriend's a stringer for a teen magazine. It's called 21.
p526
sg8
g19
sg10
VJEFF
p527
sg12
g13
sa(dp528
g6
VSure.
p529
sg8
g13
sg10
VDONNA
p530
sg12
g19
sa(dp531
g6
VWith all the people coming in, they want to do a story and you've been visible and with the way you look... Any chance she could get a ten-minute phoner?
p532
sg8
g13
sg10
VJEFF
p533
sg12
g13
sa(dp534
g6
VNo problem. You can give her the number.
p535
sg8
g19
sg10
VDONNA
p536
sg12
g13
sa(dp537
g6
VGreat. You ready for lunch?
p538
sg8
g13
sg10
VJEFF
p539
sg12
g13
sa(dp540
g6
VYeah.
p541
sg8
g13
sg10
VDONNA
p542
sg12
g13
sa(dp543
g6
VWhere to?
p544
sg8
g13
sg10
VJEFF
p545
sg12
g13
sa(dp546
g6
VYou tell me. I don't know anything.
p547
sg8
g13
sg10
VDONNA
p548
sg12
g19
sa(dp549
g6
VOkay.
p550
sg8
g13
sg10
VJEFF
p551
sg12
g13
sa(dp552
g6
VEverything alright?
p553
sg8
g13
sg10
VTOBY
p554
sg12
g13
sa(dp555
g6
VYeah. I couldn't get you on your phone and I was on the tenth floor. They need another sample.
p556
sg8
g13
sg10
VANDY
p557
sg12
g13
sa(dp558
g6
V(wary) Why?
p559
sg8
g13
sg10
VTOBY
p560
sg12
g13
sa(dp561
g6
VThere was blackout in Alexandria and the incubator was without power for 45 minutes.
p562
sg8
g13
sg10
VANDY
p563
sg12
g13
sa(dp564
g6
VCan we maybe talk about this over here?
p565
sg8
g9
sg10
VTOBY
p566
sg12
g13
sa(dp567
g6
VA blackout in Alexandria?
p568
sg8
g13
sg10
VTOBY
p569
sg12
g13
sa(dp570
g6
VIt's a cab ride. Just go over. You're in. You're out. No sweat.
p571
sg8
g9
sg10
VANDY
p572
sg12
g13
sa(dp573
g6
VNo it's not no sweat. In fact, it's a bit gruesome.
p574
sg8
g19
sg10
VTOBY
p575
sg12
g19
sa(dp576
g6
V(amused) It's gruesome?
p577
sg8
g13
sg10
VANDY
p578
sg12
g13
sa(dp579
g6
VIt's... something. You get off on the 4th floor, which is clearly marked for all the other passengers on the elevator to read that it's the fertility clinic. And you're trying to show with your body language that it's not you and that's impossible to show with body language. An 84-year-old Welsh nurse hands you a brown paper bag with a cup and a video and points you toward a room, where I won't even tell you the name they have for this room.
p580
sg8
g9
sg10
VTOBY
p581
sg12
g13
sa(dp582
g6
VWhat's the name?
p583
sg8
g13
sg10
VANDY
p584
sg12
g13
sa(dp585
g6
VI won't tell you.
p586
sg8
g13
sg10
VTOBY
p587
sg12
g13
sa(dp588
g6
VWhy?
p589
sg8
g13
sg10
VANDY
p590
sg12
g13
sa(dp591
g6
VIt's not a good out loud word. You take the longest walk of your life back to the Welsh nurse, who takes the cup out of the bag and says, "Very nice."
p592
sg8
g9
sg10
VTOBY
p593
sg12
g13
sa(dp594
g6
VHoney, I need you to do this now. There's a timing thing.
p595
sg8
g13
sg10
VANDY
p596
sg12
g13
sa(dp597
g6
VCan't it possibly wait until next week...
p598
sg8
g19
sg10
VTOBY
p599
sg12
g19
sa(dp600
g6
V(overlapping him) I thought maybe today I could...
p601
sg8
g13
sg10
VANDY
p602
sg12
g13
sa(dp603
g6
V(snaps angrily) It's January 15th, Andy. I can't have a baby today. He's getting sworn in five days. I'm not saying never. I'm saying, can we wait five days?
p604
sg8
g13
sg10
VTOBY
p605
sg12
g13
sa(dp606
g6
V(conceding) Sure. How's it going?
p607
sg8
g13
sg10
VANDY
p608
sg12
g13
sa(dp609
g6
VRooker's going to be the AG.
p610
sg8
g13
sg10
VTOBY
p611
sg12
g13
sa(dp612
g6
V(calls out) Mr. Ziegler?
p613
sg8
g19
sg10
VKENNY
p614
sg12
g13
sa(dp615
g6
VYeah?
p616
sg8
g13
sg10
VTOBY
p617
sg12
g13
sa(dp618
g6
VI'm sorry for shouting. Joey says she's ready.
p619
sg8
g13
sg10
VKENNY
p620
sg12
g13
sa(dp621
g6
VI'm sorry?
p622
sg8
g13
sg10
VTOBY
p623
sg12
g19
sa(dp624
g6
VElectoral math.
p625
sg8
g13
sg10
VJOSH
p626
sg12
g13
sa(dp627
g6
VWhen do you suppose Georgia got so far out of reach? Was it 'cause we... burned it down?
p628
sg8
g13
sg10
VJOSH
p629
sg12
g13
sa(dp630
g6
VI was going to say.
p631
sg8
g13
sg10
VSAM
p632
sg12
g13
sa(dp633
g6
VOkay, let's start. (KENNY) I'm taking Ohio out of the red and putting it back in play.
p634
sg8
g13
sg10
VJOEY
p635
sg12
g13
sa(dp636
g6
VHow much money is it going to take to win there?
p637
sg8
g9
sg10
VTOBY
p638
sg12
g13
sa(dp639
g6
VA lot more than we have there. We're on the air in 18 of the top 25. There's no new money to spend on this. We're going to have to move it...
p640
sg8
g9
sg10
VJOEY
p641
sg12
g13
sa(dp642
g6
VI'm going to stop you there. Joey, I-I can't go to him with it.
p643
sg8
g13
sg10
VTOBY
p644
sg12
g13
sa(dp645
g6
VNo, I'm with Toby. I don't think you understand how the President feels about his home state. He's a New Hampshire Bartlet. It's been home for centuries. He's a Democrat elected to the statehouse with close to 60% and the fact that the state's in play is a real embarrasment for him. He doesn't want to campaign there because that's embarassing too, but we really can't...
p646
sg8
g9
sg10
VC.J.
p647
sg12
g13
sa(dp648
g6
VJoey, no kidding-- if you asked the President which he'd rather win, New Hampshire or the election, he'd have to think before he answered. Put a pin in it; we'll come back after prep. Thanks.
p649
sg8
g13
sg10
VJOSH
p650
sg12
g13
sa(dp651
g6
VPresident Bartlet, the next questions to you. Governor Ritchie contends there's a crisis in the American family that parents aren't spending enough time with their kids.
p652
sg8
g19
sg10
VLARRY
p653
sg12
g13
sa(dp654
g6
VWe're trying this again. Sorry.
p655
sg8
g13
sg10
VJOSH
p656
sg12
g19
sa(dp657
g6
VYeah. And that your solution is essentially to have government raise children.
p658
sg8
g13
sg10
VLARRY
p659
sg12
g13
sa(dp660
g6
VWell, that's an extraordinary and unsurprisingly dumb interpretation of what it is my administration's trying to accomplsh.
p661
sg8
g13
sg10
VBARTLET
p662
sg12
g13
sa(dp663
g6
VIt's hard enought to rasie kids today with help from family leave, subsidized daycare, preschool-- we need more of it, not less.
p664
sg8
g19
sg10
VBARTLET
p665
sg12
g13
sa(dp666
g6
VThe government can't raise kids, Mr. President-- parents have to.
p667
sg8
g19
sg10
VSAM
p668
sg12
g13
sa(dp669
g6
VI have three grown daughters, Governor. You really want to tell me how I should raise my family? You're really comfortable with that?
p670
sg8
g13
sg10
VBARTLET
p671
sg12
g13
sa(dp672
g6
VThere it is.
p673
sg8
g13
sg10
VJOSH
p674
sg12
g19
sa(dp675
g6
VYou want to tell other American fathers and mothers what they're doing wrong?
p676
sg8
g19
sg10
VBARTLET
p677
sg12
g13
sa(dp678
g6
VSir, I did not say...
p679
sg8
g13
sg10
VSAM
p680
sg12
g13
sa(dp681
g6
VI didn't think you did. So, why don't we stick to what government can do-- which is collect money and distribute it-- and stop wasting time by sentimentalizing family.
p682
sg8
g19
sg10
VBARTLET
p683
sg12
g13
sa(dp684
g6
VWhoa, whoa, whoa.
p685
sg8
g13
sg10
VALL
p686
sg12
g9
sa(dp687
g6
VThat's... not good, sir.
p688
sg8
g9
sg10
VLARRY
p689
sg12
g9
sa(dp690
g6
VWe just lost the vote of every stay-at-home mom and their husbands who are henpecked.
p691
sg8
g19
sg10
VSAM
p692
sg12
g13
sa(dp693
g6
VWho are you now?
p694
sg8
g13
sg10
VBARTLET
p695
sg12
g13
sa(dp696
g6
VYes, sir.
p697
sg8
g9
sg10
VSAM
p698
sg12
g9
sa(dp699
g6
VI like the aggressive answer. It's just right.
p700
sg8
g19
sg10
VTOBY
p701
sg12
g19
sa(dp702
g6
VWe're letting Ritchie put him on the oppisite side of values. Lead with "I'm the proud father of..."
p703
sg8
g9
sg10
VLARRY
p704
sg12
g13
sa(dp705
g6
VThat wasn't the question, Larry. The question was, "What do I have against families?" and the answer is I have nothing against them at all.
p706
sg8
g9
sg10
VBARTLET
p707
sg12
g13
sa(dp708
g6
VJosh...
p709
sg8
g13
sg10
VC.J.
p710
sg12
g13
sa(dp711
g6
VThey simply aren't mentioned in the Executive Powers section.
p712
sg8
g13
sg10
VBARTLET
p713
sg12
g13
sa(dp714
g6
VLarry's right, we have to put him on the right side of this. He is on the right side of this, but we need help with the answer.
p715
sg8
g13
sg10
VC.J.
p716
sg12
g13
sa(dp717
g6
VYou're asking me to do that which I don't want to do, right?
p718
sg8
g13
sg10
VJOSH
p719
sg12
g13
sa(dp720
g6
VYes.
p721
sg8
g13
sg10
VC.J.
p722
sg12
g9
sa(dp723
g6
VOkay.
p724
sg8
g13
sg10
VJOSH
p725
sg12
g13
sa(dp726
g6
VI have a press briefing.
p727
sg8
g13
sg10
VC.J.
p728
sg12
g19
sa(dp729
g6
VGood afternoon. Today is January 22nd. Let me brief you on the President's morning schedule. He started with... How's that?
p730
sg8
g13
sg10
VC.J.
p731
sg12
g13
sa(dp732
g6
VGood.
p733
sg8
g13
sg10
VCAROL
p734
sg12
g9
sa(dp735
g6
VYeah?
p736
sg8
g13
sg10
VC.J.
p737
sg12
g13
sa(dp738
g6
VYeah.
p739
sg8
g13
sg10
VCAROL
p740
sg12
g13
sa(dp741
g6
VYou sure?
p742
sg8
g13
sg10
VC.J.
p743
sg12
g13
sa(dp744
g6
VYeah.
p745
sg8
g13
sg10
VCAROL
p746
sg12
g13
sa(dp747
g6
VYou don't care.
p748
sg8
g13
sg10
VC.J.
p749
sg12
g19
sa(dp750
g6
VNo.
p751
sg8
g13
sg10
VCAROL
p752
sg12
g13
sa(dp753
g6
VOkay.
p754
sg8
g13
sg10
VC.J.
p755
sg12
g13
sa(dp756
g6
VI've got boxes to unload.
p757
sg8
g13
sg10
VCAROL
p758
sg12
g19
sa(dp759
g6
VI'm going to stay here and practice.
p760
sg8
g9
sg10
VC.J.
p761
sg12
g13
sa(dp762
g6
VNo, David, the President was very clear about that. Mark, then Katie. Mark, Katie, Jessie, Phil, Steve, Betsy, Julie, Julie, Julia, Kevin, Paul, Tom, Sondra, Suzanne... (sighs) Mike, Danny... Elizabeth. 18th seat. 18 you can vote... "vote" sounds like "moat"... which is a trench-- Trent.
p763
sg8
g13
sg10
VC.J.
p764
sg12
g13
sa(dp765
g6
VYeah?
p766
sg8
g13
sg10
VC.J.
p767
sg12
g13
sa(dp768
g6
VI can do better.
p769
sg8
g13
sg10
VC.J.
p770
sg12
g19
sa(dp771
g6
VI wanted to tell you that on December 10th, all 600,000 will be praying for you.
p772
sg8
g13
sg10
VBILL
p773
sg12
g13
sa(dp774
g6
VReally?
p775
sg8
g13
sg10
VC.J.
p776
sg12
g13
sa(dp777
g6
VThat's right.
p778
sg8
g13
sg10
VBILL
p779
sg12
g13
sa(dp780
g6
VI don't understand.
p781
sg8
g13
sg10
VC.J.
p782
sg12
g19
sa(dp783
g6
VWell, once a year, we identify the 365 most influential people in media and we assign each of them a calendar day and we pray for them.
p784
sg8
g9
sg10
VBILL
p785
sg12
g13
sa(dp786
g6
VI really don't know what to say in response to that sort of kindness.
p787
sg8
g9
sg10
VC.J.
p788
sg12
g13
sa(dp789
g6
VWell... maybe the Administration will reconsider their position on some issues?
p790
sg8
g13
sg10
VBILL
p791
sg12
g13
sa(dp792
g6
VLike what?
p793
sg8
g13
sg10
VC.J.
p794
sg12
g13
sa(dp795
g6
VUm... school prayer?
p796
sg8
g13
sg10
VBILL
p797
sg12
g13
sa(dp798
g6
VI think the President's pretty much made up his mind.
p799
sg8
g9
sg10
VC.J.
p800
sg12
g13
sa(dp801
g6
VMillions of Americans want it. There are a lot of votes there.
p802
sg8
g13
sg10
VBILL
p803
sg12
g9
sa(dp804
g6
VYes, but we got as many as we needed for now, so...
p805
sg8
g13
sg10
VC.J.
p806
sg12
g13
sa(dp807
g6
VJust wanted to say hi.
p808
sg8
g13
sg10
VBILL
p809
sg12
g13
sa(dp810
g6
VI'll see you around.
p811
sg8
g13
sg10
VC.J.
p812
sg12
g13
sa(dp813
g6
VOh, by the way... Just so you don't think we disagree on everthing, I think Cornell Rooker is terrific.
p814
sg8
g19
sg10
VBILL
p815
sg12
g19
sa(dp816
g6
VReally?
p817
sg8
g13
sg10
VC.J.
p818
sg12
g13
sa(dp819
g6
VBack in the day we served on a city counsel together. First African-American man I've ever heard make sense on racial profiling.
p820
sg8
g9
sg10
VBILL
p821
sg12
g13
sa(dp822
g6
VIt's nice.
p823
sg8
g13
sg10
VBARTLET
p824
sg12
g13
sa(dp825
g6
VWhat are we doing right now?
p826
sg8
g13
sg10
VBARTLET
p827
sg12
g13
sa(dp828
g6
VThey'll loan stuff?
p829
sg8
g13
sg10
VBARTLET
p830
sg12
g9
sa(dp831
g6
VReally?
p832
sg8
g13
sg10
VBARTLET
p833
sg12
g13
sa(dp834
g6
VI want Apollo 11.
p835
sg8
g13
sg10
VBARTLET
p836
sg12
g13
sa(dp837
g6
VThen don't bother me.
p838
sg8
g19
sg10
VBARTLET
p839
sg12
g19
sa(dp840
g6
VI'm meeting with the leadership, I'm signing six Executive Orders I don't yet understand...
p841
sg8
g13
sg10
VBARTLET
p842
sg12
g19
sa(dp843
g6
VMr. President.
p844
sg8
g13
sg10
VLEO
p845
sg12
g13
sa(dp846
g6
VGod, I thought that was a closet.
p847
sg8
g13
sg10
VBARTLET
p848
sg12
g19
sa(dp849
g6
VIt's my office!
p850
sg8
g13
sg10
VLEO
p851
sg12
g13
sa(dp852
g6
VAll right, the rooms got four doors, it's huge.
p853
sg8
g13
sg10
VBARTLET
p854
sg12
g9
sa(dp855
g6
VI want to run through these Executive Orders.
p856
sg8
g13
sg10
VLEO
p857
sg12
g13
sa(dp858
g6
VDo you understand them?
p859
sg8
g13
sg10
VBARTLET
p860
sg12
g13
sa(dp861
g6
VNot quite yet.
p862
sg8
g13
sg10
VLEO
p863
sg12
g19
sa(dp864
g6
VC.J., what are you doing?
p865
sg8
g13
sg10
VBARTLET
p866
sg12
g13
sa(dp867
g6
VI'm sorry, sir. I just wanted to see Leo.
p868
sg8
g9
sg10
VC.J.
p869
sg12
g19
sa(dp870
g6
V[points to Leo] He's standing right there.
p871
sg8
g9
sg10
VBARTLET
p872
sg12
g13
sa(dp873
g6
VYeah.
p874
sg8
g13
sg10
VC.J.
p875
sg12
g13
sa(dp876
g6
VWould you get your ass in here? Could everyone stop acting strange?
p877
sg8
g19
sg10
VBARTLET
p878
sg12
g13
sa(dp879
g6
VWhat's up?
p880
sg8
g13
sg10
VLEO
p881
sg12
g13
sa(dp882
g6
VA reporter for a conservative Christian magazine introduced himself and happened to serve on a city counsel with Rooker, which is true-- it was in Miami.
p883
sg8
g9
sg10
VC.J.
p884
sg12
g13
sa(dp885
g6
VYeah.
p886
sg8
g13
sg10
VBARTLET
p887
sg12
g13
sa(dp888
g6
VThe reporter said that he liked Rooker's position on racial profiling.
p889
sg8
g9
sg10
VC.J.
p890
sg12
g13
sa(dp891
g6
VThat's strange.
p892
sg8
g13
sg10
VLEO
p893
sg12
g13
sa(dp894
g6
VNo, it's not. We found the transcript. "I'm not saying it should be active policy, but there is no question in my mind that in certain situations, racial profiling can be helpful to law..."
p895
sg8
g9
sg10
VC.J.
p896
sg12
g19
sa(dp897
g6
VLaw enforcement?
p898
sg8
g19
sg10
VBARTLET
p899
sg12
g13
sa(dp900
g6
VYeah.
p901
sg8
g13
sg10
VC.J.
p902
sg12
g13
sa(dp903
g6
VIt's our second day, how do you think it's going so far?
p904
sg8
g13
sg10
VBARTLET
p905
sg12
g13
sa(dp906
g6
VWe'll get into it.
p907
sg8
g13
sg10
VLEO
p908
sg12
g13
sa(dp909
g6
VYes.
p910
sg8
g13
sg10
VBARTLET
p911
sg12
g9
sa(dp912
g6
VAnd down the stretch, here she comes. Here comes Gardner. She's going to take the yellow jersey pass the picturesque farms and hillsides and Champs d'leamp and the white cliffs of Dover. Where do the American's find this kind of spirit?
p913
sg8
g9
sg10
VAMY
p914
sg12
g13
sa(dp915
g6
VHer cell phone's ringing now-- probably a sponsor. Hello?
p916
sg8
g9
sg10
VAMY
p917
sg12
g13
sa(dp918
g6
VIt's Josh.
p919
sg8
g13
sg10
VJOSH
p920
sg12
g13
sa(dp921
g6
VHello.
p922
sg8
g13
sg10
VAMY
p923
sg12
g13
sa(dp924
g6
VYou're breathing very hard.
p925
sg8
g13
sg10
VJOSH
p926
sg12
g19
sa(dp927
g6
VI'm riding.
p928
sg8
g13
sg10
VAMY
p929
sg12
g19
sa(dp930
g6
VThen what are you doing?
p931
sg8
g13
sg10
VJOSH
p932
sg12
g13
sa(dp933
g6
VLater?
p934
sg8
g13
sg10
VAMY
p935
sg12
g13
sa(dp936
g6
VYeah.
p937
sg8
g13
sg10
VJOSH
p938
sg12
g13
sa(dp939
g6
VWith Peter Harlow.
p940
sg8
g13
sg10
VAMY
p941
sg12
g13
sa(dp942
g6
VHow's Peter's wife?
p943
sg8
g13
sg10
VJOSH
p944
sg12
g13
sa(dp945
g6
VThey're separated.
p946
sg8
g13
sg10
VAMY
p947
sg12
g13
sa(dp948
g6
VYes, I know.
p949
sg8
g13
sg10
VJOSH
p950
sg12
g19
sa(dp951
g6
VWhat do you need?
p952
sg8
g13
sg10
VAMY
p953
sg12
g13
sa(dp954
g6
VHow do we stand strong for the modern family in all its quirks and not seem like we're dissing everyone born before 1962?
p955
sg8
g13
sg10
VJOSH
p956
sg12
g13
sa(dp957
g6
VBy doing it.
p958
sg8
g13
sg10
VAMY
p959
sg12
g13
sa(dp960
g6
VYou'll think about it?
p961
sg8
g13
sg10
VJOSH
p962
sg12
g13
sa(dp963
g6
VYeah.
p964
sg8
g13
sg10
VAMY
p965
sg12
g13
sa(dp966
g6
VThank you.
p967
sg8
g13
sg10
VJOSH
p968
sg12
g9
sa(dp969
g6
VYou're going to this meeting?
p970
sg8
g13
sg10
VJOSH
p971
sg12
g13
sa(dp972
g6
VYeah.
p973
sg8
g13
sg10
VSAM
p974
sg12
g13
sa(dp975
g6
VWW-160, you been able to find it?
p976
sg8
g13
sg10
VJOSH
p977
sg12
g9
sa(dp978
g6
VI don't even know where I am right now.
p979
sg8
g13
sg10
VSAM
p980
sg12
g19
sa(dp981
g6
VI'm looking on this side again.
p982
sg8
g13
sg10
VJOSH
p983
sg12
g13
sa(dp984
g6
VDo you mind if I talk to you while we walk?
p985
sg8
g9
sg10
VSAM
p986
sg12
g13
sa(dp987
g6
VWell, we may as well get used to having meetings in the corridors from now on. It may be our only hope. I know now why they made the Oval Office a special shape.
p988
sg8
g9
sg10
VJOSH
p989
sg12
g13
sa(dp990
g6
VSix new editorials-- NAACP, the Urban League, La Raza...
p991
sg8
g13
sg10
VSAM
p992
sg12
g9
sa(dp993
g6
VNAACP doesn't want to see a black Attorney General?
p994
sg8
g19
sg10
VJOSH
p995
sg12
g19
sa(dp996
g6
VNo, I think they do, but they also stand for the ones who get pulled over for having too nice a car.
p997
sg8
g13
sg10
VSAM
p998
sg12
g13
sa(dp999
g6
VThank you.
p1000
sg8
g13
sg10
VJOSH
p1001
sg12
g9
sa(dp1002
g6
VIntergovernmental's also...
p1003
sg8
g13
sg10
VSAM
p1004
sg12
g13
sa(dp1005
g6
VI'm talking to intergovernmental. Does anybody know where WW-160 is?! Hi. I'm Josh Lyman. You all work for me. Does anybody know where WW-160 is?
p1006
sg8
g13
sg10
VJOSH
p1007
sg12
g13
sa(dp1008
g6
VI haven't seen it.
p1009
sg8
g13
sg10
VGINGER
p1010
sg12
g13
sa(dp1011
g6
VThat one hasn't seen it. She's... you know, she's keeping an eye out though.
p1012
sg8
g13
sg10
VJOSH
p1013
sg12
g13
sa(dp1014
g6
VI don't think he's going to be confirmed. I think the first thing that's going to happen to us is we're going to lose the confirmation battle... And spend the next four years with two outs and a full count. If we pull him out now, it's a story for a day and a half, until we announce the next guy. If we wait a week...
p1015
sg8
g9
sg10
VSAM
p1016
sg12
g13
sa(dp1017
g6
VThis is the guy. This is the story.
p1018
sg8
g13
sg10
VJOSH
p1019
sg12
g13
sa(dp1020
g6
VGood. 'Cause you know why? 'Cause hubris always wins in the end. The Greeks taught us that.
p1021
sg8
g13
sg10
VSAM
p1022
sg12
g13
sa(dp1023
g6
VWe were looking for West Wing 160.
p1024
sg8
g13
sg10
VJOSH
p1025
sg12
g13
sa(dp1026
g6
VYeah, I think it's in the Kremlin. Let's just meet here.
p1027
sg8
g13
sg10
VLEO
p1028
sg12
g13
sa(dp1029
g6
VLeo, this is a strong deserving nominee. Sam, it's not hubris. He should be Attorney General.
p1030
sg8
g13
sg10
VJOSH
p1031
sg12
g19
sa(dp1032
g6
VYeah, but he's not going to be. So let's take it from there.
p1033
sg8
g13
sg10
VSAM
p1034
sg12
g13
sa(dp1035
g6
VNo, the President doesn't want to give it up yet.
p1036
sg8
g13
sg10
VLEO
p1037
sg12
g13
sa(dp1038
g6
VLet's line up people for IP, the mornings... "Cornell Rooker has an exceptional record as a U.S. attorney... a leader in fighting employment discrimination...was college chair of... He's tough on crime, he's fair on justice." That's the line. Say that. Do not say that. What the hell was that? "He's tough on crime, he's fair on justice." Sings a song, has a moustache? What is that supposed to...
p1039
sg8
g19
sg10
VTOBY
p1040
sg12
g13
sa(dp1041
g6
VToby's gone to the zoo.
p1042
sg8
g13
sg10
VC.J.
p1043
sg12
g13
sa(dp1044
g6
VYeah, I think we may have killed these two guys with Inauguration.
p1045
sg8
g13
sg10
VLEO
p1046
sg12
g13
sa(dp1047
g6
VLeo, I beseech you-- let me take a pass at some remarks the President can make withdrawing the nomination. We're going to do it anyway, let's do it now.
p1048
sg8
g9
sg10
VSAM
p1049
sg12
g13
sa(dp1050
g6
VHere it is. "Take a thorough look at Cornell Rooker's record, you'll see...
p1051
sg8
g13
sg10
VJOSH
p1052
sg12
g13
sa(dp1053
g6
VYes.
p1054
sg8
g13
sg10
VTOBY
p1055
sg12
g9
sa(dp1056
g6
V...he's fought for justice his entire carer. If you take a thorough look at Cornell Rooker record, you'll see he's fought for justice his entire career."
p1057
sg8
g9
sg10
VJOSH
p1058
sg12
g9
sa(dp1059
g6
VI don't want to be able to turn my head tomorrow without reading that quote.
p1060
sg8
g9
sg10
VTOBY
p1061
sg12
g19
sa(dp1062
g6
VAnything else?
p1063
sg8
g13
sg10
VJOSH
p1064
sg12
g19
sa(dp1065
g6
VNo.
p1066
sg8
g13
sg10
VLEO
p1067
sg12
g13
sa(dp1068
g6
VThank you.
p1069
sg8
g13
sg10
VJOSH
p1070
sg12
g9
sa(dp1071
g6
VHey... I don't think there is a WW-160.
p1072
sg8
g13
sg10
VDONNA
p1073
sg12
g19
sa(dp1074
g6
VYeah, hey. How do you do?
p1075
sg8
g13
sg10
VJOSH
p1076
sg12
g13
sa(dp1077
g6
VWhat?
p1078
sg8
g13
sg10
VDONNA
p1079
sg12
g13
sa(dp1080
g6
VGuess what I have here. It's a copy of "21 Magazine." It's for "Generation Now!"
p1081
sg8
g19
sg10
VJOSH
p1082
sg12
g13
sa(dp1083
g6
VIs my thing in there?
p1084
sg8
g13
sg10
VDONNA
p1085
sg12
g13
sa(dp1086
g6
VYuh-huh.
p1087
sg8
g13
sg10
VJOSH
p1088
sg12
g13
sa(dp1089
g6
VWhat?
p1090
sg8
g13
sg10
VDONNA
p1091
sg12
g13
sa(dp1092
g6
V"In sleek Celia Yang slacks and a classic DKNY button-down, she's not afraid to bring a note of 'Let's do drinks after work' to the office."
p1093
sg8
g9
sg10
VJOSH
p1094
sg12
g13
sa(dp1095
g6
VThat's totally untrue, but I do like the sound of it.
p1096
sg8
g19
sg10
VDONNA
p1097
sg12
g13
sa(dp1098
g6
V"But as much as we love her style, we worry about her inexperience and Bambi-esque naivete. 'There's so much to learn,' says Moss. 'I didn't even know there was a nuclear missile silo under this place.'"
p1099
sg8
g13
sg10
VJOSH
p1100
sg12
g13
sa(dp1101
g6
VI didn't.
p1102
sg8
g13
sg10
VDONNA
p1103
sg12
g19
sa(dp1104
g6
VThere's not!
p1105
sg8
g13
sg10
VJOSH
p1106
sg12
g13
sa(dp1107
g6
VThere is!
p1108
sg8
g13
sg10
VDONNA
p1109
sg12
g13
sa(dp1110
g6
VWho told you that?
p1111
sg8
g13
sg10
VJOSH
p1112
sg12
g13
sa(dp1113
g6
VJeff, when I met him for lunch.
p1114
sg8
g13
sg10
VDONNA
p1115
sg12
g13
sa(dp1116
g6
VLet me take a guess at something. Jeff set you up with a reporter, right?
p1117
sg8
g9
sg10
VJOSH
p1118
sg12
g9
sa(dp1119
g6
VHis girlfriend.
p1120
sg8
g13
sg10
VDONNA
p1121
sg12
g13
sa(dp1122
g6
VYou probably didn't even bring this up, right? The girlfriend led you there?
p1123
sg8
g13
sg10
VJOSH
p1124
sg12
g13
sa(dp1125
g6
VBambiesque?
p1126
sg8
g13
sg10
VDONNA
p1127
sg12
g13
sa(dp1128
g6
VAs does pertain to Bambi. There's a reason why we keep these missile silos way out the hell in the middle nowhere. It's 'cause they're working with some pretty nasty materials. Also, there's not much point in keeping nuclear secrets from China when all they have to do is take the free tour. Did it really sound right to you, when he said it? What'd you think, we'd go to war, and Hercules rockets come flying out of the Rose Garden?
p1129
sg8
g9
sg10
VJOSH
p1130
sg12
g13
sa(dp1131
g6
VThe Eisenhower Putting Green.
p1132
sg8
g13
sg10
VDONNA
p1133
sg12
g13
sa(dp1134
g6
VOh, my God!
p1135
sg8
g13
sg10
VJOSH
p1136
sg12
g13
sa(dp1137
g6
VI'm too stupid to live.
p1138
sg8
g19
sg10
VDONNA
p1139
sg12
g19
sa(dp1140
g6
VThis is just like when I played the lead in "Li'l Abner" in eighth grade and rehearsals are going fine. All of a sudden there's sets and lights and costumes, and everyone's tripping all over themselves except me. You guys all walked into the building and got freaked by the lights. I walked in and, you know, something else happened.
p1141
sg8
g9
sg10
VJOSH
p1142
sg12
g13
sa(dp1143
g6
VWell, we can't all be you.
p1144
sg8
g13
sg10
VDONNA
p1145
sg12
g13
sa(dp1146
g6
VYou all can try a little harder to be.
p1147
sg8
g13
sg10
VJOSH
p1148
sg12
g13
sa(dp1149
g6
VFor sure I'm not taking the iodine tablets.
p1150
sg8
g13
sg10
VDONNA
p1151
sg12
g13
sa(dp1152
g6
VI should be sitting at my desk right now. Do I have a desk yet?
p1153
sg8
g13
sg10
VJOSH
p1154
sg12
g19
sa(dp1155
g6
VNo.
p1156
sg8
g13
sg10
VDONNA
p1157
sg12
g13
sa(dp1158
g6
VOkay. Then I'll just... walk around some more... see if I can get into a pickup meeting.
p1159
sg8
g13
sg10
VJOSH
p1160
sg12
g13
sa(dp1161
g6
VToby?
p1162
sg8
g13
sg10
VCHARLIE
p1163
sg12
g13
sa(dp1164
g6
VYeah?
p1165
sg8
g13
sg10
VTOBY
p1166
sg12
g13
sa(dp1167
g6
VYou going to dinner?
p1168
sg8
g9
sg10
VCHARLIE
p1169
sg12
g13
sa(dp1170
g6
VYeah.
p1171
sg8
g13
sg10
VTOBY
p1172
sg12
g13
sa(dp1173
g6
VI'm a bad friend. I should've been there for you.
p1174
sg8
g13
sg10
VCHARLIE
p1175
sg12
g19
sa(dp1176
g6
VOkay, but I-I don't know what you're talking about.
p1177
sg8
g13
sg10
VTOBY
p1178
sg12
g13
sa(dp1179
g6
VJosh and Sam talked to me. I'm on board.
p1180
sg8
g13
sg10
VCHARLIE
p1181
sg12
g19
sa(dp1182
g6
VWith what?
p1183
sg8
g13
sg10
VTOBY
p1184
sg12
g13
sa(dp1185
g6
VTeam Toby.
p1186
sg8
g13
sg10
VCHARLIE
p1187
sg12
g13
sa(dp1188
g6
VSee, I lent voice to thought and that was my mistake.
p1189
sg8
g19
sg10
VTOBY
p1190
sg12
g19
sa(dp1191
g6
VIf you want to marry Andy, then, damn it, so do I...
p1192
sg8
g13
sg10
VCHARLIE
p1193
sg12
g13
sa(dp1194
g6
VOkay.
p1195
sg8
g13
sg10
VTOBY
p1196
sg12
g13
sa(dp1197
g6
V...want that, you know, to happen to you.
p1198
sg8
g13
sg10
VCHARLIE
p1199
sg12
g13
sa(dp1200
g6
VI get it.
p1201
sg8
g13
sg10
VTOBY
p1202
sg12
g13
sa(dp1203
g6
VDo you? Because this is about love.
p1204
sg8
g9
sg10
VCHARLIE
p1205
sg12
g13
sa(dp1206
g6
VI think you have a different motivation.
p1207
sg8
g13
sg10
VTOBY
p1208
sg12
g13
sa(dp1209
g6
VLaughs?
p1210
sg8
g13
sg10
VCHARLIE
p1211
sg12
g13
sa(dp1212
g6
VYes.
p1213
sg8
g13
sg10
VTOBY
p1214
sg12
g9
sa(dp1215
g6
VSure, but also as much love, really, as I think either one of us are comfortable with.
p1216
sg8
g9
sg10
VCHARLIE
p1217
sg12
g9
sa(dp1218
g6
VYes.
p1219
sg8
g13
sg10
VTOBY
p1220
sg12
g9
sa(dp1221
g6
VWell, let me start here: have you asked her?
p1222
sg8
g13
sg10
VCHARLIE
p1223
sg12
g13
sa(dp1224
g6
VYes.
p1225
sg8
g13
sg10
VTOBY
p1226
sg12
g9
sa(dp1227
g6
VAnd she said no?
p1228
sg8
g13
sg10
VCHARLIE
p1229
sg12
g13
sa(dp1230
g6
VThis is excruciating.
p1231
sg8
g19
sg10
VTOBY
p1232
sg12
g19
sa(dp1233
g6
VYou're going to give me your white blood cells... not all of them, but as many as I want.
p1234
sg8
g9
sg10
VANDY
p1235
sg12
g13
sa(dp1236
g6
VWhy?
p1237
sg8
g13
sg10
VTOBY
p1238
sg12
g13
sa(dp1239
g6
VBecause you love me.
p1240
sg8
g9
sg10
VANDY
p1241
sg12
g9
sa(dp1242
g6
VNo, wha... uh... What's the matter with your white blood cells?
p1243
sg8
g9
sg10
VTOBY
p1244
sg12
g13
sa(dp1245
g6
VNothing. It's my immune system. It's not... recognizing that a pregnancy isn't something it's supposed to attack. So, they draw blood from you... like a rabid dog -- clean it, thank goodness... and give me injections of your blood cells to build up tolerance. You know how you're always saying you wish people were more like you? Well... The guy's had a lot of success.
p1246
sg8
g9
sg10
VANDY
p1247
sg12
g13
sa(dp1248
g6
VYou don't have to sell me. It sounds like something we should try... But let me ask you something, and bear in mind that I'm happy, I'm... eager to go to as many doctors as there are... but should we talk about a stop date?
p1249
sg8
g9
sg10
VTOBY
p1250
sg12
g13
sa(dp1251
g6
VYou mean talk about adoption?
p1252
sg8
g9
sg10
VANDY
p1253
sg12
g13
sa(dp1254
g6
VYeah, we can talk about adopting.
p1255
sg8
g9
sg10
VTOBY
p1256
sg12
g13
sa(dp1257
g6
VYou meant a stop date stop date.
p1258
sg8
g13
sg10
VANDY
p1259
sg12
g9
sa(dp1260
g6
VI meant adopting. I meant surrogacy. And yes, I love kids and I want them and I don't have to have them. And I don't have to have them...
p1261
sg8
g9
sg10
VTOBY
p1262
sg12
g19
sa(dp1263
g6
VI want them.
p1264
sg8
g13
sg10
VANDY
p1265
sg12
g13
sa(dp1266
g6
VAnd I'm there.
p1267
sg8
g13
sg10
VTOBY
p1268
sg12
g19
sa(dp1269
g6
VOkay. You're getting killed on Rooker.
p1270
sg8
g13
sg10
VANDY
p1271
sg12
g13
sa(dp1272
g6
VNo kidding.
p1273
sg8
g13
sg10
VTOBY
p1274
sg12
g13
sa(dp1275
g6
VHey, C.J.
p1276
sg8
g13
sg10
VANDY
p1277
sg12
g9
sa(dp1278
g6
VIs he in there?
p1279
sg8
g13
sg10
VC.J.
p1280
sg12
g13
sa(dp1281
g6
VYeah. Is anything wrong?
p1282
sg8
g19
sg10
VANDY
p1283
sg12
g13
sa(dp1284
g6
VNo...
p1285
sg8
g13
sg10
VC.J.
p1286
sg12
g13
sa(dp1287
g6
VThere's a problem.
p1288
sg8
g19
sg10
VC.J.
p1289
sg12
g13
sa(dp1290
g6
VI just said a stupid thing. What's the problem?
p1291
sg8
g19
sg10
VTOBY
p1292
sg12
g19
sa(dp1293
g6
VWell, I did a one-on-one with Danny Concannon a few days ago on Rooker.
p1294
sg8
g13
sg10
VC.J.
p1295
sg12
g13
sa(dp1296
g6
VDid you say, "If you take a thorough look at Cornell Rooker's record...?"
p1297
sg8
g13
sg10
VTOBY
p1298
sg12
g13
sa(dp1299
g6
VYes, as a matter of fact.
p1300
sg8
g13
sg10
VC.J.
p1301
sg12
g13
sa(dp1302
g6
VAnd?
p1303
sg8
g13
sg10
VTOBY
p1304
sg12
g19
sa(dp1305
g6
VHe did.
p1306
sg8
g13
sg10
VC.J.
p1307
sg12
g13
sa(dp1308
g6
VOh, man.
p1309
sg8
g13
sg10
VTOBY
p1310
sg12
g13
sa(dp1311
g6
VA DUI got fixed in law school. He doesn't want to write about the DUI as much as he wants to write about us being the Capitol Clampettes. What was the stupid thing that you said?
p1312
sg8
g19
sg10
VC.J.
p1313
sg12
g13
sa(dp1314
g6
VDoesn't matter. Let's fix this.
p1315
sg8
g13
sg10
VTOBY
p1316
sg12
g13
sa(dp1317
g6
VIt's an old camp song.
p1318
sg8
g13
sg10
VSAM
p1319
sg12
g13
sa(dp1320
g6
V"Let us be merry, therefore while we are young men. After the joys of youth, after the pains of old age, the ground will have us." It's true.
p1321
sg8
g9
sg10
VSAM
p1322
sg12
g13
sa(dp1323
g6
VNew Hampshire?
p1324
sg8
g13
sg10
VSAM
p1325
sg12
g13
sa(dp1326
g6
VYeah.
p1327
sg8
g13
sg10
VJOEY
p1328
sg12
g13
sa(dp1329
g6
VBy coming out with me.
p1330
sg8
g13
sg10
VSAM
p1331
sg12
g13
sa(dp1332
g6
VThe President's got to spend a little more time in congressional districts we're not going to win.
p1333
sg8
g13
sg10
VSAM
p1334
sg12
g13
sa(dp1335
g6
VTo build Democratic momentum in the very places we traditionally tank. We're running comically weak candidates in these districts. The Tennessee 7th, Horton Wilde in Orange County; he's in the hospital with his fourth heart attack. Who the hell knows when he's going to resume a campaign schedule.
p1336
sg8
g13
sg10
VSAM
p1337
sg12
g13
sa(dp1338
g6
VThat's a resonable point.
p1339
sg8
g13
sg10
VSAM
p1340
sg12
g13
sa(dp1341
g6
VYeah.
p1342
sg8
g13
sg10
VSAM
p1343
sg12
g13
sa(dp1344
g6
VThank you.
p1345
sg8
g13
sg10
VAMY
p1346
sg12
g9
sa(dp1347
g6
VI don't remember you looking this good. Is something different?
p1348
sg8
g9
sg10
VPETER
p1349
sg12
g13
sa(dp1350
g6
VI don't know, the autumnal equinox is usually good to me, but...
p1351
sg8
g9
sg10
VAMY
p1352
sg12
g19
sa(dp1353
g6
VI think that's your cell phone that's been ringing.
p1354
sg8
g13
sg10
VPETER
p1355
sg12
g13
sa(dp1356
g6
VYes. Excuse me. (answers her phone) Hello?
p1357
sg8
g13
sg10
VAMY
p1358
sg12
g13
sa(dp1359
g6
VHello.
p1360
sg8
g13
sg10
VAMY
p1361
sg12
g13
sa(dp1362
g6
VWell, I wouldn't call it that.
p1363
sg8
g13
sg10
VAMY
p1364
sg12
g19
sa(dp1365
g6
VListen, you probably don't want to let him know it's me on the phone. It's too intimidating. It's like going out with Cher and Sonny calls.
p1366
sg8
g19
sg10
VJOSH
p1367
sg12
g13
sa(dp1368
g6
VHow can I help you?
p1369
sg8
g13
sg10
VAMY
p1370
sg12
g13
sa(dp1371
g6
VAny thoughts?
p1372
sg8
g13
sg10
VJOSH
p1373
sg12
g9
sa(dp1374
g6
VYes, Ritchie's right. There's a family crisis in America.
p1375
sg8
g19
sg10
VAMY
p1376
sg12
g13
sa(dp1377
g6
VSo a radical feminist is saying women should stay home with the kids?
p1378
sg8
g13
sg10
VJOSH
p1379
sg12
g13
sa(dp1380
g6
VFirst of all, I don't think I'm a radical anything. Second of all, who said women should stay home? And third is, it's the capitalist treadmill that encourages scheduling quality time on a Palm Pilot. That's not how they do it in Scandinavia.
p1381
sg8
g9
sg10
VAMY
p1382
sg12
g13
sa(dp1383
g6
VBut everybody kills themself in Scandinavia.
p1384
sg8
g13
sg10
VJOSH
p1385
sg12
g13
sa(dp1386
g6
VThat's hard to deny.
p1387
sg8
g19
sg10
VAMY
p1388
sg12
g19
sa(dp1389
g6
VWe need to defend our accomplishments on work and family, many of which you pushed for and show that we get what working parents are going through. Can you help us?
p1390
sg8
g9
sg10
VJOSH
p1391
sg12
g13
sa(dp1392
g6
VYes.
p1393
sg8
g13
sg10
VAMY
p1394
sg12
g9
sa(dp1395
g6
VI'll call back. What would be a really bad time?
p1396
sg8
g19
sg10
VJOSH
p1397
sg12
g19
sa(dp1398
g6
VOh, really anytime.
p1399
sg8
g13
sg10
VAMY
p1400
sg12
g19
sa(dp1401
g6
VOutstanding.
p1402
sg8
g13
sg10
VJOSH
p1403
sg12
g13
sa(dp1404
g6
VJosh?
p1405
sg8
g13
sg10
VDONNA
p1406
sg12
g13
sa(dp1407
g6
VYeah?
p1408
sg8
g13
sg10
VJOSH
p1409
sg12
g13
sa(dp1410
g6
VThere's a Mr. Michael Gordon here to see you.
p1411
sg8
g13
sg10
VDONNA
p1412
sg12
g13
sa(dp1413
g6
VDoes he have an appointment?
p1414
sg8
g13
sg10
VJOSH
p1415
sg12
g13
sa(dp1416
g6
VNo, he's with the NSA.
p1417
sg8
g13
sg10
VDONNA
p1418
sg12
g13
sa(dp1419
g6
VNSA? Send him in.
p1420
sg8
g13
sg10
VJOSH
p1421
sg12
g13
sa(dp1422
g6
VYeah.
p1423
sg8
g13
sg10
VJOSH
p1424
sg12
g13
sa(dp1425
g6
VMr. Gordon.
p1426
sg8
g13
sg10
VMICHAEL
p1427
sg12
g13
sa(dp1428
g6
VDonna says you're with the NSA.
p1429
sg8
g13
sg10
VJOSH
p1430
sg12
g13
sa(dp1431
g6
VI'm not here to bug your office.
p1432
sg8
g19
sg10
VMICHAEL
p1433
sg12
g13
sa(dp1434
g6
VYeah, but you wouldn't tell me of you were, right?
p1435
sg8
g13
sg10
VJOSH
p1436
sg12
g13
sa(dp1437
g6
VIt's about Miss Moss, as a matter of fact.
p1438
sg8
g13
sg10
VMICHAEL
p1439
sg12
g13
sa(dp1440
g6
VWhat's the trouble?
p1441
sg8
g13
sg10
VJOSH
p1442
sg12
g13
sa(dp1443
g6
VProbably nothing, but a few days ago, a teen magazine published a short interview with her.
p1444
sg8
g13
sg10
VMICHAEL
p1445
sg12
g13
sa(dp1446
g6
VYeah, look, the old guys were playing a joke on her. I realize it's not a good idea for a White House staffer to be saying there's a missile in the capitol.
p1447
sg8
g13
sg10
VJOSH
p1448
sg12
g13
sa(dp1449
g6
VWell, the problem is, joke or not, she it a little close to him for our comfort.
p1450
sg8
g19
sg10
VMICHAEL
p1451
sg12
g13
sa(dp1452
g6
VWhat do you mean?
p1453
sg8
g13
sg10
VJOSH
p1454
sg12
g13
sa(dp1455
g6
VObvioulsy I can't elaborate.
p1456
sg8
g13
sg10
VMICHAEL
p1457
sg12
g19
sa(dp1458
g6
V"She hit a little close to home"?
p1459
sg8
g19
sg10
VJOSH
p1460
sg12
g13
sa(dp1461
g6
VYeah.
p1462
sg8
g13
sg10
VMICHAEL
p1463
sg12
g13
sa(dp1464
g6
VYou trying to tell me...?
p1465
sg8
g13
sg10
VJOSH
p1466
sg12
g19
sa(dp1467
g6
VMr. Lyman, you don't have code-word clearance. We need to stay professional.
p1468
sg8
g9
sg10
VMICHAEL
p1469
sg12
g13
sa(dp1470
g6
VYeah.
p1471
sg8
g13
sg10
VJOSH
p1472
sg12
g13
sa(dp1473
g6
VHow long has she been working for you?
p1474
sg8
g9
sg10
VMICHAEL
p1475
sg12
g13
sa(dp1476
g6
VListen, this... this is silly. She was just duped. It was a joke.
p1477
sg8
g19
sg10
VJOSH
p1478
sg12
g19
sa(dp1479
g6
VHow long has she been working for you?
p1480
sg8
g9
sg10
VMICHAEL
p1481
sg12
g13
sa(dp1482
g6
VThis is a giant misunderstanding.
p1483
sg8
g19
sg10
VJOSH
p1484
sg12
g13
sa(dp1485
g6
VMr. Lyman...
p1486
sg8
g13
sg10
VMICHAEL
p1487
sg12
g13
sa(dp1488
g6
VI would vouch for Donna with my life. She doesn't know about missiles. She's from Wisconsin!
p1489
sg8
g9
sg10
VJOSH
p1490
sg12
g13
sa(dp1491
g6
VI'm simply asking how long she's been working for you.
p1492
sg8
g9
sg10
VMICHAEL
p1493
sg12
g13
sa(dp1494
g6
VNo, look, I'm sorry. I'm sure your intentions are good, and this is just routine, but it could get tricky, and I'd like to have her talk to someone.
p1495
sg8
g9
sg10
VJOSH
p1496
sg12
g13
sa(dp1497
g6
VA lawyer?
p1498
sg8
g19
sg10
VMICHAEL
p1499
sg12
g19
sa(dp1500
g6
VYeah.
p1501
sg8
g13
sg10
VJOSH
p1502
sg12
g13
sa(dp1503
g6
VSuit yourself, but until this is straightened out, I'm going to have to revoke her credentials.
p1504
sg8
g19
sg10
VMICHAEL
p1505
sg12
g13
sa(dp1506
g6
VShe's my assistant. For how long?
p1507
sg8
g13
sg10
VJOSH
p1508
sg12
g13
sa(dp1509
g6
VAs long as it takes.
p1510
sg8
g13
sg10
VMICHAEL
p1511
sg12
g19
sa(dp1512
g6
VAll right.
p1513
sg8
g13
sg10
VJOSH
p1514
sg12
g13
sa(dp1515
g6
VThank you.
p1516
sg8
g13
sg10
VMICHAEL
p1517
sg12
g9
sa(dp1518
g6
VDonna...
p1519
sg8
g13
sg10
VJOSH
p1520
sg12
g13
sa(dp1521
g6
VWhat was that?
p1522
sg8
g13
sg10
VDONNA
p1523
sg12
g19
sa(dp1524
g6
VYou got to go home.
p1525
sg8
g13
sg10
VJOSH
p1526
sg12
g13
sa(dp1527
g6
VWhy?
p1528
sg8
g13
sg10
VDONNA
p1529
sg12
g13
sa(dp1530
g6
VThat idiot interview you did, pooped a red flag at NSA. They're revoking your credentials until it's straightened out.
p1531
sg8
g19
sg10
VJOSH
p1532
sg12
g13
sa(dp1533
g6
VI don't believe it.
p1534
sg8
g13
sg10
VDONNA
p1535
sg12
g19
sa(dp1536
g6
VI'm talking to someone in Cochran's office.
p1537
sg8
g13
sg10
VJOSH
p1538
sg12
g13
sa(dp1539
g6
VWhat am I suppose to do?
p1540
sg8
g13
sg10
VDONNA
p1541
sg12
g13
sa(dp1542
g6
VTake a few days off. Go home. Go to the beach.
p1543
sg8
g13
sg10
VJOSH
p1544
sg12
g13
sa(dp1545
g6
VIt's February 2nd.
p1546
sg8
g13
sg10
VDONNA
p1547
sg12
g13
sa(dp1548
g6
VWell, then, I wouldn't go to the beach.
p1549
sg8
g13
sg10
VJOSH
p1550
sg12
g19
sa(dp1551
g6
VYou've got a meeting in Leo's office.
p1552
sg8
g13
sg10
VDONNA
p1553
sg12
g13
sa(dp1554
g6
VDon't worry about this. I'm going to fix this.
p1555
sg8
g19
sg10
VJOSH
p1556
sg12
g19
sa(dp1557
g6
VThe President's not going to be available for a little bit.
p1558
sg8
g13
sg10
VC.J.
p1559
sg12
g13
sa(dp1560
g6
VWhy?
p1561
sg8
g13
sg10
VJOSH
p1562
sg12
g13
sa(dp1563
g6
VFitzwallace just got here.
p1564
sg8
g13
sg10
VC.J.
p1565
sg12
g19
sa(dp1566
g6
VAny idea what's going on?
p1567
sg8
g13
sg10
VJOSH
p1568
sg12
g13
sa(dp1569
g6
VAll right. Listen up. We still have an open question on family, we still have an open question on Rooker, missile defense, and vouchers. We start dress rehearsals tomorrow at 3:00. Let's split up in our groups. I really want vouchers by 10:00, missile defense by 11:00.
p1570
sg8
g9
sg10
VJOSH
p1571
sg12
g13
sa(dp1572
g6
VAnybody not doing anything at midnight-- Team Toby, my cabin.
p1573
sg8
g13
sg10
VSAM
p1574
sg12
g13
sa(dp1575
g6
VGood.
p1576
sg8
g13
sg10
VTOBY
p1577
sg12
g9
sa(dp1578
g6
VBreak's over.
p1579
sg8
g13
sg10
VJOSH
p1580
sg12
g13
sa(dp1581
g6
VThanks for coming down.
p1582
sg8
g13
sg10
VBARTLET
p1583
sg12
g19
sa(dp1584
g6
VWhat's going on?
p1585
sg8
g13
sg10
VLEO
p1586
sg12
g13
sa(dp1587
g6
VThe Mastico, a 200-foot Qumari cargo ship is heading east in the Mediterranean, toward Lebanon.
p1588
sg8
g13
sg10
VFITZWALLACE
p1589
sg12
g13
sa(dp1590
g6
VIs it carrying Qumari arts and crafts?
p1591
sg8
g13
sg10
VLEO
p1592
sg12
g13
sa(dp1593
g6
VNo, it's carrying 72 tons of weapons and explosives, including a Multiple Launch Rocket System.
p1594
sg8
g9
sg10
VFITZWALLACE
p1595
sg12
g9
sa(dp1596
g6
VThis fires twelve warheads with 644 M-77 munitions. It does it in 60 seconds.
p1597
sg8
g13
sg10
VLEO
p1598
sg12
g13
sa(dp1599
g6
VThe global positioning device on the MLRS is how we found the ship. This is the message in a bottle we've been waiting for.
p1600
sg8
g9
sg10
VFITZWALLACE
p1601
sg12
g13
sa(dp1602
g6
VThey turn around the ship in exchange for what?
p1603
sg8
g9
sg10
VBARTLET
p1604
sg12
g13
sa(dp1605
g6
VAccess to the High Altitude Area Defense program.
p1606
sg8
g13
sg10
VFITZWALLACE
p1607
sg12
g13
sa(dp1608
g6
VThat's okay, 'cause that's just the most sophisticated anti-ballistic missile system in history short of Star Wars. What else?
p1609
sg8
g13
sg10
VLEO
p1610
sg12
g13
sa(dp1611
g6
VThey're arming the Bahji, Leo. Two training camps of which the Israelis just attacked. I've gotta turn around the boat-- tonight. Tomorrow we'll worry about tomorrow.
p1612
sg8
g19
sg10
VBARTLET
p1613
sg12
g13
sa(dp1614
g6
VWell, we can invite the Sultan over for a mixer.
p1615
sg8
g9
sg10
VLEO
p1616
sg12
g13
sa(dp1617
g6
VLook...
p1618
sg8
g13
sg10
VBARTLET
p1619
sg12
g13
sa(dp1620
g6
VA nice mixer. Punch, sack races, whatnot... Why are we playing games with these people? They refuse to catch and prosecute the Bahji. In fact, they support them in a variety of ways. Why isn't that the end of the conversation? "We'll worry about tomorrow, tomorrow." We said that yesterday.
p1621
sg8
g19
sg10
VLEO
p1622
sg12
g13
sa(dp1623
g6
VFitz?
p1624
sg8
g13
sg10
VBARTLET
p1625
sg12
g13
sa(dp1626
g6
VI couldn't agree with Leo more.
p1627
sg8
g9
sg10
VFITZWALLACE
p1628
sg12
g19
sa(dp1629
g6
VWhat about Nancy?
p1630
sg8
g13
sg10
VBARTLET
p1631
sg12
g13
sa(dp1632
g6
VYeah.
p1633
sg8
g13
sg10
VFITZWALLACE
p1634
sg12
g13
sa(dp1635
g6
VWhat's available from the Sixth Fleet?
p1636
sg8
g13
sg10
VBARTLET
p1637
sg12
g13
sa(dp1638
g6
VOne Forward Unit east of the Mastico-- the 26th Marine Expeditionary.
p1639
sg8
g13
sg10
VFITZWALLACE
p1640
sg12
g13
sa(dp1641
g6
VStop the boat. Don't shoot it unless I tell you to.
p1642
sg8
g19
sg10
VBARTLET
p1643
sg12
g19
sa(dp1644
g6
VYes, sir.
p1645
sg8
g9
sg10
VFITZWALLACE
p1646
sg12
g9
sa(dp1647
g6
VThis doesn't feel good, does it? It's quiet, you know. It's too quiet.
p1648
sg8
g9
sg10
VC.J.
p1649
sg12
g9
sa(dp1650
g6
VC.J....
p1651
sg8
g13
sg10
VTOBY
p1652
sg12
g13
sa(dp1653
g6
VYeah.
p1654
sg8
g13
sg10
VC.J.
p1655
sg12
g13
sa(dp1656
g6
VThe President has withdrawn Rooker's name from nomination.
p1657
sg8
g9
sg10
VLEO
p1658
sg12
g13
sa(dp1659
g6
VWell, at least it's behind us.
p1660
sg8
g13
sg10
VSAM
p1661
sg12
g13
sa(dp1662
g6
VNot quite. Our report card for our first two weeks in office. The President's approval has gone from 61% during the transition-- when, I suppose, there's nothing to approve-- to 49% once there was. 47% see him as a strong leader-- a result of bungling the Rooker nomination-- and African-American support, which basically elected him, has gone from 92 to 78. Finally, if the election were held today, the President would be Chairman of the Economics Department at Phillips Andover Academy. Can anyone report anything good?
p1663
sg8
g9
sg10
VLEO
p1664
sg12
g13
sa(dp1665
g6
V600,000 Evangelicals are praying for me... so... we have that going for us.
p1666
sg8
g13
sg10
VC.J.
p1667
sg12
g13
sa(dp1668
g6
VWhat the hell are yoy talking about?
p1669
sg8
g19
sg10
VLEO
p1670
sg12
g13
sa(dp1671
g6
VIt's true-- a guy gave me this card: "365 in Media."
p1672
sg8
g9
sg10
VC.J.
p1673
sg12
g13
sa(dp1674
g6
VWho are the others?
p1675
sg8
g13
sg10
VSAM
p1676
sg12
g13
sa(dp1677
g6
VI don't know, let's see... "Hugh Hefner, Don Imus, Howard Stern..." all the late-night guys. This is... one, two, three... this is the Editorial Board of The New York Times. This isn't a good list, this is a list of people who are going to hell!
p1678
sg8
g13
sg10
VC.J.
p1679
sg12
g13
sa(dp1680
g6
VYes.
p1681
sg8
g13
sg10
VTOBY
p1682
sg12
g9
sa(dp1683
g6
VThey're not praying for me because they like me! It's 'cause I'm doomed to eternal damnation!
p1684
sg8
g19
sg10
VC.J.
p1685
sg12
g13
sa(dp1686
g6
VWell, if you weren't, it'd be a waste of praying.
p1687
sg8
g19
sg10
VSAM
p1688
sg12
g19
sa(dp1689
g6
VYou're on the list too, pal.
p1690
sg8
g13
sg10
VC.J.
p1691
sg12
g13
sa(dp1692
g6
VCan I see that?
p1693
sg8
g13
sg10
VSAM
p1694
sg12
g19
sa(dp1695
g6
VYou can all leave.
p1696
sg8
g19
sg10
VLEO
p1697
sg12
g19
sa(dp1698
g6
VWe're going to do better for you, boss.
p1699
sg8
g13
sg10
VJOSH
p1700
sg12
g13
sa(dp1701
g6
VDo better for him.
p1702
sg8
g13
sg10
VLEO
p1703
sg12
g13
sa(dp1704
g6
VWe will.
p1705
sg8
g13
sg10
VC.J.
p1706
sg12
g13
sa(dp1707
g6
VWe will.
p1708
sg8
g13
sg10
VTOBY
p1709
sg12
g13
sa(dp1710
g6
VSam...
p1711
sg8
g13
sg10
VJOSH
p1712
sg12
g13
sa(dp1713
g6
VYeah.
p1714
sg8
g13
sg10
VSAM
p1715
sg12
g13
sa(dp1716
g6
VCan you walk with me a second?
p1717
sg8
g13
sg10
VJOSH
p1718
sg12
g13
sa(dp1719
g6
VYeah.
p1720
sg8
g13
sg10
VSAM
p1721
sg12
g13
sa(dp1722
g6
VWell, you were right, I was wrong.
p1723
sg8
g19
sg10
VJOSH
p1724
sg12
g19
sa(dp1725
g6
VMore often then not, it's going to be the other way around, so...
p1726
sg8
g13
sg10
VSAM
p1727
sg12
g13
sa(dp1728
g6
VThanks. Listen, I got a weird problem.
p1729
sg8
g19
sg10
VJOSH
p1730
sg12
g19
sa(dp1731
g6
VWhat?
p1732
sg8
g13
sg10
VSAM
p1733
sg12
g13
sa(dp1734
g6
VRemember Donna had lunch with Mack's assistant a few weeks ago? He told her there's a missile silo on the grounds. She repeated it to a magazine and an NSA guy came to see me just now, and said she struck a little close to home and they want to investigate. In the meantime, they've revoked her credentials.
p1735
sg8
g9
sg10
VJOSH
p1736
sg12
g13
sa(dp1737
g6
V"Struck to close to home." What does that mean?
p1738
sg8
g13
sg10
VSAM
p1739
sg12
g13
sa(dp1740
g6
VIt means somehow she... There's actually some kind of weapons system right here on the White House... or... intelligence gathering... Wait a minute. This doesn't sound right.
p1741
sg8
g9
sg10
VJOSH
p1742
sg12
g13
sa(dp1743
g6
VHi.
p1744
sg8
g13
sg10
VJOSH
p1745
sg12
g13
sa(dp1746
g6
VHey. Just... hanging with my friend Michael. He works in the staff secretary's office. Plus, he's got his own band. By the way, you know what your name is for the next month?
p1747
sg8
g13
sg10
VDONNA
p1748
sg12
g13
sa(dp1749
g6
VIt's going to be bambi, isn't it?
p1750
sg8
g13
sg10
VJOSH
p1751
sg12
g13
sa(dp1752
g6
VYeah, it's going to be Bambi-ass. But on your good days, I'm calling you Abner 'cause you stepped into the White House and didn't flinch.
p1753
sg8
g13
sg10
VDONNA
p1754
sg12
g13
sa(dp1755
g6
VI'm making phone calls.
p1756
sg8
g19
sg10
VJOSH
p1757
sg12
g19
sa(dp1758
g6
VYeah?
p1759
sg8
g13
sg10
VAMY
p1760
sg12
g13
sa(dp1761
g6
VHow you doing?
p1762
sg8
g13
sg10
VJOSH
p1763
sg12
g13
sa(dp1764
g6
VI'm freezing.
p1765
sg8
g19
sg10
VAMY
p1766
sg12
g19
sa(dp1767
g6
VWhere are you?
p1768
sg8
g13
sg10
VJOSH
p1769
sg12
g13
sa(dp1770
g6
VI'm at my front door.
p1771
sg8
g13
sg10
VAMY
p1772
sg12
g19
sa(dp1773
g6
VWell, go inside.
p1774
sg8
g13
sg10
VJOSH
p1775
sg12
g13
sa(dp1776
g6
VI can't, I'll lose you.
p1777
sg8
g19
sg10
VAMY
p1778
sg12
g19
sa(dp1779
g6
VYou'll never lose me, Amy.
p1780
sg8
g19
sg10
VJOSH
p1781
sg12
g13
sa(dp1782
g6
V[beat] Please don't say that.
p1783
sg8
g13
sg10
VAMY
p1784
sg12
g19
sa(dp1785
g6
VWhat do you have?
p1786
sg8
g13
sg10
VJOSH
p1787
sg12
g13
sa(dp1788
g6
VI don't have anything.
p1789
sg8
g13
sg10
VAMY
p1790
sg12
g19
sa(dp1791
g6
VI don't believe you.
p1792
sg8
g13
sg10
VJOSH
p1793
sg12
g19
sa(dp1794
g6
VI don't know what you want me to say. I want women to have help from the government. I want women to earn what men earn. I want everyone to earn enough so that everyone can make the right choice for their family, and after that, it's none of your business who stays home and who goes to work. You don't know more about raising a family than I do.
p1795
sg8
g9
sg10
VAMY
p1796
sg12
g13
sa(dp1797
g6
VThat was it. We got it. We'll give it a test. I'll call you back. Probably around 1:00.
p1798
sg8
g13
sg10
VJOSH
p1799
sg12
g13
sa(dp1800
g6
VA.M.?
p1801
sg8
g13
sg10
VAMY
p1802
sg12
g13
sa(dp1803
g6
VYeah.
p1804
sg8
g13
sg10
VJOSH
p1805
sg12
g13
sa(dp1806
g6
VGood.
p1807
sg8
g13
sg10
VAMY
p1808
sg12
g9
sa(dp1809
g6
VLet's get that in the form of an answer.
p1810
sg8
g13
sg10
VJOSH
p1811
sg12
g13
sa(dp1812
g6
VWe got something from Amy.
p1813
sg8
g13
sg10
VC.J.
p1814
sg12
g13
sa(dp1815
g6
VGood.
p1816
sg8
g13
sg10
VTOBY
p1817
sg12
g9
sa(dp1818
g6
VHe was wondering, the Team Toby meeting. Toby doesn't need to be there, right?
p1819
sg8
g13
sg10
VCHARLIE
p1820
sg12
g13
sa(dp1821
g6
VI wasn't really wondering.
p1822
sg8
g13
sg10
VTOBY
p1823
sg12
g19
sa(dp1824
g6
VWhy don't you just do your job as a man and get that nice girl pregnant.
p1825
sg8
g9
sg10
VJOSH
p1826
sg12
g13
sa(dp1827
g6
VI did.
p1828
sg8
g13
sg10
VTOBY
p1829
sg12
g13
sa(dp1830
g6
VWait, what?
p1831
sg8
g13
sg10
VJOSH
p1832
sg12
g9
sa(dp1833
g6
VWhat?
p1834
sg8
g13
sg10
VC.J.
p1835
sg12
g13
sa(dp1836
g6
VAndy's pregnant.
p1837
sg8
g13
sg10
VTOBY
p1838
sg12
g13
sa(dp1839
g6
VToby, Andy's pregnant?
p1840
sg8
g13
sg10
VJOSH
p1841
sg12
g9
sa(dp1842
g6
VWith twins.
p1843
sg8
g13
sg10
VTOBY
p1844
sg12
g19
sa(dp1845
g6
VThis is incredible.
p1846
sg8
g13
sg10
VSAM
p1847
sg12
g9
sa(dp1848
g6
VAnd they're yours?
p1849
sg8
g13
sg10
VJOSH
p1850
sg12
g19
sa(dp1851
g6
VYeah.
p1852
sg8
g13
sg10
VTOBY
p1853
sg12
g13
sa(dp1854
g6
VBoth of them?
p1855
sg8
g13
sg10
VJOSH
p1856
sg12
g13
sa(dp1857
g6
VI'm going downstairs.
p1858
sg8
g13
sg10
VTOBY
p1859
sg12
g19
sa(dp1860
g6
VWell, we're going to have to step this up now.
p1861
sg8
g13
sg10
VCHARLIE
p1862
sg12
g13
sa(dp1863
g6
VYeah.
p1864
sg8
g13
sg10
VC.J.
p1865
sg12
g13
sa(dp1866
g6
VLet's go.
p1867
sg8
g13
sg10
VSAM
p1868
sg12
g13
sa(dp1869
g6
VHey.
p1870
sg8
g13
sg10
VBARTLET
p1871
sg12
g13
sa(dp1872
g6
VGood evening, Mr. President.
p1873
sg8
g13
sg10
VSAM
p1874
sg12
g13
sa(dp1875
g6
VDid you have a good day?
p1876
sg8
g9
sg10
VBARTLET
p1877
sg12
g13
sa(dp1878
g6
VYes, sir. We haven't found the answer we like on the Rooker question yet.
p1879
sg8
g9
sg10
VSAM
p1880
sg12
g13
sa(dp1881
g6
VYou know what I remember he said to me? He said, "Mr. President, when I hear black footsteps behind me, I'm scared. When I hear white footsteps, I'm not."
p1882
sg8
g13
sg10
VBARTLET
p1883
sg12
g13
sa(dp1884
g6
VWell, I think we both know people who's say different. But you have to respect him for voicing such an unpopular opinion amongst people to whom he's a leader.
p1885
sg8
g9
sg10
VSAM
p1886
sg12
g13
sa(dp1887
g6
VYou pay for these things for such a long time. Too long, don't you think?
p1888
sg8
g9
sg10
VBARTLET
p1889
sg12
g13
sa(dp1890
g6
VI absolutely do... And I don't know why we struggle with it.
p1891
sg8
g19
sg10
VSAM
p1892
sg12
g19
sa(dp1893
g6
VWe made a mistake... I corrected it. I'll make more.
p1894
sg8
g19
sg10
VBARTLET
p1895
sg12
g19
sa(dp1896
g6
VYes. Humans can't rebut that. It's prevent defense and has the added merit of being true.
p1897
sg8
g9
sg10
VSAM
p1898
sg12
g9
sa(dp1899
g6
VAm I going to lose New Hampshire?
p1900
sg8
g19
sg10
VBARTLET
p1901
sg12
g13
sa(dp1902
g6
VYes, sir.
p1903
sg8
g9
sg10
VSAM
p1904
sg12
g9
sa(dp1905
g6
VI don't mind blowing the knucklehead stuff like Rooker... Rooker's not knucklehead, but... if I'm making mistakes there, how do I know I'm not doing it when it comes to matters like death and destruction?
p1906
sg8
g19
sg10
VBARTLET
p1907
sg12
g13
sa(dp1908
g6
VWell, probably you don't, 'cause there's no manual. Sir, we expect the President to face the world in his own way, for his own time. Also, luckily for all of us, you have better advisors in that area than you do in domestic and political policy.
p1909
sg8
g9
sg10
VSAM
p1910
sg12
g13
sa(dp1911
g6
VAll right. When we're done tonight, we should talk about moving money to Ohio.
p1912
sg8
g9
sg10
VBARTLET
p1913
sg12
g13
sa(dp1914
g6
VYes, sir, and maybe making a stop in Orange County. You know, our candidate in the 47th is such a dynamo that he's in the hospital with his fourth heart attack.
p1915
sg8
g9
sg10
VSAM
p1916
sg12
g9
sa(dp1917
g6
VNot anymore. He's dead.
p1918
sg8
g13
sg10
VBARTLET
p1919
sg12
g19
sa(dp1920
g6
VOkay.
p1921
sg8
g13
sg10
VSAM
p1922
sg12
g13
sa(dp1923
g6
VLet's go.
p1924
sg8
g13
sg10
VBARTLET
p1925
sg12
g13
sa(dp1926
g6
VAnd stay up in my face, okay?
p1927
sg8
g13
sg10
VBARTLET
p1928
sg12
g13
sa(dp1929
g6
VYes, sir.
p1930
sg8
g9
sg10
VSAM
p1931
sg12
g9
sa(dp1932
g6
VI swear to God, the winner of this debate's going to be the next President. Anybody want to be on the losing team?
p1933
sg8
g9
sg10
VBARTLET
p1934
sg12
g13
sa(dp1935
g6
VNo, sir.
p1936
sg8
g9
sg10
VALL
p1937
sg12
g13
sa(dp1938
g6
VThen let's pump it up. Let's go, Claudia Jean.
p1939
sg8
g13
sg10
VBARTLET
p1940
sg12
g13
sa(dp1941
g6
VGood evening, and welcome to the Presidential debate between President Josiah Bartlet and Governor Robert Ritchie being brought to you from the Univerisity of California, San Diego. The format agreed to by both candidates, is as follows: A candidate will have 90-seconds to respond, followed with a 60-second questioning by his opponent, followed by 60-second summation. By virtue of a coin toss, Mr. President, the first qestion goes to you.
p1942
sg8
g9
sg10
VC.J.
p1943
sg12
g13
sas.