(dp0
S'season'
p1
I5
sS'episode'
p2
I14
sS'script'
p3
(lp4
(dp5
S'text'
p6
VTango Outlaw 1-6, Raven One approaching An Khe.
p7
sS'bow_score'
p8
S'neutral'
p9
sS'character'
p10
VPILOT
p11
sS'maxent_score'
p12
S'positive'
p13
sa(dp14
g6
VRoger One. Operation is in heavy contact at Bravo Romeo 945374. They need FAC ASAP. Fox Mike 45.8.
p15
sg8
g13
sg10
VPILOT
p16
sg12
g9
sa(dp17
g6
VComing up on your wing, lead. You drawing targets?
p18
sg8
g13
sg10
VPILOT
p19
sg12
g13
sa(dp20
g6
VRoger, two. First drop's just beyond the tree line.
p21
sg8
g13
sg10
VPILOT
p22
sg12
g9
sa(dp23
g6
VI've got it.
p24
sg8
g9
sg10
VPILOT
p25
sg12
g13
sa(dp26
g6
VKeep up your speed. Don't stop.
p27
sg8
g9
sg10
VPILOT
p28
sg12
S'negative'
p29
sa(dp30
g6
VThey just salvoed.
p31
sg8
g9
sg10
VPILOT
p32
sg12
g29
sa(dp33
g6
VLocked on target.
p34
sg8
g9
sg10
VPILOT
p35
sg12
g9
sa(dp36
g6
VRaven two locked on target.
p37
sg8
g9
sg10
VPILOT
p38
sg12
g9
sa(dp39
g6
VWe've been hit.
p40
sg8
g29
sg10
VPILOT
p41
sg12
g29
sa(dp42
g6
VFire light's on. Can you see, two?
p43
sg8
g9
sg10
VPILOT
p44
sg12
g9
sa(dp45
g6
VClear off the wing. You've got two tanks near the fire.
p46
sg8
g9
sg10
VPILOT
p47
sg12
g9
sa(dp48
g6
VWe've lost hydraulics.
p49
sg8
g29
sg10
VPILOT
p50
sg12
g9
sa(dp51
g6
VSo, so he says, "That's my Mulligan." And I say, "But you've already taken your Mulligan." "Yeah," Kenny says, "but we're playing Texas rules."
p52
sg8
g9
sg10
VLEO
p53
sg12
g9
sa(dp54
g6
VOkay, okay, let's try to forget for a moment his success in the private sector creating jobs and generating enormous tax revenues the President and I get to fool around with. And let's talk about his commitment to his community; Chairman of the Board of University Medical Center, the Opera Society and Symphony, although I suspect the opera thing is more Sally. CEO and Chairman of Mueller-Wright Aeronautics and this year's Chicago Business Conference Humanitarian of the Year. The finest man that I have ever had the great privilege to call my friend, your own Kenneth Sean O'Neal.
p55
sg8
g13
sg10
VLEO
p56
sg12
g9
sa(dp57
g6
VI wouldn't have missed it for the world. How are Beth and Sandy?
p58
sg8
g9
sg10
VLEO
p59
sg12
g29
sa(dp60
g6
VBeth's expecting again, and Sandy is Sandy.
p61
sg8
g9
sg10
VSALLY
p62
sg12
g29
sa(dp63
g6
VHow's Ramses coming along?
p64
sg8
g9
sg10
VLEO
p65
sg12
g9
sa(dp66
g6
VIf I'm not, I'll make sure I will be. You want me to place a call?
p67
sg8
g9
sg10
VLEO
p68
sg12
g9
sa(dp69
g6
VCongratulations, Kenny.
p70
sg8
g9
sg10
VLEO
p71
sg12
g13
sa(dp72
g6
VSaving it from democracy's more what it feels like. I'll see you on Thursday.
p73
sg8
g13
sg10
VLEO
p74
sg12
g9
sa(dp75
g6
VBye now.
p76
sg8
g9
sg10
VSALLY
p77
sg12
g9
sa(dp78
g6
VI don't need a portrait.
p79
sg8
g9
sg10
VBARTLET
p80
sg12
g29
sa(dp81
g6
VOf course you do.
p82
sg8
g9
sg10
VABBY
p83
sg12
g9
sa(dp84
g6
VWhat, me with my Irish Wolfhound gazing with portent out over the Potomac?
p85
sg8
g9
sg10
VBARTLET
p86
sg12
g9
sa(dp87
g6
VYou don't have an Irish Wolfhound.
p88
sg8
g9
sg10
VABBY
p89
sg12
g9
sa(dp90
g6
VMy point exactly.
p91
sg8
g9
sg10
VBARTLET
p92
sg12
g9
sa(dp93
g6
V[into phone] Yeah. ... Sure, send him in.
p94
sg8
g9
sg10
VBARTLET
p95
sg12
g9
sa(dp96
g6
VCharlie. And when am I supposed to find time to sit for some cut-rate Ruebens while he angles me just so to catch the late afternoon light?
p97
sg8
g29
sg10
VBARTLET
p98
sg12
g9
sa(dp99
g6
VYou do know it's not a nude, right?
p100
sg8
g9
sg10
VABBY
p101
sg12
g9
sa(dp102
g6
VExcuse me, Mr. President. Mrs. Bartlet, sorry to bother you.
p103
sg8
g29
sg10
VCHARLIE
p104
sg12
g9
sa(dp105
g6
VOh, no. Come on in, bring your jammies. We're about to start the pillow fight.
p106
sg8
g9
sg10
VABBY
p107
sg12
g9
sa(dp108
g6
VThe General's waiting outside.
p109
sg8
g9
sg10
VCHARLIE
p110
sg12
g9
sa(dp111
g6
VWhy not invite him in, too? I'll pop some popcorn, we'll watch Patton on cable.
p112
sg8
g9
sg10
VABBY
p113
sg12
g9
sa(dp114
g6
VSorry to disturb you, sir.
p115
sg8
g13
sg10
VALEXANDER
p116
sg12
g13
sa(dp117
g6
VWhat's happened?
p118
sg8
g9
sg10
VBARTLET
p119
sg12
g9
sa(dp120
g6
VA Navy E-2 Hawkeye providing command and control for the Carl Vinsen Carrier Battle Group went down in the Sea of Japan.
p121
sg8
g13
sg10
VALEXANDER
p122
sg12
g9
sa(dp123
g6
VAny survivors?
p124
sg8
g9
sg10
VBARTLET
p125
sg12
g9
sa(dp126
g6
VYes, sir. We believe so. We're picking up signals from four of their five GPS locator beacons.
p127
sg8
g13
sg10
VALEXANDER
p128
sg12
g9
sa(dp129
g6
VSo we got get them.
p130
sg8
g9
sg10
VBARTLET
p131
sg12
g9
sa(dp132
g6
VThey may be difficult to retrieve in their current location.
p133
sg8
g9
sg10
VALEXANDER
p134
sg12
g9
sa(dp135
g6
VWhere are they?
p136
sg8
g9
sg10
VBARTLET
p137
sg12
g9
sa(dp138
g6
VSomewhere north of Kimch'ack, 300 kilometers northeast of P'yongyang, in the Republic of North Korea.
p139
sg8
g9
sg10
VALEXANDER
p140
sg12
g9
sa(dp141
g6
VHow was Chicago?
p142
sg8
g9
sg10
VBARTLET
p143
sg12
g9
sa(dp144
g6
VQuick. Where are we?
p145
sg8
g9
sg10
VLEO
p146
sg12
g9
sa(dp147
g6
VAn E-2C Hawkeye was being harassed by two North Korean MiGs over the Sea of Japan. The MiGs had made two non-firing passes, one less than ten feet off his wing.
p148
sg8
g9
sg10
VALEXANDER
p149
sg12
g9
sa(dp150
g6
VThe crew make it out?
p151
sg8
g9
sg10
VLEO
p152
sg12
g9
sa(dp153
g6
VWe've located four of the five crew members and identified two large pieces of wreckage a mile off the coast.
p154
sg8
g13
sg10
VALEXANDER
p155
sg12
g9
sa(dp156
g6
VOur people are in the water?
p157
sg8
g9
sg10
VLEO
p158
sg12
g9
sa(dp159
g6
VIn North Korea.
p160
sg8
g9
sg10
VLEO
p161
sg12
g9
sa(dp162
g6
VWhat will the crew do?
p163
sg8
g9
sg10
VBARTLET
p164
sg12
g9
sa(dp165
g6
VLay low, stay out of sight, wait for us to come get them.
p166
sg8
g29
sg10
VLEO
p167
sg12
g9
sa(dp168
g6
VWe can't go get them. Sending a Special Forces covert retrieval team into North Korea will be seen as an act of war.
p169
sg8
g29
sg10
VBARROW
p170
sg12
g9
sa(dp171
g6
VWe're still at war with North Korea. We never signed an armistice.
p172
sg8
g29
sg10
VLEO
p173
sg12
g9
sa(dp174
g6
VIf they capture our people, they'll be held as POWs. Or worse, they'll deny they even have them.
p175
sg8
g29
sg10
VALEXANDER
p176
sg12
g9
sa(dp177
g6
VWe can negotiate for their safe return.
p178
sg8
g13
sg10
VBARROW
p179
sg12
g9
sa(dp180
g6
VCan you guarantee they'll negotiate?
p181
sg8
g13
sg10
VALEXANDER
p182
sg12
g13
sa(dp183
g6
VCan you guarantee you can go get them without starting another war?
p184
sg8
g9
sg10
VBARROW
p185
sg12
g9
sa(dp186
g6
VDo we have any way of confirming that they're still alive?
p187
sg8
g13
sg10
VBARTLET
p188
sg12
g9
sa(dp189
g6
VThey were in the water, now they're on land.
p190
sg8
g13
sg10
VMCGILL
p191
sg12
g9
sa(dp192
g6
VWe have any keyhole satellites currently in position?
p193
sg8
g9
sg10
VLEO
p194
sg12
g9
sa(dp195
g6
VWe're scrambling reconnaissance out of Okinawa and Osan. Should be over the crash site in three hours.
p196
sg8
g29
sg10
VALEXANDER
p197
sg12
g9
sa(dp198
g6
VCall me when you know.
p199
sg8
g9
sg10
VBARTLET
p200
sg12
g9
sa(dp201
g6
VThank you, sir.
p202
sg8
g13
sg10
VALL
p203
sg12
g13
sa(dp204
g6
VLast night's summaries, the daybook, press guidance from the NSC and the policy shops, State department cables. Legislative Affairs says a new amendment is moving through Ways and Means. Congressman Wendt wants a tax cut for stay-at-home moms.
p205
sg8
g9
sg10
VCAROL
p206
sg12
g9
sa(dp207
g6
VToo late to slip in incentives for stay-at-home Congressmen?
p208
sg8
g29
sg10
VC.J.
p209
sg12
g29
sa(dp210
g6
VThe President's flying to Wendt's district in South Carolina on Saturday. They want you to read the guidance before the gaggle. Think it might come up.
p211
sg8
g13
sg10
VCAROL
p212
sg12
g9
sa(dp213
g6
VReally? You think?
p214
sg8
g9
sg10
VC.J.
p215
sg12
g9
sa(dp216
g6
VSo, tomorrow's the big day?
p217
sg8
g9
sg10
VCAROL
p218
sg12
g9
sa(dp219
g6
VWhat?
p220
sg8
g9
sg10
VC.J.
p221
sg12
g9
sa(dp222
g6
VMystery Ben.
p223
sg8
g9
sg10
VCAROL
p224
sg12
g9
sa(dp225
g6
VWhat about him?
p226
sg8
g9
sg10
VC.J.
p227
sg12
g9
sa(dp228
g6
VHe's coming by to say hello.
p229
sg8
g9
sg10
VCAROL
p230
sg12
g9
sa(dp231
g6
VNo, he isn't.
p232
sg8
g9
sg10
VC.J.
p233
sg12
g29
sa(dp234
g6
VHe's in town and he called.
p235
sg8
g9
sg10
VCAROL
p236
sg12
g9
sa(dp237
g6
VAnd you gave him an appointment?
p238
sg8
g9
sg10
VC.J.
p239
sg12
g9
sa(dp240
g6
VHe seemed nice.
p241
sg8
g9
sg10
VCAROL
p242
sg12
g9
sa(dp243
g6
VHe is nice. Very nice. Also very married.
p244
sg8
g9
sg10
VC.J.
p245
sg12
g29
sa(dp246
g6
VNot anymore.
p247
sg8
g9
sg10
VCAROL
p248
sg12
g29
sa(dp249
g6
VHe and Katie split up?
p250
sg8
g29
sg10
VC.J.
p251
sg12
g29
sa(dp252
g6
VKatie's living in Portland with an orthodontist.
p253
sg8
g9
sg10
VCAROL
p254
sg12
g13
sa(dp255
g6
VReally?
p256
sg8
g9
sg10
VC.J.
p257
sg12
g9
sa(dp258
g6
VAnd Toby and Josh are in your office.
p259
sg8
g9
sg10
VCAROL
p260
sg12
g9
sa(dp261
g6
VWhat do they want?
p262
sg8
g9
sg10
VC.J.
p263
sg12
g9
sa(dp264
g6
VTo make fun of you, I think.
p265
sg8
g13
sg10
VCAROL
p266
sg12
g9
sa(dp267
g6
VAnd you let them in?
p268
sg8
g9
sg10
VC.J.
p269
sg12
g9
sa(dp270
g6
VAnd got them coffee.
p271
sg8
g9
sg10
VCAROL
p272
sg12
g9
sa(dp273
g6
VWe've got a problem with the South Carolina trip. Congressman Wendt, who single-handedly blocked our tax credit to expand child care for working families, is attempting to bind the feet of your entire gender with his paleo-chauvinist stay-at-home tax cut.
p274
sg8
g9
sg10
VJOSH
p275
sg12
g9
sa(dp276
g6
VI'm going to read the bill and supporting materials now.
p277
sg8
g13
sg10
VC.J.
p278
sg12
g9
sa(dp279
g6
VWhat if you just kick up a cloud of dust about the revenue impact and mention he's the Darth Vader of child care?
p280
sg8
g29
sg10
VJOSH
p281
sg12
g9
sa(dp282
g6
VWhat if I take a minute to read the bill and supporting materials?
p283
sg8
g13
sg10
VC.J.
p284
sg12
g9
sa(dp285
g6
VWe're already rolling over on the tax side. The indexing provision...
p286
sg8
g29
sg10
VJOSH
p287
sg12
g9
sa(dp288
g6
VCan I please take a moment to read the bill and supporting materials?
p289
sg8
g13
sg10
VC.J.
p290
sg12
g9
sa(dp291
g6
VOkay, what?
p292
sg8
g9
sg10
VC.J.
p293
sg12
g13
sa(dp294
g6
VWe think you should go on The Taylor Reid Show.
p295
sg8
g9
sg10
VTOBY
p296
sg12
g9
sa(dp297
g6
VThe chicken thing has legs.
p298
sg8
g9
sg10
VJOSH
p299
sg12
g9
sa(dp300
g6
VWith those pointy little toes.
p301
sg8
g9
sg10
VTOBY
p302
sg12
g9
sa(dp303
g6
VNo.
p304
sg8
g9
sg10
VC.J.
p305
sg12
g9
sa(dp306
g6
VThe Washington Wire has Tyson Foods offering you a lifetime supply of wings and thighs if you'll do a print ad for whole fryers.
p307
sg8
g13
sg10
VJOSH
p308
sg12
g13
sa(dp309
g6
VAnd the Reliable Source notes that the Oval Room...
p310
sg8
g9
sg10
VTOBY
p311
sg12
g29
sa(dp312
g6
VYour favorite restaurant.
p313
sg8
g13
sg10
VJOSH
p314
sg12
g9
sa(dp315
g6
V... has a new menu item - an ungodly combination of chicken, avocado, and poached egg called "The C.J. Cregg Egg."
p316
sg8
g29
sg10
VTOBY
p317
sg12
g9
sa(dp318
g6
VYou're enjoying this, aren't you?
p319
sg8
g13
sg10
VC.J.
p320
sg12
g9
sa(dp321
g6
VGo on the show, call his bluff, show you have a sense of humor.
p322
sg8
g9
sg10
VJOSH
p323
sg12
g9
sa(dp324
g6
VYou could wear a chicken suit.
p325
sg8
g29
sg10
VTOBY
p326
sg12
g29
sa(dp327
g6
VTake him even semi-seriously, he'll lay off and find another cluck to pluck.
p328
sg8
g9
sg10
VJOSH
p329
sg12
g9
sa(dp330
g6
VA chicken suit?
p331
sg8
g9
sg10
VC.J.
p332
sg12
g9
sa(dp333
g6
VJosh, Leo's looking for you.
p334
sg8
g9
sg10
VWILL
p335
sg12
g9
sa(dp336
g6
VHey you should read the Wendt Amendment.
p337
sg8
g9
sg10
VWILL
p338
sg12
g9
sa(dp339
g6
VI'm trying to read it now.
p340
sg8
g9
sg10
VC.J.
p341
sg12
g9
sa(dp342
g6
VIt's pretty narrowly drawn, actually. Not the worst thing. She see it last night?
p343
sg8
g13
sg10
VWILL
p344
sg12
g9
sa(dp345
g6
VSee what?
p346
sg8
g9
sg10
VC.J.
p347
sg12
g13
sa(dp348
g6
VShe doesn't know?
p349
sg8
g9
sg10
VWILL
p350
sg12
g29
sa(dp351
g6
VKnow what?
p352
sg8
g9
sg10
VC.J.
p353
sg12
g9
sa(dp354
g6
VTaylor Reid was talking about your spin on the decline of manufacturing jobs and he said...
p355
sg8
g29
sg10
VJOSH
p356
sg12
g9
sa(dp357
g6
V"The tall lady's back to telling tall tales."
p358
sg8
g9
sg10
VTOBY
p359
sg12
g9
sa(dp360
g6
VThe tall lady?
p361
sg8
g9
sg10
VC.J.
p362
sg12
g9
sa(dp363
g6
VCarol, call the Taylor Reid Show, book me on the next available slot. [to Toby] I'm gonna reach down and rip off his puny little face.
p364
sg8
g9
sg10
VC.J.
p365
sg12
g9
sa(dp366
g6
VYou're already here.
p367
sg8
g9
sg10
VMARGARET
p368
sg12
g9
sa(dp369
g6
VI came in straight from Dulles.
p370
sg8
g9
sg10
VLEO
p371
sg12
g9
sa(dp372
g6
VAt 2:00 in the morning?
p373
sg8
g9
sg10
VMARGARET
p374
sg12
g9
sa(dp375
g6
VI need a clean shirt. What happened to the one I brought in the other day?
p376
sg8
g13
sg10
VLEO
p377
sg12
g9
sa(dp378
g6
VIt had a hole in the sleeve, so I took it home.
p379
sg8
g9
sg10
VMARGARET
p380
sg12
g9
sa(dp381
g6
VTo do what with it?
p382
sg8
g9
sg10
VLEO
p383
sg12
g9
sa(dp384
g6
VSew up the hole.
p385
sg8
g9
sg10
VMARGARET
p386
sg12
g9
sa(dp387
g6
VNow you're mending my clothes?
p388
sg8
g13
sg10
VLEO
p389
sg12
g13
sa(dp390
g6
VYou want some breakfast?
p391
sg8
g13
sg10
VMARGARET
p392
sg12
g13
sa(dp393
g6
VI want a clean shirt.
p394
sg8
g13
sg10
VLEO
p395
sg12
g9
sa(dp396
g6
VYou looking for me?
p397
sg8
g9
sg10
VJOSH
p398
sg12
g9
sa(dp399
g6
VYou still on good terms with Hunt?
p400
sg8
g13
sg10
VLEO
p401
sg12
g9
sa(dp402
g6
VI don't think the Senator's going to invite me down to his ranch to lasso a bull any time soon, but he returns my calls.
p403
sg8
g9
sg10
VJOSH
p404
sg12
g9
sa(dp405
g6
VThe LC-104 Ramses project.
p406
sg8
g9
sg10
VLEO
p407
sg12
g9
sa(dp408
g6
VThey need you in the Sit Room.
p409
sg8
g9
sg10
VMARGARET
p410
sg12
g9
sa(dp411
g6
VThe chopper Mueller-Wright's building for the Army?
p412
sg8
g13
sg10
VJOSH
p413
sg12
g9
sa(dp414
g6
VHunt's bottling it up in committee.
p415
sg8
g9
sg10
VLEO
p416
sg12
g9
sa(dp417
g6
VProbably because it's being built in 16 different states, none of them named Arizona.
p418
sg8
g9
sg10
VJOSH
p419
sg12
g9
sa(dp420
g6
VFind out what's going on with the Ramses thing, will you?
p421
sg8
g9
sg10
VLEO
p422
sg12
g9
sa(dp423
g6
VWendt has stuck on another one of his "moving America back to the Mamie Eisenhower Era" amendments.
p424
sg8
g9
sg10
VJOSH
p425
sg12
g9
sa(dp426
g6
VWhat is it this time?
p427
sg8
g9
sg10
VLEO
p428
sg12
g9
sa(dp429
g6
VTax cuts for stay-at-home moms.
p430
sg8
g9
sg10
VJOSH
p431
sg12
g13
sa(dp432
g6
VThe President's headed down to his district on Saturday.
p433
sg8
g9
sg10
VLEO
p434
sg12
g9
sa(dp435
g6
VYeah, I don't think the timing's accidental.
p436
sg8
g29
sg10
VJOSH
p437
sg12
g29
sa(dp438
g6
VOkay, pull together a briefing, and I'll get you a few minutes with the President.
p439
sg8
g13
sg10
VLEO
p440
sg12
g13
sa(dp441
g6
VDonna! Can you see if Senator Hunt's office can find me a couple minutes this morning? Is Jimmy Olsen with us today?
p442
sg8
g9
sg10
VJOSH
p443
sg12
g9
sa(dp444
g6
VRyan!
p445
sg8
g9
sg10
VDONNA
p446
sg12
g9
sa(dp447
g6
VYou know who Sam Wendt is?
p448
sg8
g9
sg10
VJOSH
p449
sg12
g9
sa(dp450
g6
VDemocrat from the Oregon Fifth?
p451
sg8
g9
sg10
VRYAN
p452
sg12
g9
sa(dp453
g6
VRepublican from the South Carolina Second, but you were close. He introduced an amendment to use the tax code to subsidize stay-at-home moms.
p454
sg8
g29
sg10
VJOSH
p455
sg12
g9
sa(dp456
g6
VThat's interesting.
p457
sg8
g13
sg10
VRYAN
p458
sg12
g13
sa(dp459
g6
VNo, not really. He kills child care proposals, and tries to get us to print the Ten Commandments on the back of the two-dollar bill.
p460
sg8
g13
sg10
VJOSH
p461
sg12
g9
sa(dp462
g6
VBe nice to have them wallet-sized.
p463
sg8
g9
sg10
VRYAN
p464
sg12
g9
sa(dp465
g6
VRead the different drafts of the amendment. Show how many more women would have benefited from the President's child care tax credit than from Wendt's stay-at-home proposal. Treasury, JTC scoring, and a year-by-year impact on the deficit for a Presidential briefing tomorrow.
p466
sg8
g9
sg10
VJOSH
p467
sg12
g9
sa(dp468
g6
VI'm going to brief the President?
p469
sg8
g9
sg10
VRYAN
p470
sg12
g9
sa(dp471
g6
VNo, I'm going to brief the President and take credit for all your hard work, but you get to come.
p472
sg8
g13
sg10
VJOSH
p473
sg12
g9
sa(dp474
g6
VGreat. Sure, tomorrow. Uh, JTC is...?
p475
sg8
g9
sg10
VRYAN
p476
sg12
g13
sa(dp477
g6
VJoint Tax Committee.
p478
sg8
g9
sg10
VDONNA
p479
sg12
g9
sa(dp480
g6
VWhat? It's scut work.
p481
sg8
g9
sg10
VJOSH
p482
sg12
g9
sa(dp483
g6
VPresidential scut work.
p484
sg8
g9
sg10
VDONNA
p485
sg12
g13
sa(dp486
g6
VYou want to spend the day reading mind-numbing spreadsheets?
p487
sg8
g13
sg10
VJOSH
p488
sg12
g9
sa(dp489
g6
VMind-numbing Presidential spreadsheets.
p490
sg8
g9
sg10
VDONNA
p491
sg12
g9
sa(dp492
g6
VWell, channel your Presidential disappointment into getting me five minutes with Matt Hunt, okay? Please?
p493
sg8
g29
sg10
VJOSH
p494
sg12
g9
sa(dp495
g6
VThere's no activity of any kind in the crew's location. No vehicles, no movement or troops or equipment. The Hook 112 receivers indicate our people are in this densely wooded area here. There is, however, extraordinary activity out to sea in the general vicinity of the crash site.
p496
sg8
g13
sg10
VALEXANDER
p497
sg12
g9
sa(dp498
g6
VHow long before they figure out our guys made it to shore?
p499
sg8
g9
sg10
VLEO
p500
sg12
g29
sa(dp501
g6
VIt's hard to say. Right now, it looks as if they're assuming no one got out.
p502
sg8
g9
sg10
VALEXANDER
p503
sg12
g9
sa(dp504
g6
VWhat's the plan, Admiral?
p505
sg8
g9
sg10
VBARTLET
p506
sg12
g9
sa(dp507
g6
VA four-man SEAL team will HALO drop over the crash site under cover of darkness.
p508
sg8
g29
sg10
VMCGILL
p509
sg12
g9
sa(dp510
g6
VHALO drop?
p511
sg8
g9
sg10
VBARTLET
p512
sg12
g9
sa(dp513
g6
VThey jump out at 40,000 feet, deploy their chutes at 2,000 feet.
p514
sg8
g13
sg10
VLEO
p515
sg12
g9
sa(dp516
g6
VThey'll gather the crew, get them into a Zodiac, and head back out to seas 12 miles due east where they'll be met by a Super Sea Stallion rescue chopper. The Sea Stallion will then fly them east 200 miles to the USS Cowpens.
p517
sg8
g13
sg10
VMCGILL
p518
sg12
g9
sa(dp519
g6
VSo, your SEAL team, they'll be armed?
p520
sg8
g9
sg10
VBARROW
p521
sg12
g9
sa(dp522
g6
VYes, sir.
p523
sg8
g13
sg10
VMCGILL
p524
sg12
g13
sa(dp525
g6
VAnd if they run into resistance from the North Koreans, they'll start shooting?
p526
sg8
g29
sg10
VBARROW
p527
sg12
g9
sa(dp528
g6
VYou want them to drop in unarmed?
p529
sg8
g9
sg10
VALEXANDER
p530
sg12
g9
sa(dp531
g6
VMr. President, if the North Koreans discover armed American soldiers on Korean soil...
p532
sg8
g29
sg10
VBARROW
p533
sg12
g9
sa(dp534
g6
VWe go get 'em.
p535
sg8
g9
sg10
VBARTLET
p536
sg12
g9
sa(dp537
g6
VMr. President, there are other...
p538
sg8
g9
sg10
VBARROW
p539
sg12
g9
sa(dp540
g6
VWe don't leave our people in harm's way, Mr. Barrow. We bring 'em home.
p541
sg8
g29
sg10
VLEO
p542
sg12
g9
sa(dp543
g6
VAdmiral, go get our boys.
p544
sg8
g9
sg10
VBARTLET
p545
sg12
g9
sa(dp546
g6
VThank you, Mr. President.
p547
sg8
g9
sg10
VALL
p548
sg12
g9
sa(dp549
g6
VThe senator will see you now Mr. Lyman.
p550
sg8
g9
sg10
VASSISTANT
p551
sg12
g9
sa(dp552
g6
VThank you for seeing me, Senator.
p553
sg8
g9
sg10
VJOSH
p554
sg12
g13
sa(dp555
g6
VAs the years go by, I want my sports with a little more leverage, like, say, a racquet.
p556
sg8
g13
sg10
VJOSH
p557
sg12
g9
sa(dp558
g6
VWell, I'm down at the club most mornings, 6:00 am sharp.
p559
sg8
g9
sg10
VHUNT
p560
sg12
g9
sa(dp561
g6
VI don't know if my ego could take another shellacking like last time.
p562
sg8
g9
sg10
VJOSH
p563
sg12
g9
sa(dp564
g6
VSo, what can I do for you?
p565
sg8
g9
sg10
VHUNT
p566
sg12
g9
sa(dp567
g6
VThe LC-104 Ramses Transport Chopper program. The DoD already approved the purchase.
p568
sg8
g9
sg10
VJOSH
p569
sg12
g9
sa(dp570
g6
VAt six billion. Now Mueller-Wright says it's going to cost ten.
p571
sg8
g9
sg10
VHUNT
p572
sg12
g9
sa(dp573
g6
VThe Army changed the order.
p574
sg8
g9
sg10
VJOSH
p575
sg12
g9
sa(dp576
g6
VThe upgrades are all subcontractor parts, and the reactive armor was a requirement in the initial RFP.
p577
sg8
g13
sg10
VHUNT
p578
sg12
g9
sa(dp579
g6
VWell, the Army needs them, and they need them sooner, rather than later.
p580
sg8
g9
sg10
VJOSH
p581
sg12
g9
sa(dp582
g6
VYou going to lecture me on military preparedness, Josh?
p583
sg8
g9
sg10
VHUNT
p584
sg12
g9
sa(dp585
g6
VWhat branch of the service did you serve in? I've forgotten. Why are you here? Kenny O'Neal pick up the phone and call Leo?
p586
sg8
g29
sg10
VHUNT
p587
sg12
g9
sa(dp588
g6
VWhat's your real concern here, Senator? That none of the Ramses project subcontractors are from Arizona?
p589
sg8
g13
sg10
VJOSH
p590
sg12
g9
sa(dp591
g6
VYou tell Leo that the Armed Services Committee is going to exercise its oversight prerogative. Mr. O'Neal is just going to have to wait.
p592
sg8
g29
sg10
VHUNT
p593
sg12
g9
sa(dp594
g6
VI'm going to carve him into McNuggets.
p595
sg8
g9
sg10
VC.J.
p596
sg12
g9
sa(dp597
g6
VThey want you there by 11:45 for the noon segment. You're on the air for seven minutes, back by one, just in time to say hello to Ben.
p598
sg8
g9
sg10
VCAROL
p599
sg12
g9
sa(dp600
g6
VAsk Media Affairs to do a background on Reid's questioning style and a list of recurring topics.
p601
sg8
g9
sg10
VC.J.
p602
sg12
g9
sa(dp603
g6
VInterior's transferring Ben to DC. He's looking for advice on a place to live.
p604
sg8
g9
sg10
VCAROL
p605
sg12
g9
sa(dp606
g6
VExcuse me, I hope I'm not interrupting.
p607
sg8
g13
sg10
VABBEY
p608
sg12
g29
sa(dp609
g6
VOh, no ma'am. Come on in. Carol's just trying to get me excited about an old beau.
p610
sg8
g13
sg10
VC.J.
p611
sg12
g9
sa(dp612
g6
VHe's a Ranger.
p613
sg8
g9
sg10
VCAROL
p614
sg12
g9
sa(dp615
g6
VDashing.
p616
sg8
g9
sg10
VABBEY
p617
sg12
g9
sa(dp618
g6
VWorks with at-risk kids, too.
p619
sg8
g9
sg10
VCAROL
p620
sg12
g13
sa(dp621
g6
VSold.
p622
sg8
g9
sg10
VABBEY
p623
sg12
g9
sa(dp624
g6
VHow are you, Mrs. Bartlet?
p625
sg8
g9
sg10
VC.J.
p626
sg12
g13
sa(dp627
g6
VFine. I just wanted to give you a heads-up, in case anyone mentions it a press briefing. I'm going to start volunteering.
p628
sg8
g29
sg10
VABBEY
p629
sg12
g9
sa(dp630
g6
VVolunteering, ma'am?
p631
sg8
g9
sg10
VC.J.
p632
sg12
g13
sa(dp633
g6
VAt the Washington Free Clinic.
p634
sg8
g9
sg10
VABBEY
p635
sg12
g9
sa(dp636
g6
VYou're going to start practicing medicine again?
p637
sg8
g9
sg10
VC.J.
p638
sg12
g9
sa(dp639
g6
VI'll just be helping out a bit. I won't be doing any heart transplants.
p640
sg8
g9
sg10
VABBEY
p641
sg12
g29
sa(dp642
g6
VI'm sorry, ma'am. Are you licensed to practice medicine again?
p643
sg8
g13
sg10
VC.J.
p644
sg12
g9
sa(dp645
g6
VI voluntarily chose to stop practicing, C.J. And now I'm choosing to give a few underprivileged toddlers vaccinations. I never said I was hanging up my stethoscope for good.
p646
sg8
g9
sg10
VABBEY
p647
sg12
g9
sa(dp648
g6
VSee if Leo's available, and find out if Senator Canton's around.
p649
sg8
g9
sg10
VJOSH
p650
sg12
g9
sa(dp651
g6
VFor a call, or face-to-face?
p652
sg8
g9
sg10
VDONNA
p653
sg12
g9
sa(dp654
g6
VIt'll have to be a call. Canton's in Seattle, NAACP convention. What do you need Canton for?
p655
sg8
g13
sg10
VWILL
p656
sg12
g9
sa(dp657
g6
VHunt's threatening to bottle up the Ramses thing. I need a Democrat on Armed Services to run interference.
p658
sg8
g29
sg10
VJOSH
p659
sg12
g29
sa(dp660
g6
VI've been thinking about this Wendt amendment. Maybe we should give it another look.
p661
sg8
g9
sg10
VWILL
p662
sg12
g9
sa(dp663
g6
VTax credits for stay-at-home moms?
p664
sg8
g9
sg10
VJOSH
p665
sg12
g9
sa(dp666
g6
VMight not be such a bad thing.
p667
sg8
g29
sg10
VWILL
p668
sg12
g29
sa(dp669
g6
VFor the floor wax industry, maybe.
p670
sg8
g9
sg10
VJOSH
p671
sg12
g9
sa(dp672
g6
VWorking families are struggling. They need our help.
p673
sg8
g9
sg10
VWILL
p674
sg12
g9
sa(dp675
g6
VYou already auditioning one-liners for New Hampshire?
p676
sg8
g9
sg10
VJOSH
p677
sg12
g9
sa(dp678
g6
VI've been reading this Wendt stuff. It might not be such a bad thing.
p679
sg8
g9
sg10
VRYAN
p680
sg12
g9
sa(dp681
g6
VSee? What'd I tell you?
p682
sg8
g9
sg10
VWILL
p683
sg12
g9
sa(dp684
g6
VA-A major study Wendt commissioned of... 1,364 children showed a clear link between parents' dumping their kids in day care and an increase in hyperactivity, lack of discipline, and violent behaviour.
p685
sg8
g9
sg10
VRYAN
p686
sg12
g9
sa(dp687
g6
VCan I see that?
p688
sg8
g9
sg10
VWILL
p689
sg12
g29
sa(dp690
g6
VYou're saying Jeffrey Dahmer's only problem was day care?
p691
sg8
g29
sg10
VJOSH
p692
sg12
g9
sa(dp693
g6
VWe're always harping about the root causes of crime and violence.
p694
sg8
g29
sg10
VRYAN
p695
sg12
g9
sa(dp696
g6
VI work for the federal government. I-I've never heard of Wendt's so-called "Major federal study."
p697
sg8
g9
sg10
VJOSH
p698
sg12
g9
sa(dp699
g6
VMaybe that's because all TV news programs are produced by mothers who dump their kids in day care.
p700
sg8
g9
sg10
VWILL
p701
sg12
g9
sa(dp702
g6
V'Kay, I think we need more women in the workforce, specifically to keep you two out.
p703
sg8
g9
sg10
VJOSH
p704
sg12
g9
sa(dp705
g6
VThe MC-130 is approaching the drop zone at 48,000 feet. They'll do a rapid descend to 38,000 for the drop.
p706
sg8
g9
sg10
VMCGILL
p707
sg12
g9
sa(dp708
g6
VThat's the pilot confirming the North Korean lights below him.
p709
sg8
g13
sg10
VMCGILL
p710
sg12
g9
sa(dp711
g6
VThey're waiting for your go, sir.
p712
sg8
g13
sg10
VALEXANDER
p713
sg12
g9
sa(dp714
g6
VThat's affirmative.
p715
sg8
g13
sg10
VMCGILL
p716
sg12
g13
sa(dp717
g6
VI think it's broken. Oh! You got to go. I'll be okay.
p718
sg8
g29
sg10
VLEO
p719
sg12
g9
sa(dp720
g6
VIt's a couple miles. You can't be dragging me all over the jungle.
p721
sg8
g9
sg10
VLEO
p722
sg12
g9
sa(dp723
g6
VYou'll never make it with me along.
p724
sg8
g9
sg10
VLEO
p725
sg12
g13
sa(dp726
g6
VLeo? You got a minute?
p727
sg8
g9
sg10
VJOSH
p728
sg12
g9
sa(dp729
g6
VYeah, sure.
p730
sg8
g9
sg10
VLEO
p731
sg12
g29
sa(dp732
g6
VHunt isn't going to back off.
p733
sg8
g9
sg10
VJOSH
p734
sg12
g29
sa(dp735
g6
VWhat's his problem?
p736
sg8
g29
sg10
VLEO
p737
sg12
g9
sa(dp738
g6
VHe implied you had me inquiring on behalf of Ken O'Neal.
p739
sg8
g9
sg10
VJOSH
p740
sg12
g9
sa(dp741
g6
VI'll call Hunt.
p742
sg8
g9
sg10
VLEO
p743
sg12
g29
sa(dp744
g6
VI tracked down Dave Canton. Asked him what had the Chairman so riled up. He said Mueller-Wright circumvented DoD protocol to get the deal approved.
p745
sg8
g13
sg10
VJOSH
p746
sg12
g9
sa(dp747
g6
VThere are thousands of procurement regs over at DoD. If somebody at Muller-Wright forgot to do some due diligence, they'll sort it out.
p748
sg8
g13
sg10
VLEO
p749
sg12
g9
sa(dp750
g6
VCanton says they never did an AOA. Hunt has an investigation going. He wants subpoenas, hearings.
p751
sg8
g9
sg10
VJOSH
p752
sg12
g29
sa(dp753
g6
VOver an AOA?
p754
sg8
g9
sg10
VLEO
p755
sg12
g13
sa(dp756
g6
VCanton says Ken O'Neal is going to be the first witness subpoenaed.
p757
sg8
g9
sg10
VJOSH
p758
sg12
g9
sa(dp759
g6
VMargaret!
p760
sg8
g9
sg10
VLEO
p761
sg12
g9
sa(dp762
g6
VCall Matt Hunt's office. Tell him I'm coming over, now.
p763
sg8
g9
sg10
VLEO
p764
sg12
g9
sa(dp765
g6
VYou worked for Mueller-Wright. If they're involved in procurement irregularities, any attempt on your part to impede a Senate...
p766
sg8
g29
sg10
VJOSH
p767
sg12
g9
sa(dp768
g6
VI'm not going to "impede" anything. Thanks. I'll take it from here.
p769
sg8
g29
sg10
VLEO
p770
sg12
g9
sa(dp771
g6
VDid you know Senator Hunt in the military?
p772
sg8
g9
sg10
VJOSH
p773
sg12
g9
sa(dp774
g6
VNo. He was later. Cambodia and Laos. It was a big war.
p775
sg8
g29
sg10
VLEO
p776
sg12
g9
sa(dp777
g6
VPlease. You gotta go.
p778
sg8
g9
sg10
VLEO
p779
sg12
g9
sa(dp780
g6
VThe Army sped up the timeline because, if you haven't noticed, the threat to our guys has increased.
p781
sg8
g29
sg10
VLEO
p782
sg12
g9
sa(dp783
g6
VAre you questioning my patriotism?
p784
sg8
g9
sg10
VHUNT
p785
sg12
g29
sa(dp786
g6
VCut the crap, Matt. I've got old service ribbons gathering dust in a drawer somewhere, too.
p787
sg8
g29
sg10
VLEO
p788
sg12
g29
sa(dp789
g6
VWe had companies with lower bids.
p790
sg8
g29
sg10
VHUNT
p791
sg12
g29
sa(dp792
g6
VAirbus. Congress wasn't going to let the Pentagon award a ten billion dollar defense contract to the French.
p793
sg8
g13
sg10
VLEO
p794
sg12
g9
sa(dp795
g6
VIf Mueller-Wright couldn't make the choppers for the price, then they shouldn't have bid.
p796
sg8
g9
sg10
VHUNT
p797
sg12
g29
sa(dp798
g6
VSo, now you're going to drag Ken O'Neal in front of a network perp-walk over a weapons system we have to have that no one else can build?
p799
sg8
g13
sg10
VLEO
p800
sg12
g9
sa(dp801
g6
VIf Mr. O'Neal is subpoenaed to appear before my committee, it will be to answer legitimate questions about the manner in which Mueller-Wright secured those contracts.
p802
sg8
g9
sg10
VHUNT
p803
sg12
g9
sa(dp804
g6
VYou know damn well the charge screams louder than the verdict. If you don't like the price, tell the DoD to renegotiate it.
p805
sg8
g29
sg10
VLEO
p806
sg12
g9
sa(dp807
g6
VIt's not about price anymore, Leo. It's about process and patronage.
p808
sg8
g13
sg10
VHUNT
p809
sg12
g9
sa(dp810
g6
VYou're accusing me of using my influence to get them the contract?
p811
sg8
g29
sg10
VLEO
p812
sg12
g9
sa(dp813
g6
VWell, how many years did you work for Mueller-Wright? Was it 10? 12?
p814
sg8
g9
sg10
VHUNT
p815
sg12
g9
sa(dp816
g6
VDon't try to embarrass me and, through me, the President by humiliating an outstanding American patriot.
p817
sg8
g29
sg10
VLEO
p818
sg12
g29
sa(dp819
g6
VWell, now who's waving the flag, Leo?
p820
sg8
g9
sg10
VHUNT
p821
sg12
g9
sa(dp822
g6
VIf you're drawing up partisan subpoena lists, Matt, put my name on top.
p823
sg8
g29
sg10
VLEO
p824
sg12
g9
sa(dp825
g6
VThe Truth Meter? Am I on a game show?
p826
sg8
g9
sg10
VC.J.
p827
sg12
g9
sa(dp828
g6
VIf he points to the Truth Meter keep looking at Taylor.
p829
sg8
g9
sg10
VWOMAN
p830
sg12
g9
sa(dp831
g6
VIf he dunks me in a river and I float, does that mean I'm a witch?
p832
sg8
g29
sg10
VC.J.
p833
sg12
g29
sa(dp834
g6
VBack in ten.
p835
sg8
g9
sg10
VMAN
p836
sg12
g9
sa(dp837
g6
VGod, it's great you could join us. I'm a huge fan.
p838
sg8
g13
sg10
VREID
p839
sg12
g9
sa(dp840
g6
VFive, four, three...
p841
sg8
g9
sg10
VMAN
p842
sg12
g9
sa(dp843
g6
VAs promised, White House Press Secretary C.J. Cregg has finally agreed to join us. Ms. Cregg, global warming. That's a liberal fantasy, isn't it?
p844
sg8
g13
sg10
VREID
p845
sg12
g9
sa(dp846
g6
VNo, it's not.
p847
sg8
g9
sg10
VC.J.
p848
sg12
g29
sa(dp849
g6
VVoodoo environmentalism without any scientific...
p850
sg8
g13
sg10
VREID
p851
sg12
g13
sa(dp852
g6
VThere are about 16 Nobel laureates, 57 World Bank economists, and 17 scientific studies...
p853
sg8
g13
sg10
VC.J.
p854
sg12
g13
sa(dp855
g6
VThe World Bank is the U.N. for tree huggers. They think companies that create jobs and help big industry...
p856
sg8
g13
sg10
VREID
p857
sg12
g9
sa(dp858
g6
VThat's ridiculous.
p859
sg8
g29
sg10
VC.J.
p860
sg12
g29
sa(dp861
g6
VIf it's ridiculous you should stop funding them. Judicial nominees. The United States Senate doesn't think it's a good idea to approve of Bartlet's liberal judges that treat the Constitution...
p862
sg8
g13
sg10
VREID
p863
sg12
g9
sa(dp864
g6
V[on TV] ... like it's some kind of beer coaster.
p865
sg8
g13
sg10
VREID
p866
sg12
g13
sa(dp867
g6
V[on TV] The President has nominated dozens of highly qualified...
p868
sg8
g13
sg10
VC.J.
p869
sg12
g13
sa(dp870
g6
VHow's she doing?
p871
sg8
g9
sg10
VJOSH
p872
sg12
g9
sa(dp873
g6
VI think the Christians did a little better with the lions.
p874
sg8
g9
sg10
VTOBY
p875
sg12
g9
sa(dp876
g6
VIt's only the first round, she's still testing out her jab.
p877
sg8
g9
sg10
VJOSH
p878
sg12
g9
sa(dp879
g6
VShe better go to her hook soon.
p880
sg8
g9
sg10
VTOBY
p881
sg12
g9
sa(dp882
g6
VI just got a call from Hunt's office. Apparently, Leo has asked to be subpoenaed for the hearings on the Ramses.
p883
sg8
g9
sg10
VJOSH
p884
sg12
g9
sa(dp885
g6
VHe asked to be subpoenaed?
p886
sg8
g9
sg10
VTOBY
p887
sg12
g13
sa(dp888
g6
VHunt's asking for all e-mails within the DoD and Mueller-Wright. He thinks the bid process was rigged. He threatened to subpoena O'Neal. Apparently Leo rose to Ken's defense.
p889
sg8
g9
sg10
VJOSH
p890
sg12
g9
sa(dp891
g6
VLeo can't testify in front of the Armed Services Committee. Did you talk to him?
p892
sg8
g13
sg10
VTOBY
p893
sg12
g9
sa(dp894
g6
VI tried.
p895
sg8
g9
sg10
VJOSH
p896
sg12
g29
sa(dp897
g6
VDoes the President know?
p898
sg8
g9
sg10
VTOBY
p899
sg12
g9
sa(dp900
g6
VShould he?
p901
sg8
g9
sg10
VJOSH
p902
sg12
g9
sa(dp903
g6
VMr. President.
p904
sg8
g9
sg10
VALL
p905
sg12
g9
sa(dp906
g6
VWe get 'em back?
p907
sg8
g9
sg10
VBARTLET
p908
sg12
g9
sa(dp909
g6
VWe got single confirmation bursts from the SEAL team CSELs. They're now with the downed crew from the Hawkeye.
p910
sg8
g9
sg10
VMCGILL
p911
sg12
g9
sa(dp912
g6
VAre they in the water yet?
p913
sg8
g9
sg10
VBARTLET
p914
sg12
g9
sa(dp915
g6
VNo, sir. But they've moved closer to the beach area, stopped in these woods.
p916
sg8
g13
sg10
VALEXANDER
p917
sg12
g9
sa(dp918
g6
VWhy?
p919
sg8
g9
sg10
VBARTLET
p920
sg12
g9
sa(dp921
g6
VThe sun came up.
p922
sg8
g13
sg10
VLEO
p923
sg12
g9
sa(dp924
g6
VSo, now what? They just wait around until the sun goes back down?
p925
sg8
g9
sg10
VBARTLET
p926
sg12
g29
sa(dp927
g6
VYes, sir.
p928
sg8
g13
sg10
VMCGILL
p929
sg12
g13
sa(dp930
g6
VLet's hope no one decides to go berry picking in those woods today.
p931
sg8
g13
sg10
VBARROW
p932
sg12
g9
sa(dp933
g6
VNo. Black's great. [pause] You know, maybe it'd be better for me to wait in the lobby.
p934
sg8
g29
sg10
VBEN
p935
sg12
g9
sa(dp936
g6
VNo, please. C.J. should be back soon.
p937
sg8
g9
sg10
VCAROL
p938
sg12
g29
sa(dp939
g6
VWe met in Principles of Sociology. It was the only class at Berkeley that the Land Management kids and the Poli Sci students took together.
p940
sg8
g9
sg10
VBEN
p941
sg12
g9
sa(dp942
g6
VYou studied range management?
p943
sg8
g13
sg10
VCAROL
p944
sg12
g13
sa(dp945
g6
VYeah. Grassland, savanna, shrubland ecology. Thank God the Park Service hired me. I don't know what else my education would be good for. Selling seed catalogues, maybe. I don't know. [pause] I've got a picture of us together in college. Would you like to see it?
p946
sg8
g13
sg10
VBEN
p947
sg12
g9
sa(dp948
g6
VIt's, a, uh... there. That's right after we started living together. God, she was something in a bikini, huh? She ever tell you about getting arrested for stealing that donkey down in Cabo?
p949
sg8
g29
sg10
VBEN
p950
sg12
g9
sa(dp951
g6
VYou're not giving me a chance to answer. If you just want to bloviate, why don't I leave a cardboard cutout of myself and you can talk all you want.
p952
sg8
g13
sg10
VC.J.
p953
sg12
g9
sa(dp954
g6
VIn five, four, three...
p955
sg8
g9
sg10
VMAN
p956
sg12
g9
sa(dp957
g6
VYou're doing great.
p958
sg8
g9
sg10
VREID
p959
sg12
g9
sa(dp960
g6
VWe are back with C.J. Cregg, who says she could have sent a cardboard cutout of herself for all we're going to get out of her today. C.J., the First Lady is back to practicing medicine at a Southeast DC clinic. Isn't she breaking her promise to the American people? Didn't she say she wasn't going to practice medicine again after lying to keep her husband's condition a secret from the American voters?
p961
sg8
g13
sg10
VREID
p962
sg12
g9
sa(dp963
g6
VThe First Lady is volunteering in a free clinic in one of the poorest neighborhoods in the nation, helping to save children's lives.
p964
sg8
g13
sg10
VC.J.
p965
sg12
g9
sa(dp966
g6
VDon't you think the First Lady should try to fix health care in this country as opposed to repairing her own self-image?
p967
sg8
g29
sg10
VREID
p968
sg12
g9
sa(dp969
g6
VShe's and M.D., she can fix whatever she damn well pleases, and if it were health care, you'd try and block it.
p970
sg8
g29
sg10
VC.J.
p971
sg12
g9
sa(dp972
g6
VThat's not true, I'm for sensible health care. I'm just against socialized medicine.
p973
sg8
g13
sg10
VREID
p974
sg12
g9
sa(dp975
g6
VNo, you're not.
p976
sg8
g9
sg10
VC.J.
p977
sg12
g9
sa(dp978
g6
VLet's talk about how the First Lady lied to the American people.
p979
sg8
g13
sg10
VREID
p980
sg12
g9
sa(dp981
g6
VNo, let's talk about your paid speeches to the pharmaceutical lobby...
p982
sg8
g13
sg10
VC.J.
p983
sg12
g9
sa(dp984
g6
VIt's a free country.
p985
sg8
g9
sg10
VREID
p986
sg12
g9
sa(dp987
g6
V... and your paid speeches to the HMO and insurance lobby, and how every time health care reform comes up on your show you're miraculously against it. The First Lady is rolling up her sleeves and getting something done, and you're not because you're too busy depositing their checks, and let's talk about who's chicken.
p988
sg8
g13
sg10
VC.J.
p989
sg12
g9
sa(dp990
g6
VWell, she won that round on all cards.
p991
sg8
g9
sg10
VJOSH
p992
sg12
g9
sa(dp993
g6
VHow much longer do you think?
p994
sg8
g9
sg10
VTOBY
p995
sg12
g29
sa(dp996
g6
VI have no idea.
p997
sg8
g9
sg10
VDEBBIE
p998
sg12
g29
sa(dp999
g6
VLeo knows he can't testify on behalf of a major defense contractor. What's he thinking?
p1000
sg8
g13
sg10
VJOSH
p1001
sg12
g9
sa(dp1002
g6
VHe's not thinking.
p1003
sg8
g9
sg10
VTOBY
p1004
sg12
g29
sa(dp1005
g6
VHow long did they serve together?
p1006
sg8
g29
sg10
VJOSH
p1007
sg12
g29
sa(dp1008
g6
VLeo and O'Neal? I don't know. Awhile before they were shot down.
p1009
sg8
g29
sg10
VTOBY
p1010
sg12
g29
sa(dp1011
g6
VLeo was shot down?
p1012
sg8
g29
sg10
VCHARLIE
p1013
sg12
g29
sa(dp1014
g6
VOver Hanoi. They hid out in the jungle until they were rescued.
p1015
sg8
g9
sg10
VJOSH
p1016
sg12
g9
sa(dp1017
g6
VCan I get a ballpark on how much longer it's going to be? An era, a Tchaikovsky symphony, a brief Ice Age perhaps?
p1018
sg8
g13
sg10
VTOBY
p1019
sg12
g9
sa(dp1020
g6
VYou have some food stuck in your beard.
p1021
sg8
g13
sg10
VDEBBIE
p1022
sg12
g13
sa(dp1023
g6
VHow long was he there for?
p1024
sg8
g9
sg10
VCHARLIE
p1025
sg12
g29
sa(dp1026
g6
VThree days.
p1027
sg8
g9
sg10
VJOSH
p1028
sg12
g9
sa(dp1029
g6
VExcuse me, sir. Mr. Ziegler is being rather insistent.
p1030
sg8
g13
sg10
VDEBBIE
p1031
sg12
g9
sa(dp1032
g6
VAs he so often is. [to Thomas] Excuse me, Mr. Thomas. Give me some time to think about it.
p1033
sg8
g9
sg10
VBARTLET
p1034
sg12
g9
sa(dp1035
g6
VSo, what's so important? Someone get the words to "Yellow Submarine" wrong again?
p1036
sg8
g29
sg10
VBARTLET
p1037
sg12
g9
sa(dp1038
g6
VIt's about Leo, sir.
p1039
sg8
g13
sg10
VJOSH
p1040
sg12
g13
sa(dp1041
g6
VI left messages at his office and with his hotel in Chicago.
p1042
sg8
g9
sg10
VMARGARET
p1043
sg12
g9
sa(dp1044
g6
VWe were supposed to have lunch. Call his office back and find out what meetings he had this morning.
p1045
sg8
g9
sg10
VLEO
p1046
sg12
g9
sa(dp1047
g6
VGot a minute.
p1048
sg8
g9
sg10
VBARTLET
p1049
sg12
g9
sa(dp1050
g6
VYes, sir, of course.
p1051
sg8
g13
sg10
VLEO
p1052
sg12
g13
sa(dp1053
g6
VNo word yet on the SEAL team?
p1054
sg8
g13
sg10
VBARTLET
p1055
sg12
g9
sa(dp1056
g6
VNo, sir, not yet.
p1057
sg8
g13
sg10
VLEO
p1058
sg12
g13
sa(dp1059
g6
VToby and Josh came to see me about this Muller-Wright thing.
p1060
sg8
g9
sg10
VBARTLET
p1061
sg12
g9
sa(dp1062
g6
VI told Josh I'd handle it.
p1063
sg8
g9
sg10
VLEO
p1064
sg12
g29
sa(dp1065
g6
VBy going before the Armed Services Committee?
p1066
sg8
g9
sg10
VBARTLET
p1067
sg12
g9
sa(dp1068
g6
VHunt's trying to use my friendship with Ken O'Neal to embarrass this administration.
p1069
sg8
g9
sg10
VLEO
p1070
sg12
g9
sa(dp1071
g6
VAnd testifying in front of a Congressional committee is going to lessen that embarrassment?
p1072
sg8
g29
sg10
VBARTLET
p1073
sg12
g9
sa(dp1074
g6
VHunt's bluffing. He's upset Arizona manufacturers didn't get any of the contract.
p1075
sg8
g29
sg10
VLEO
p1076
sg12
g9
sa(dp1077
g6
VWell, you were a senior corporate officer at Mueller-Wright for over ten years, right, Leo? You can't testify.
p1078
sg8
g13
sg10
VBARTLET
p1079
sg12
g9
sa(dp1080
g6
VIt's not going to come to that.
p1081
sg8
g9
sg10
VLEO
p1082
sg12
g9
sa(dp1083
g6
VIt opens you up to being called before Congressional committees on a whim.
p1084
sg8
g29
sg10
VBARTLET
p1085
sg12
g29
sa(dp1086
g6
VI won't stand by while Hunt slanders a good man's name for political purposes.
p1087
sg8
g13
sg10
VLEO
p1088
sg12
g9
sa(dp1089
g6
VAnd Josh seems to think that...
p1090
sg8
g9
sg10
VBARTLET
p1091
sg12
g29
sa(dp1092
g6
VJosh doesn't know what the hell he's talking about.
p1093
sg8
g29
sg10
VLEO
p1094
sg12
g9
sa(dp1095
g6
VHave you asked Kenny if there's any truth...
p1096
sg8
g13
sg10
VBARTLET
p1097
sg12
g9
sa(dp1098
g6
VI've know Ken O'Neal for thirty-five years. I've worked beside him, served beside him... He hasn't done anything wrong.
p1099
sg8
g29
sg10
VLEO
p1100
sg12
g9
sa(dp1101
g6
VYou can't testify, Leo.
p1102
sg8
g9
sg10
VBARTLET
p1103
sg12
g29
sa(dp1104
g6
VI won't desert him, Mr. President.
p1105
sg8
g29
sg10
VLEO
p1106
sg12
g9
sa(dp1107
g6
VHave you asked Kenny if there's any truth to the rumors...
p1108
sg8
g13
sg10
VBARTLET
p1109
sg12
g9
sa(dp1110
g6
VI don't have to.
p1111
sg8
g9
sg10
VLEO
p1112
sg12
g29
sa(dp1113
g6
VStill nothing from General Alexander?
p1114
sg8
g9
sg10
VBARTLET
p1115
sg12
g9
sa(dp1116
g6
VNo, sir. And Josh is waiting to give you a Ways and Means briefing.
p1117
sg8
g13
sg10
VCHARLIE
p1118
sg12
g9
sa(dp1119
g6
VWhat Ways and Means briefing?
p1120
sg8
g9
sg10
VBARTLET
p1121
sg12
g13
sa(dp1122
g6
VThe South Carolina trip, sir. And then you have INS on border security and at 4:00, the National Medal of Arts recipients are coming by.
p1123
sg8
g13
sg10
VDEBBIE
p1124
sg12
g9
sa(dp1125
g6
VYou a Crosby, Stills and Nash fan?
p1126
sg8
g9
sg10
VBARTLET
p1127
sg12
g13
sa(dp1128
g6
VI've always been more of a Crazy Horse gal, Mr. President.
p1129
sg8
g9
sg10
VDEBBIE
p1130
sg12
g9
sa(dp1131
g6
VYeah, I could see how that would be.
p1132
sg8
g9
sg10
VBARTLET
p1133
sg12
g29
sa(dp1134
g6
VAlthough I did have a tempestuous affair with a rodeo cowboy during the summer of love that the Hollies played a significant role in. I'll call Josh in.
p1135
sg8
g13
sg10
VDEBBIE
p1136
sg12
g9
sa(dp1137
g6
VSo what's this problem I'm hearing about with Saturday's trip to South Carolina?
p1138
sg8
g29
sg10
VBARTLET
p1139
sg12
g9
sa(dp1140
g6
VWendt wants a tax cut for stay-at-home moms. Unless you're a poor woman, then, of course, he'd argue you have to work or else you should be denied welfare benefits. Next, he'll try to slip dishwasher subsidies into the omnibus reconciliation bill. Our caucus has been fighting for more daycare, more after-school care, transportation subsidies to make it easier for poor women to get to good jobs. They can't justify spending, uh...
p1141
sg8
g29
sg10
VJOSH
p1142
sg12
g9
sa(dp1143
g6
VJTC scores it at 11 billion over five years.
p1144
sg8
g9
sg10
VRYAN
p1145
sg12
g9
sa(dp1146
g6
V... 11 billion to keep Wilma Flinstone in dinosaur-skin coats while most women are struggling to find someone to take care of their child.
p1147
sg8
g13
sg10
VJOSH
p1148
sg12
g13
sa(dp1149
g6
VWhat's the tax benefit for the typical family?
p1150
sg8
g9
sg10
VBARTLET
p1151
sg12
g9
sa(dp1152
g6
VAbout $100 a year.
p1153
sg8
g9
sg10
VJOSH
p1154
sg12
g9
sa(dp1155
g6
VCloser to $300. But that's not the point. A typical family of four making $68,000 can still get $1200 in child care tax credits if the wife decides to work, but if she wants to stay home with the kids we don't help.
p1156
sg8
g9
sg10
VRYAN
p1157
sg12
g9
sa(dp1158
g6
VWho's this?
p1159
sg8
g9
sg10
VBARTLET
p1160
sg12
g9
sa(dp1161
g6
VRyan Pierce. He's interning in my office for a few months...
p1162
sg8
g9
sg10
VJOSH
p1163
sg12
g9
sa(dp1164
g6
VPierce?
p1165
sg8
g9
sg10
VBARTLET
p1166
sg12
g9
sa(dp1167
g6
V... maybe less.
p1168
sg8
g9
sg10
VJOSH
p1169
sg12
g29
sa(dp1170
g6
VSenator Pierce's son?
p1171
sg8
g9
sg10
VBARTLET
p1172
sg12
g9
sa(dp1173
g6
VHe's my uncle.
p1174
sg8
g9
sg10
VRYAN
p1175
sg12
g29
sa(dp1176
g6
VSo, which would you choose, Ryan, daycare tax cut of this?
p1177
sg8
g29
sg10
VBARTLET
p1178
sg12
g9
sa(dp1179
g6
VDaycare, but why should we choose for everybody else?
p1180
sg8
g9
sg10
VRYAN
p1181
sg12
g9
sa(dp1182
g6
VWhat would you suggest?
p1183
sg8
g9
sg10
VBARTLET
p1184
sg12
g9
sa(dp1185
g6
VTell Wendt you understand that he didn't want to support your child care tax credit when there's no help for stay-at-home moms, so he should find some loophole closers we can agree on to pay for both. He's on Ways and Means. That's where the money is, right?
p1186
sg8
g13
sg10
VRYAN
p1187
sg12
g9
sa(dp1188
g6
VRight. Thank you.
p1189
sg8
g9
sg10
VBARTLET
p1190
sg12
g13
sa(dp1191
g6
VThat was fun.
p1192
sg8
g13
sg10
VC.J.
p1193
sg12
g9
sa(dp1194
g6
VYou did great.
p1195
sg8
g9
sg10
VCAROL
p1196
sg12
g9
sa(dp1197
g6
VSanctimonious little guttersnipe sent a great big fat one, up and over the plate. 'Health Care Reform'? From a guy who's still on the fence about the application of leeches?
p1198
sg8
g29
sg10
VC.J.
p1199
sg12
g9
sa(dp1200
g6
VHe wants you back.
p1201
sg8
g9
sg10
VCAROL
p1202
sg12
g29
sa(dp1203
g6
V'Sensible Health Care'? He means a bedpan, a gurney, and a check from the "Your Claim's Been Rejected" lobby.
p1204
sg8
g9
sg10
VC.J.
p1205
sg12
g9
sa(dp1206
g6
VYou missed Ben. He hung around for a while but he had to get back for a meeting at Interior.
p1207
sg8
g9
sg10
VCAROL
p1208
sg12
g9
sa(dp1209
g6
VHow's he look?
p1210
sg8
g9
sg10
VC.J.
p1211
sg12
g9
sa(dp1212
g6
VIf you don't want him, can I have him?
p1213
sg8
g9
sg10
VCAROL
p1214
sg12
g9
sa(dp1215
g6
VHe still have that ruffled hair, Redford in The Way We Were kind of thing going on?
p1216
sg8
g13
sg10
VC.J.
p1217
sg12
g9
sa(dp1218
g6
VHe left you a note and a picture.
p1219
sg8
g9
sg10
VCAROL
p1220
sg12
g13
sa(dp1221
g6
VAnd I was answering it.
p1222
sg8
g9
sg10
VJOSH
p1223
sg12
g29
sa(dp1224
g6
VIncorrectly.
p1225
sg8
g9
sg10
VRYAN
p1226
sg12
g9
sa(dp1227
g6
VYou work for me, you don't correct me in front of the President.
p1228
sg8
g9
sg10
VJOSH
p1229
sg12
g9
sa(dp1230
g6
VEven when you're giving him wrong information?
p1231
sg8
g13
sg10
VRYAN
p1232
sg12
g9
sa(dp1233
g6
VYes.
p1234
sg8
g9
sg10
VJOSH
p1235
sg12
g13
sa(dp1236
g6
VReally?
p1237
sg8
g9
sg10
VRYAN
p1238
sg12
g9
sa(dp1239
g6
VXerox this. Front to back, double-sided, and...
p1240
sg8
g9
sg10
VJOSH
p1241
sg12
g9
sa(dp1242
g6
VCollated?
p1243
sg8
g9
sg10
VRYAN
p1244
sg12
g9
sa(dp1245
g6
VYeah. Go wild.
p1246
sg8
g29
sg10
VJOSH
p1247
sg12
g9
sa(dp1248
g6
VAll right.
p1249
sg8
g9
sg10
VRYAN
p1250
sg12
g9
sa(dp1251
g6
VTrouble in mind-numbing Presidential briefing paradise?
p1252
sg8
g9
sg10
VDONNA
p1253
sg12
g9
sa(dp1254
g6
VEve Harrington in penny loafers here just corrected me in front of the President.
p1255
sg8
g9
sg10
VJOSH
p1256
sg12
g9
sa(dp1257
g6
VWhere you wrong?
p1258
sg8
g29
sg10
VDONNA
p1259
sg12
g29
sa(dp1260
g6
VThat's not the point.
p1261
sg8
g9
sg10
VJOSH
p1262
sg12
g9
sa(dp1263
g6
VWhat is the point?
p1264
sg8
g9
sg10
VDONNA
p1265
sg12
g9
sa(dp1266
g6
VI'm going into my office now.
p1267
sg8
g9
sg10
VJOSH
p1268
sg12
g9
sa(dp1269
g6
VSenator Hunt's in there.
p1270
sg8
g9
sg10
VDONNA
p1271
sg12
g9
sa(dp1272
g6
VMatt Hunt's in my office.
p1273
sg8
g9
sg10
VJOSH
p1274
sg12
g9
sa(dp1275
g6
VSenator, sorry to keep you waiting.
p1276
sg8
g9
sg10
VJOSH
p1277
sg12
g13
sa(dp1278
g6
VThat's okay. You didn't know I was coming.
p1279
sg8
g9
sg10
VHUNT
p1280
sg12
g29
sa(dp1281
g6
VWhat can I do for you?
p1282
sg8
g9
sg10
VJOSH
p1283
sg12
g9
sa(dp1284
g6
VI, uh... I lost my temper yesterday with Leo McGarry. He accused me of some things, I responded in kind. I want you to keep him from publicly supporting Ken O'Neal.
p1285
sg8
g9
sg10
VHUNT
p1286
sg12
g9
sa(dp1287
g6
VThanks.
p1288
sg8
g9
sg10
VHUNT
p1289
sg12
g9
sa(dp1290
g6
VSenator, Leo doesn't take directions from me. I can't keep him from making a breakfast order.
p1291
sg8
g13
sg10
VJOSH
p1292
sg12
g29
sa(dp1293
g6
VI understand loyalty. There are men that I served with that I would do anything for and they for me. But you can't let Leo get involved in this. You know Mark Lofton?
p1294
sg8
g13
sg10
VHUNT
p1295
sg12
g9
sa(dp1296
g6
VNo.
p1297
sg8
g9
sg10
VJOSH
p1298
sg12
g9
sa(dp1299
g6
VUntil six weeks ago, he was a DoD procurement officer making $80,000 a year. He supervised the bid process on the LC-104 Ramses. Now he's a senior vice president of a major defense contractor making over $300,000 a year. Want to guess who he works for?
p1300
sg8
g13
sg10
VHUNT
p1301
sg12
g9
sa(dp1302
g6
VThe Sea Stallion's heading back to the Cowpens. He should be breaking radio silence any moment.
p1303
sg8
g13
sg10
VALEXANDER
p1304
sg12
g9
sa(dp1305
g6
VDo we know if they've encountered any resistance?
p1306
sg8
g29
sg10
VBARTLET
p1307
sg12
g9
sa(dp1308
g6
VReconnaissance didn't see anything on their last flyover.
p1309
sg8
g9
sg10
VMCGILL
p1310
sg12
g9
sa(dp1311
g6
VTigertail 1-1 to ODS, is this channel secure?
p1312
sg8
g9
sg10
VPILOT
p1313
sg12
g9
sa(dp1314
g6
VThat's ODS on the USS Cowpens.
p1315
sg8
g9
sg10
VMCGILL
p1316
sg12
g9
sa(dp1317
g6
VTigertail 1-1 en route. Not to keep you in suspense ODS, all five pieces of cargo were secured.
p1318
sg8
g9
sg10
VPILOT
p1319
sg12
g9
sa(dp1320
g6
VCommander, this is President Bartlet. What is their condition?
p1321
sg8
g9
sg10
VBARTLET
p1322
sg12
g9
sa(dp1323
g6
VCommander, any unfriendly encounters?
p1324
sg8
g29
sg10
VALEXANDER
p1325
sg12
g29
sa(dp1326
g6
VWell done, Commander. Thank you.
p1327
sg8
g9
sg10
VBARTLET
p1328
sg12
g13
sa(dp1329
g6
VGeneral, can you get me a number for Captain Zeretsky's family?
p1330
sg8
g9
sg10
VBARTLET
p1331
sg12
g9
sa(dp1332
g6
VWhere is he?
p1333
sg8
g9
sg10
VJOSH
p1334
sg12
g9
sa(dp1335
g6
VOut of the building.
p1336
sg8
g13
sg10
VMARGARET
p1337
sg12
g9
sa(dp1338
g6
VWhere out of the building?
p1339
sg8
g13
sg10
VJOSH
p1340
sg12
g9
sa(dp1341
g6
VKen O'Neal called. Leo went to meet him.
p1342
sg8
g9
sg10
VMARGARET
p1343
sg12
g9
sa(dp1344
g6
VI was worried about you.
p1345
sg8
g29
sg10
VLEO
p1346
sg12
g29
sa(dp1347
g6
VI talked to Hunt. I know a bit about what's going on. He's just trying to score cheap political points off of our friendship. Get his face on the cover of the Journal.
p1348
sg8
g13
sg10
VLEO
p1349
sg12
g9
sa(dp1350
g6
VNo. It's just Josh.
p1351
sg8
g9
sg10
VLEO
p1352
sg12
g9
sa(dp1353
g6
VI'm sorry. I got you into this mess. He wouldn't be making rain out of it if it weren't for me.
p1354
sg8
g29
sg10
VLEO
p1355
sg12
g29
sa(dp1356
g6
VI told him if he tried to drag you up in front of Armed Services he'd have to haul me up there first.
p1357
sg8
g9
sg10
VLEO
p1358
sg12
g9
sa(dp1359
g6
VAll the times you've come in under budget, all the times you've delivered projects on schedule under impossible deadlines...
p1360
sg8
g29
sg10
VLEO
p1361
sg12
g9
sa(dp1362
g6
VIf it comes to that, I can handle Hunt.
p1363
sg8
g9
sg10
VLEO
p1364
sg12
g9
sa(dp1365
g6
VWhy?
p1366
sg8
g9
sg10
VLEO
p1367
sg12
g9
sa(dp1368
g6
VWhy not do the AOA? The Army wants the choppers. What, they were going to buy them from the French?
p1369
sg8
g9
sg10
VLEO
p1370
sg12
g9
sa(dp1371
g6
VThis was about money?
p1372
sg8
g13
sg10
VLEO
p1373
sg12
g9
sa(dp1374
g6
VHow much did you make last year?
p1375
sg8
g9
sg10
VLEO
p1376
sg12
g9
sa(dp1377
g6
VHow much, Kenny?
p1378
sg8
g9
sg10
VLEO
p1379
sg12
g29
sa(dp1380
g6
VNah. How much with bonuses?
p1381
sg8
g9
sg10
VLEO
p1382
sg12
g29
sa(dp1383
g6
VYou okay?
p1384
sg8
g9
sg10
VBARTLET
p1385
sg12
g9
sa(dp1386
g6
VKenny did it.
p1387
sg8
g9
sg10
VLEO
p1388
sg12
g29
sa(dp1389
g6
VJosh told me. [pause] We got the Hawkeye crew out. All five of them. We lost one of the SEALs.
p1390
sg8
g29
sg10
VBARTLET
p1391
sg12
g9
sa(dp1392
g6
VWhat's-what's this music?
p1393
sg8
g13
sg10
VLEO
p1394
sg12
g13
sa(dp1395
g6
VCrosby, Stills and Nash came by. They're getting the National Medal for the Arts; gave me this tape. It's beautiful, huh?
p1396
sg8
g13
sg10
VBARTLET
p1397
sg12
g9
sa(dp1398
g6
VWe were out in the jungle for three days. Kenny carried me on his back; hid me under piles of leaves while he went to find us water. I was delirious, I lost a lot of blood. He could have left me; He should have left me.
p1399
sg8
g29
sg10
VLEO
p1400
sg12
g9
sa(dp1401
g6
V[speaks Latin] Corruptio optimi pessima. 'Corruption of the best is the worst.' You've done more, much more, all on your own to honor their sacrifice, Leo. They'd be as proud to know you as I am.
p1402
sg8
g13
sg10
VBARTLET
p1403
sg12
g9
sa(dp1404
g6
VLeo. Leo, come on. They're here. We're going home.
p1405
sg8
g9
sg10
VKENNY
p1406
sg12
g9
sas.