(dp0
S'season'
p1
I5
sS'episode'
p2
I2
sS'script'
p3
(lp4
(dp5
S'text'
p6
VFADE IN: EXT. - PARKING GARAGE - NIGHT       SUNDAY 11:34 PM
p7
sS'character'
p8
VTEASER
p9
sS'maxent_score'
p10
S'neutral'
p11
sa(dp12
g6
VHow was your flight down from New York?
p13
sg8
VLEO
p14
sg10
g11
sa(dp15
g6
VMercifully short.
p16
sg8
VBLAKE
p17
sg10
g11
sa(dp18
g6
VSorry about the Foggy Bottom theatrics.
p19
sg8
VLEO
p20
sg10
g11
sa(dp21
g6
VNo, it takes me back to the illicit affairs of my misspent youth.
p22
sg8
VBLAKE
p23
sg10
g11
sa(dp24
g6
VSo, where are we?
p25
sg8
VLEO
p26
sg10
g11
sa(dp27
g6
VTomorrow's New York Times CNN poll has his approval rating up to 76%.
p28
sg8
VBLAKE
p29
sg10
g11
sa(dp30
g6
VAnd in ten days?
p31
sg8
VLEO
p32
sg10
g11
sa(dp33
g6
VHis numbers are gonna crater. Not level off, crater, like a failed Mars probe. Today it's, "He lost his daughter. What a shame. We're pulling for him." and in two weeks, it'll be, "I don't want a President I have to pull for."
p34
sg8
VBLAKE
p35
sg10
g11
sa(dp36
g6
VHe did what was constitutionally appropriate. He upheld his oath.
p37
sg8
VLEO
p38
sg10
g11
sa(dp39
g6
VIf you want a constitutional debate, you should call the Dean of Columbian Law. Our guy quit when things got tough. Josh must be going nuts.
p40
sg8
VBLAKE
p41
sg10
g11
sa(dp42
g6
VHe thinks we need to put a poll in the field.
p43
sg8
VLEO
p44
sg10
g11
sa(dp45
g6
VWhite House can't be caught putting a poll in the field. [pause] Okay. I'll call you when it's done. We need photos, Bartlet on the phone with world leaders, conferring with military advisors, looking resolute.
p46
sg8
VBLAKE
p47
sg10
g11
sa(dp48
g6
VHe won't do it.
p49
sg8
VLEO
p50
sg10
g11
sa(dp51
g6
VYou've been a good friend to him, Leo, but you have other responsibilities. The people need to believe that when he comes back he'll be able to govern effectively, even if he can't secure the safety of his own family. They need to know he's willing to sacrifice his own child's life for his country.
p52
sg8
VBLAKE
p53
sg10
g11
sa(dp54
g6
VWould you be?
p55
sg8
VLEO
p56
sg10
g11
sa(dp57
g6
VI wasn't stupid enough to run for President.
p58
sg8
VBLAKE
p59
sg10
g11
sa(dp60
g6
VLeo?
p61
sg8
VBLAKE
p62
sg10
g11
sa(dp63
g6
VIf she dies, his approval ratings will go through the roof.
p64
sg8
VBLAKE
p65
sg10
g11
sa(dp66
g6
VSecretary Berryhill's here.
p67
sg8
VMARGARET
p68
sg10
g11
sa(dp69
g6
VTwo minutes, then bring in the Ambassador.
p70
sg8
VLEO
p71
sg10
g11
sa(dp72
g6
VGood morning, Lou.
p73
sg8
VLEO
p74
sg10
g11
sa(dp75
g6
VLeo.
p76
sg8
VBERRYHILL
p77
sg10
g11
sa(dp78
g6
VYou've been briefed?
p79
sg8
VLEO
p80
sg10
g11
sa(dp81
g6
VWhen does it start?
p82
sg8
VBERRYHILL
p83
sg10
g11
sa(dp84
g6
VI'm just waiting for word from Fitzwallace.
p85
sg8
VLEO
p86
sg10
g11
sa(dp87
g6
VDoesn't it remind you a little of the Japanese on December 7th?
p88
sg8
VBERRYHILL
p89
sg10
g11
sa(dp90
g6
VYou wanted us to warn them we were coming so they could shoot back at us?
p91
sg8
VLEO
p92
sg10
g11
sa(dp93
g6
VI didn't want us to do it in the first place.
p94
sg8
VBERRYHILL
p95
sg10
g11
sa(dp96
g6
VMr. Ambassador. Thank you for coming so early.
p97
sg8
VLEO
p98
sg10
g11
sa(dp99
g6
VThank you.
p100
sg8
VUSEF
p101
sg10
S'positive'
p102
sa(dp103
g6
VYou know the Secretary of State.
p104
sg8
VLEO
p105
sg10
g11
sa(dp106
g6
VYes.
p107
sg8
VUSEF
p108
sg10
g102
sa(dp109
g6
VGood morning.
p110
sg8
VBERRYHILL
p111
sg10
g11
sa(dp112
g6
VPlease.
p113
sg8
VLEO
p114
sg10
g11
sa(dp115
g6
VI want to express the Crown Princes outrage at the brutal assassination of his cousin and his sadness with the events of the last days. Please extend our sympathies to the President Bartlet and his family, and let him know that the prayers of all Qumaris are with him.
p116
sg8
VUSEF
p117
sg10
g11
sa(dp118
g6
VOh, I don't think all Qumaris.
p119
sg8
VLEO
p120
sg10
g11
sa(dp121
g6
VIf any of our citizens are involved in this tragedy, I can assure you, we will do everything within our power to bring them to justice.
p122
sg8
VUSEF
p123
sg10
g11
sa(dp124
g6
VIncluding the mullahs?
p125
sg8
VLEO
p126
sg10
g11
sa(dp127
g6
VIf the United States has sufficient evidence to implicate...
p128
sg8
VUSEF
p129
sg10
g11
sa(dp130
g6
VYour government actively supports the Bahji. In addition to stoning adulterers and banning anything written after and including the Guttenberg Bible, they preach the overthrow of our government and violence against our citizens.
p131
sg8
VLEO
p132
sg10
g11
sa(dp133
g6
VWe are an Islamic nation. Our kingdom depends on the support of the Imam...
p134
sg8
VUSEF
p135
sg10
g11
sa(dp136
g6
VYou allow Kazir training camps to operate within your borders...
p137
sg8
VLEO
p138
sg10
g11
sa(dp139
g6
VWe allow Kazir religious schools...
p140
sg8
VUSEF
p141
sg10
g11
sa(dp142
g6
V...and you support radical fundamentalism throughout the Muslim world.
p143
sg8
VLEO
p144
sg10
g11
sa(dp145
g6
VYou don't have Christian missionaries trying to convert our youth?
p146
sg8
VUSEF
p147
sg10
g11
sa(dp148
g6
VNot government sponsored missionaries with explosives, manuals, and weapons training.
p149
sg8
VLEO
p150
sg10
g11
sa(dp151
g6
VExcuse me.
p152
sg8
VMARGARET
p153
sg10
g11
sa(dp154
g6
VMr. Ambassador, you can't expect us to stand idly by while so many of your citizens are intent on murdering our citizens.
p155
sg8
VBERRYHILL
p156
sg10
g11
sa(dp157
g6
VIt is difficult to listen to you characterize the assassination of a member of our royal family as standing idly by.
p158
sg8
VUSEF
p159
sg10
g11
sa(dp160
g6
V[standing up] We're bombing the Kazir training camps in Tamir and Lani.
p161
sg8
VLEO
p162
sg10
g11
sa(dp163
g6
VWhen?
p164
sg8
VUSEF
p165
sg10
g11
sa(dp166
g6
VNow. And we're following it up with ground forces to detain and interrogate any suspected terrorists.
p167
sg8
VLEO
p168
sg10
g11
sa(dp169
g6
VThank you for informing us in such a timely manner. [leaving] We are one of the only friendly governments you have left in the region that is growing younger, poorer, and more radical every day. If you undermine us, who do you think will take our place? Please tell the President that I have a daughter, too.
p170
sg8
VUSEF
p171
sg10
g11
sa(dp172
g6
VHello...No, I'm awake....I, uh, already read the papers, showered. I'm in the office. Can you hang on for one sec?
p173
sg8
VJOSH
p174
sg10
g11
sa(dp175
g6
VHey...No really, I already went for a run.
p176
sg8
VJOSH
p177
sg10
g11
sa(dp178
g6
V[into phone] Nice track suit.
p179
sg8
VAMY
p180
sg10
g11
sa(dp181
g6
VCould have said I woke you. I wouldn't have thought less of you.
p182
sg8
VAMY
p183
sg10
g11
sa(dp184
g6
VSleeping is...I don't know, lacks a certain masculine...something.
p185
sg8
VJOSH
p186
sg10
g11
sa(dp187
g6
VYour virility is tied to exhaustion?
p188
sg8
VAMY
p189
sg10
g11
sa(dp190
g6
VYou want coffee?
p191
sg8
VJOSH
p192
sg10
g11
sa(dp193
g6
VYou brought coffee.
p194
sg8
VJOSH
p195
sg10
g11
sa(dp196
g6
VIt's been awhile but I don't remember fatigue improving...
p197
sg8
VAMY
p198
sg10
g11
sa(dp199
g6
VYou hungry? You want to head down to the mess, grab a...
p200
sg8
VJOSH
p201
sg10
g11
sa(dp202
g6
VBlack?
p203
sg8
VJOSH
p204
sg10
g11
sa(dp205
g6
VThat soy chai, or whatever you drink is affecting your already addled brain.
p206
sg8
VAMY
p207
sg10
g11
sa(dp208
g6
VWould you stop staring at the TV?
p209
sg8
VAMY
p210
sg10
g11
sa(dp211
g6
VAnything new on Zoey?
p212
sg8
VJOSH
p213
sg10
g11
sa(dp214
g6
VNo. [pause] How long have you been in here?
p215
sg8
VAMY
p216
sg10
g11
sa(dp217
g6
VI don't know, since about 3:00.
p218
sg8
VJOSH
p219
sg10
g11
sa(dp220
g6
VDid you see the morning papers? We have a new Speaker.
p221
sg8
VAMY
p222
sg10
g11
sa(dp223
g6
VOh, God, Haffley? He'll be passing out pelts and slabs of bison in the cloakroom.
p224
sg8
VJOSH
p225
sg10
g11
sa(dp226
g6
VRoll Call has the GOP leadership resuming its committee schedule tomorrow whether Zoey's back or not.
p227
sg8
VAMY
p228
sg10
g11
sa(dp229
g6
VAside from adding to our nation's greenhouse gas problem those committee hearings are meaningless.
p230
sg8
VJOSH
p231
sg10
g11
sa(dp232
g6
VWord on the street is, Atwood has Walken meeting with Republicans today without any Democrats.
p233
sg8
VAMY
p234
sg10
g11
sa(dp235
g6
VYeah, they were over last night, too.
p236
sg8
VJOSH
p237
sg10
g11
sa(dp238
g6
VWere any of you there? Well they weren't talking site selection for the Republican National Convention.
p239
sg8
VABBEY
p240
sg10
g11
sa(dp241
g6
VDamn it, Haffley?
p242
sg8
VJOSH
p243
sg10
g102
sa(dp244
g6
VThey're gonna start legislating again, Josh. Partial birth, federal funding for family planning clinics...
p245
sg8
VAMY
p246
sg10
g11
sa(dp247
g6
VWalken does anything by executive order, we overturn it as soon as we get back.
p248
sg8
VJOSH
p249
sg10
g11
sa(dp250
g6
VA cheering thought to the women who's lives are ruined in the meantime. Do you even know when you'll be back?
p251
sg8
VAMY
p252
sg10
g11
sa(dp253
g6
VNot exactly. Damn it.
p254
sg8
VJOSH
p255
sg10
g11
sa(dp256
g6
VIf Walken's holding partisan pep rallies in the West Wing, leak it.
p257
sg8
VAMY
p258
sg10
g11
sa(dp259
g6
VEmbarrass Atwood into backing off. [looking at her beeper] Oh, God.
p260
sg8
VAMY
p261
sg10
g11
sa(dp262
g6
VHey. You look good with a baby in your arms.
p263
sg8
VANDY
p264
sg10
g11
sa(dp265
g6
VActually, my arm's asleep.
p266
sg8
VTOBY
p267
sg10
g11
sa(dp268
g6
VI'm sorry about what I said on Saturday. It's a beautiful house.
p269
sg8
VANDY
p270
sg10
g11
sa(dp271
g6
VI want you to have it.
p272
sg8
VTOBY
p273
sg10
g11
sa(dp274
g6
VNo.
p275
sg8
VANDY
p276
sg10
g11
sa(dp277
g6
VFor our kids.
p278
sg8
VTOBY
p279
sg10
g11
sa(dp280
g6
VI can't.
p281
sg8
VANDY
p282
sg10
g11
sa(dp283
g6
VWell, I don't want it.
p284
sg8
VTOBY
p285
sg10
g11
sa(dp286
g6
VToby...
p287
sg8
VANDY
p288
sg10
g11
sa(dp289
g6
VYou can't live in a one-bedroom condo with twins.
p290
sg8
VTOBY
p291
sg10
g11
sa(dp292
g6
VI found a house on D Street. It's a three-minute walk to the Rayburn Building. [pause] Has something happened?
p293
sg8
VANDY
p294
sg10
g11
sa(dp295
g6
VAt approximately 11:10 Zulu time this morning, 12 F-14B Tomcats and 8 F-A18E Super Hornets flying off the U.S.S. George Washington in the Persian Gulf, bombed three strategic targets in Qumar.
p296
sg8
VC.J.
p297
sg10
g11
sa(dp298
g6
VAmerican intelligence confirmed that each of the sites was a Kazir terrorist training camp. President Walken ordered the attack yesterday evening and he was notified...
p299
sg8
VC.J.
p300
sg10
g11
sa(dp301
g6
VQumar is an American ally. Are they participating or assisting in this bombing campaign in any way?
p302
sg8
VMARK
p303
sg10
g11
sa(dp304
g6
VAmbassador Umar Usef was informed of the mission this morning but the Qumaris are not participating. Steve?
p305
sg8
VC.J.
p306
sg10
g11
sa(dp307
g6
VIs there concern that the bombing may force the kidnappers to kill or in any way harm Zoey Bartlet?
p308
sg8
VSTEVE
p309
sg10
g11
sa(dp310
g6
VI don't speak on there behalf so I can't say what they will or won't do. Bob?
p311
sg8
VC.J.
p312
sg10
g11
sa(dp313
g6
VHas there been any indication of resistance or retaliation from the Qumari people?
p314
sg8
VBOB
p315
sg10
g11
sa(dp316
g6
VNo, not as of this time...
p317
sg8
VC.J.
p318
sg10
g11
sa(dp319
g6
VYou see?
p320
sg8
VJOSH
p321
sg10
g11
sa(dp322
g6
VYeah, I saw. You have 132 phone messages.
p323
sg8
VDONNA
p324
sg10
S'negative'
p325
sa(dp326
g6
VHalf of them want me to switch my long-distance carrier.
p327
sg8
VJOSH
p328
sg10
g11
sa(dp329
g6
VThere'd be at least as many faxes if we had a fax.
p330
sg8
VDONNA
p331
sg10
g11
sa(dp332
g6
VWe don't have a fax?
p333
sg8
VJOSH
p334
sg10
g325
sa(dp335
g6
VThe FBI boosted it for evidence.
p336
sg8
VDONNA
p337
sg10
g11
sa(dp338
g6
VOkay, so we're not gonna return all of those. See if Leo's around, would you?
p339
sg8
VJOSH
p340
sg10
g11
sa(dp341
g6
VHi.
p342
sg8
VJOSH
p343
sg10
g11
sa(dp344
g6
VThere's that guy in my office.
p345
sg8
VJOSH
p346
sg10
g11
sa(dp347
g6
VThat's Ryan. Says he works for you. Did you forget to tell me something?
p348
sg8
VDONNA
p349
sg10
g11
sa(dp350
g6
VHe said he works for me?
p351
sg8
VJOSH
p352
sg10
g11
sa(dp353
g6
VThat's what his pass says, too.
p354
sg8
VDONNA
p355
sg10
g11
sa(dp356
g6
VHi. Josh Lyman.
p357
sg8
VJOSH
p358
sg10
g11
sa(dp359
g6
VRyan Pierce. I didn't know if I should come in, what with everything that's going on.
p360
sg8
VRYAN
p361
sg10
g11
sa(dp362
g6
VYeah, it's been pretty crazy here.
p363
sg8
VJOSH
p364
sg10
g11
sa(dp365
g6
VI figured if there was a problem, somebody would have called or...
p366
sg8
VRYAN
p367
sg10
g11
sa(dp368
g6
VRyan Pierce.
p369
sg8
VRYAN
p370
sg10
g11
sa(dp371
g6
VRight, no, I got that part. I mean, who are you?
p372
sg8
VJOSH
p373
sg10
g11
sa(dp374
g6
VLeo didn't tell you?
p375
sg8
VRYAN
p376
sg10
g102
sa(dp377
g6
VLeo McGarry. Wait here.
p378
sg8
VJOSH
p379
sg10
g325
sa(dp380
g6
VLeo's in his office. Am I being passed over?
p381
sg8
VDONNA
p382
sg10
g11
sa(dp383
g6
VWhat?
p384
sg8
VJOSH
p385
sg10
g11
sa(dp386
g6
VIf your going to bring someone in over me, you can at least have the common courtesy...
p387
sg8
VDONNA
p388
sg10
g11
sa(dp389
g6
VI don't even know who that guy is.
p390
sg8
VJOSH
p391
sg10
g11
sa(dp392
g6
VC.J., you get the felling that we don't know what the hell's going on around here anymore?
p393
sg8
VJOSH
p394
sg10
g11
sa(dp395
g6
VWhat?
p396
sg8
VC.J.
p397
sg10
g11
sa(dp398
g6
VYou hear anything about Steve Atwood trying to push a legislative agenda while Walken's in the Oval?
p399
sg8
VJOSH
p400
sg10
g11
sa(dp401
g6
VNo.
p402
sg8
VC.J.
p403
sg10
g11
sa(dp404
g6
VOkay.
p405
sg8
VJOSH
p406
sg10
g11
sa(dp407
g6
VWord is, the Republicans are coming back over today. Is Leo invited? Are you? I think they're planning to start legislating. Partial birth, school vouchers, maybe even Anwar. They've got the votes on the Hill, the only reason they haven't moved on Medicare again is because they know we'd veto.
p408
sg8
VJOSH
p409
sg10
g11
sa(dp410
g6
VDid you get any sleep last night?
p411
sg8
VTOBY
p412
sg10
g11
sa(dp413
g6
VHaffley. Can you believe it?
p414
sg8
VWILL
p415
sg10
g11
sa(dp416
g6
VWe can filibuster in the Senate.
p417
sg8
VTOBY
p418
sg10
g11
sa(dp419
g6
VNot on partial birth or tax cuts.
p420
sg8
VJOSH
p421
sg10
g11
sa(dp422
g6
VWhat are we talking about?
p423
sg8
VWILL
p424
sg10
g11
sa(dp425
g6
VGetting our asses kicked.
p426
sg8
VJOSH
p427
sg10
g11
sa(dp428
g6
VYou going to Leo? Wait for me.
p429
sg8
VTOBY
p430
sg10
g11
sa(dp431
g6
VWill you read this. I'll be right back, okay?
p432
sg8
VTOBY
p433
sg10
g11
sa(dp434
g6
VA once-in-a-lifetime chance to slam dunk your agenda and solidify your base? Plus, Walken's going to ride off into the sunset as the presumptive Republican nominee. You think Atwood wouldn't love to cinch that with partial birth?
p435
sg8
VJOSH
p436
sg10
g11
sa(dp437
g6
VThree new Supreme Court Justices? A few new weapons systems?
p438
sg8
VTOBY
p439
sg10
g102
sa(dp440
g6
VAh, I'm not being paranoid. [to Margaret] Is he in there?
p441
sg8
VJOSH
p442
sg10
g11
sa(dp443
g6
VYou got a minute?
p444
sg8
VJOSH
p445
sg10
g11
sa(dp446
g6
VNot really.
p447
sg8
VLEO
p448
sg10
g11
sa(dp449
g6
VRumor is the Republicans are going to start legislating. Pick issues where we can't sustain a filibuster and ram 'em through.
p450
sg8
VJOSH
p451
sg10
g11
sa(dp452
g6
VThey won't.
p453
sg8
VLEO
p454
sg10
g11
sa(dp455
g6
VThey're meeting secretly again to today.
p456
sg8
VJOSH
p457
sg10
g11
sa(dp458
g6
VIt wasn't secret yesterday. They were in the Roosevelt Room.
p459
sg8
VLEO
p460
sg10
g11
sa(dp461
g6
VTo plot a strategy.
p462
sg8
VJOSH
p463
sg10
g11
sa(dp464
g6
VThis isn't the grassy knoll, Josh. Walken isn't going to take the offer...
p465
sg8
VLEO
p466
sg10
g11
sa(dp467
g6
VYou've asked him?
p468
sg8
VJOSH
p469
sg10
g11
sa(dp470
g6
V[to Toby] You been drinking his Kool-Aid?
p471
sg8
VLEO
p472
sg10
g11
sa(dp473
g6
VWe need to leak it to the press. The GOP are using the cover of a national crisis to impose a radical right-wing agenda.
p474
sg8
VJOSH
p475
sg10
g11
sa(dp476
g6
VJosh...
p477
sg8
VLEO
p478
sg10
g11
sa(dp479
g6
VThe President needs to sign the second letter and take his office back. Then we nominate a strong VP. Once he's confirmed, if the President still needs to recuse himself, he can step aside.
p480
sg8
VJOSH
p481
sg10
g11
sa(dp482
g6
VGo through all this again?
p483
sg8
VLEO
p484
sg10
g325
sa(dp485
g6
VPlease, we should at least take it to the pre...
p486
sg8
VJOSH
p487
sg10
g11
sa(dp488
g6
VDamn it, Josh! The man's child is missing, probably dead. He doesn't give a damn about politics right now.
p489
sg8
VLEO
p490
sg10
g11
sa(dp491
g6
VThat's why we have to.
p492
sg8
VJOSH
p493
sg10
g11
sa(dp494
g6
VWhere are we on the Vice President?
p495
sg8
VLEO
p496
sg10
g11
sa(dp497
g6
VI'm...working...
p498
sg8
VJOSH
p499
sg10
g11
sa(dp500
g6
VI want three names on my desk by 7 am tomorrow.
p501
sg8
VLEO
p502
sg10
g11
sa(dp503
g6
VToby?
p504
sg8
VLEO
p505
sg10
g11
sa(dp506
g6
VLeo.
p507
sg8
VJOSH
p508
sg10
g11
sa(dp509
g6
VI swear to God, Josh, if you...
p510
sg8
VLEO
p511
sg10
g11
sa(dp512
g6
VNo, it's not about that. There's a guy in my office, says he works for me, knows you. Ryan...
p513
sg8
VJOSH
p514
sg10
g11
sa(dp515
g6
VRyan Pierce, right. He's your new intern.
p516
sg8
VLEO
p517
sg10
g11
sa(dp518
g6
VI thought we decided I wasn't going to have to have interns anymore?
p519
sg8
VJOSH
p520
sg10
g11
sa(dp521
g6
VNo, you decided.
p522
sg8
VLEO
p523
sg10
g102
sa(dp524
g6
VAll right. Pierce is...? Is he a Pierce Pierce?
p525
sg8
VJOSH
p526
sg10
g11
sa(dp527
g6
VYeah.
p528
sg8
VLEO
p529
sg10
g11
sa(dp530
g6
VThey're ready for you.
p531
sg8
VMARGARET
p532
sg10
g11
sa(dp533
g6
VOkay.
p534
sg8
VLEO
p535
sg10
g11
sa(dp536
g6
VI know it's kind of crazy, but Josh may not be wrong about...
p537
sg8
VTOBY
p538
sg10
g11
sa(dp539
g6
VWe did this to ourselves. Now we have to live with it.
p540
sg8
VLEO
p541
sg10
g11
sa(dp542
g6
VThey're bombing Qumar?
p543
sg8
VTOBY
p544
sg10
g11
sa(dp545
g6
VWe're bombing Qumar. How are you and Will coming on the speeches?
p546
sg8
VLEO
p547
sg10
g11
sa(dp548
g6
VWe've started working.
p549
sg8
VTOBY
p550
sg10
g11
sa(dp551
g6
VThe second one, for if Zoey doesn't...I don't want the President to know I ever asked you to...
p552
sg8
VLEO
p553
sg10
g11
sa(dp554
g6
VYeah. No, of course. Hell, if I could even figure out how to write it. How's he doing?
p555
sg8
VTOBY
p556
sg10
g11
sa(dp557
g6
VNot so good.
p558
sg8
VLEO
p559
sg10
g11
sa(dp560
g6
VHe knows if there's anything...
p561
sg8
VTOBY
p562
sg10
g11
sa(dp563
g6
VHe knows.
p564
sg8
VLEO
p565
sg10
g11
sa(dp566
g6
VWhat's that?
p567
sg8
VTOBY
p568
sg10
g11
sa(dp569
g6
VCongress.
p570
sg8
VWILL
p571
sg10
g11
sa(dp572
g6
VWhat are they doing outside?
p573
sg8
VTOBY
p574
sg10
g11
sa(dp575
g6
VPraying for Zoey.
p576
sg8
VWILL
p577
sg10
g11
sa(dp578
g6
VSo...what?
p579
sg8
VTOBY
p580
sg10
g11
sa(dp581
g6
V[reading] 'Today we affirm this solemn truth, America is the strongest force for freedom the world has ever kno...' So strong, you can trigger a constitutional crisis by dosing the First Daughter's vodka gimlet.
p582
sg8
VWILL
p583
sg10
g11
sa(dp584
g6
VGive it back.
p585
sg8
VTOBY
p586
sg10
g11
sa(dp587
g6
V'Anyone who dares invade the sanctity of America's house will be caught, prosecuted, and punished with all of America's might.' Meaning what, exactly? We're going to bomb their prison cells? You're treating Zoey like an abstraction. It needs to be a man, humbly supplicating himself...
p588
sg8
VWILL
p589
sg10
g11
sa(dp590
g6
VSupplicating? He's not going to stand in front of the cameras and rub gravel through his hair. We need a tone of defiant leadership, a return to Commander-in-Chief. What's the alternative? Admitting he was off licking his wounds, but now he's ready to come back and take the nuclear launch codes?
p591
sg8
VTOBY
p592
sg10
g11
sa(dp593
g6
VI was just trying a few...
p594
sg8
VWILL
p595
sg10
g11
sa(dp596
g6
V[reading] 'I thank the Lord that Zoey is back in her mother's arms, yet our nation still grieves.'
p597
sg8
VTOBY
p598
sg10
g11
sa(dp599
g6
VWell, it's a new and difficult time. He needs to acknowledge that we've all been visited by our own mortality.
p600
sg8
VWILL
p601
sg10
g11
sa(dp602
g6
V'I know I am not alone in think how fragile is the safety and security we all take for granted.' Your leading with failure. What kind of message is that? If we go two lines without using the phrase 'unimaginably large military arsenal', we're out of our minds.
p603
sg8
VTOBY
p604
sg10
g11
sa(dp605
g6
VYou want me to start on the second one?
p606
sg8
VWILL
p607
sg10
g11
sa(dp608
g6
VYou're already doing it.
p609
sg8
VTOBY
p610
sg10
g11
sa(dp611
g6
VThe Qumari have not issued a statement, yet. I'm sure they're trying to shape an appropriate response somewhere between a hunger strike and declaring war.
p612
sg8
VH
p613
sg10
g11
sa(dp614
g6
VGood luck.
p615
sg8
VMAN
p616
sg10
g11
sa(dp617
g6
VNo writing yet on other Arab capitals?
p618
sg8
VWALKEN
p619
sg10
g11
sa(dp620
g6
VIt's early yet.
p621
sg8
VBERRYHILL
p622
sg10
g102
sa(dp623
g6
VWhat about the UN?
p624
sg8
VLEO
p625
sg10
g11
sa(dp626
g6
VChina's onboard, but Syria is currently on the Security Counsel. They will need hand-holding. I'll go up this afternoon.
p627
sg8
VBERRYHILL
p628
sg10
g11
sa(dp629
g6
VAdmiral.
p630
sg8
VWALKEN
p631
sg10
g11
sa(dp632
g6
VC1-41s will have the entire regiment on the ground in about six hours.
p633
sg8
VFITZWALLACE
p634
sg10
g11
sa(dp635
g6
VAny casualties?
p636
sg8
VLEO
p637
sg10
g11
sa(dp638
g6
VA Marine CH-53 transport helicopter was hit by enemy RPG fire, leaving the landing zone a few minutes ago.
p639
sg8
VFITZWALLACE
p640
sg10
g11
sa(dp641
g6
VTwo pilots and four crew members are KIA.
p642
sg8
VFITZWALLACE
p643
sg10
g11
sa(dp644
g6
VAgent Casper?
p645
sg8
VWALKEN
p646
sg10
g11
sa(dp647
g6
VStill no communications from the kidnappers. We have detained and interrogated 51 members of the mosque the suspects had been attending.
p648
sg8
VCASPER
p649
sg10
g11
sa(dp650
g6
VThe Saudis have agreed to assist us in interviewing the suspects' families in Saudi Arabia.
p651
sg8
VBERRYHILL
p652
sg10
g11
sa(dp653
g6
VThey are not going to allow us to conduct the interrogations, be we can have someone present.
p654
sg8
VCASPER
p655
sg10
g11
sa(dp656
g6
VIt's better that they do it, anyway.
p657
sg8
VSTEVE
p658
sg10
g11
sa(dp659
g6
VWhy is that, Mr. Atwood?
p660
sg8
VBERRYHILL
p661
sg10
g11
sa(dp662
g6
VThey're not as squeamish.
p663
sg8
VSTEVE
p664
sg10
g11
sa(dp665
g6
VWhat about the five Bahji sleepers up in Portland?
p666
sg8
VLEO
p667
sg10
g11
sa(dp668
g6
VNo. Nothing.
p669
sg8
VCASPER
p670
sg10
g11
sa(dp671
g6
VExcuse me, Mr. President. Mr. Steinholtz is here.
p672
sg8
VSECRETARY
p673
sg10
g325
sa(dp674
g6
VThank you, everybody.
p675
sg8
VWALKEN
p676
sg10
g102
sa(dp677
g6
VDeficit projections don't look great. We're gonna need a stimulus package.
p678
sg8
VWALKEN
p679
sg10
g11
sa(dp680
g6
VOr revenue enhancements.
p681
sg8
VLEO
p682
sg10
g11
sa(dp683
g6
VSignificant tax cuts. Reduction in discretionary spending. You have something on your mind, Leo?
p684
sg8
VWALKEN
p685
sg10
g11
sa(dp686
g6
VSo, now what?
p687
sg8
VLEO
p688
sg10
g11
sa(dp689
g6
VYou have a suggestion?
p690
sg8
VWALKEN
p691
sg10
g11
sa(dp692
g6
VThis office isn't always about doing something. Most of the time it's about not doing something.
p693
sg8
VLEO
p694
sg10
g11
sa(dp695
g6
VSteve, give us a minute.
p696
sg8
VWALKEN
p697
sg10
g102
sa(dp698
g6
VWhat's your point?
p699
sg8
VWALKEN
p700
sg10
g11
sa(dp701
g6
VYou're meeting with Republican leadership again without any Democrats or Cabinet members present?
p702
sg8
VLEO
p703
sg10
g11
sa(dp704
g6
VWhat are you accusing us of?
p705
sg8
VWALKEN
p706
sg10
g11
sa(dp707
g6
VYou weren't elected to this office.
p708
sg8
VLEO
p709
sg10
g11
sa(dp710
g6
VNeither were you!
p711
sg8
VWALKEN
p712
sg10
g11
sa(dp713
g6
VI have a responsibility to President Bartlet and...
p714
sg8
VLEO
p715
sg10
g325
sa(dp716
g6
VDon't lecture me about the responsibilities of this office!
p717
sg8
VWALKEN
p718
sg10
g11
sa(dp719
g6
VThen start acting like you understand them!
p720
sg8
VLEO
p721
sg10
g11
sa(dp722
g6
VIf you're uncomfortable serving as my Chief of Staff, Leo, then feel free to recuse yourself until I'm gone.
p723
sg8
VWALKEN
p724
sg10
g11
sa(dp725
g6
VThank you, sir.
p726
sg8
VLEO
p727
sg10
g102
sa(dp728
g6
VWe started this, Leo.
p729
sg8
VBARTLET
p730
sg10
g11
sa(dp731
g6
VThis isn't about Shareef.
p732
sg8
VLEO
p733
sg10
g11
sa(dp734
g6
VYou're right; it's not. It's about our allowing situations in these countries to develop in the first place.
p735
sg8
VBARTLET
p736
sg10
g11
sa(dp737
g6
VI'm not gonna let you do this.
p738
sg8
VLEO
p739
sg10
g11
sa(dp740
g6
VWe choose the order and certainty of petty desperates over the uncertainty and chaos of developing democracies.
p741
sg8
VBARTLET
p742
sg10
g11
sa(dp743
g6
VShareef ordered the assassination of women and children. He wasn't a nationalist or a fledgling Democrat. He was a cold-blooded murderer.
p744
sg8
VLEO
p745
sg10
g11
sa(dp746
g6
VSix more American boys are dead.
p747
sg8
VBARTLET
p748
sg10
g11
sa(dp749
g6
VAnd that doesn't make you angry?
p750
sg8
VLEO
p751
sg10
g102
sa(dp752
g6
V[yelling] Of course that makes me angry! [pause] "The ultimate weakness of violence is that it is a descending spiral. Returning violence with violence only multiplies violence, add deeper darkness to a night already devoid of stars."
p753
sg8
VBARTLET
p754
sg10
g11
sa(dp755
g6
VDr. King.
p756
sg8
VLEO
p757
sg10
g11
sa(dp758
g6
VI'm part of that darkness now, Leo. When did that happen?
p759
sg8
VBARTLET
p760
sg10
g11
sa(dp761
g6
VDr. King wasn't wrong. He just didn't have your job.
p762
sg8
VLEO
p763
sg10
g11
sa(dp764
g6
VNeed any help?
p765
sg8
VRYAN
p766
sg10
g11
sa(dp767
g6
VNo.
p768
sg8
VJOSH
p769
sg10
g11
sa(dp770
g6
VHarvard, huh?
p771
sg8
VRYAN
p772
sg10
g11
sa(dp773
g6
VYeah.
p774
sg8
VJOSH
p775
sg10
g11
sa(dp776
g6
VCum laude.
p777
sg8
VRYAN
p778
sg10
g11
sa(dp779
g6
VDon't be too impressed with that. Harvard gives those out like paper place mats. Summa's the hard one. I knew one person that got summa that year. She was my girlfriend. [pause] Where'd you go?
p780
sg8
VJOSH
p781
sg10
g11
sa(dp782
g6
VGo?
p783
sg8
VRYAN
p784
sg10
g11
sa(dp785
g6
VUh, you graduated from college, right?
p786
sg8
VJOSH
p787
sg10
g11
sa(dp788
g6
VYeah...uh, Harvard.
p789
sg8
VRYAN
p790
sg10
g11
sa(dp791
g6
VJosh, the vetting files on the...
p792
sg8
VDONNA
p793
sg10
g11
sa(dp794
g6
VMy dad went there, too, my sister...my Uncle Bunky.
p795
sg8
VRYAN
p796
sg10
g11
sa(dp797
g6
VBunky?
p798
sg8
VDONNA
p799
sg10
g11
sa(dp800
g6
VYeah. Ridiculous, huh?
p801
sg8
VRYAN
p802
sg10
g11
sa(dp803
g6
VAtwood gave a quote to the Times.
p804
sg8
VC.J.
p805
sg10
g11
sa(dp806
g6
VYou're a Pierce? Pierce Bedroom in the Residence. That's you?
p807
sg8
VDONNA
p808
sg10
g11
sa(dp809
g6
VMy great-great-grandfather.
p810
sg8
VRYAN
p811
sg10
g11
sa(dp812
g6
VHas Toby seen this?
p813
sg8
VJOSH
p814
sg10
g11
sa(dp815
g6
VFound you first.
p816
sg8
VC.J.
p817
sg10
g102
sa(dp818
g6
VWhat's it say?
p819
sg8
VDONNA
p820
sg10
g11
sa(dp821
g6
V[to Josh] Hey, you know a Elliot Cabot? He would have been there around your time.
p822
sg8
VRYAN
p823
sg10
g11
sa(dp824
g6
VNo, I don't think so.
p825
sg8
VJOSH
p826
sg10
g11
sa(dp827
g6
VI knew his little sister, Perrin, pretty well in fact.
p828
sg8
VRYAN
p829
sg10
g11
sa(dp830
g6
VYeah, I'll bet you did.
p831
sg8
VJOSH
p832
sg10
g102
sa(dp833
g6
VYou know Hamilton Pew? Ham Pew?
p834
sg8
VRYAN
p835
sg10
g11
sa(dp836
g6
VI don't get it.
p837
sg8
VDONNA
p838
sg10
g11
sa(dp839
g6
VWhere's Toby?
p840
sg8
VJOSH
p841
sg10
g11
sa(dp842
g6
VHe went down to the mess.
p843
sg8
VBONNIE
p844
sg10
g11
sa(dp845
g6
VHam's squash team was eight-and-0 in '89. All Ivy three years in a row.
p846
sg8
VRYAN
p847
sg10
g11
sa(dp848
g6
VI wasn't much into squash. I was more of a Crimson guy.
p849
sg8
VJOSH
p850
sg10
g11
sa(dp851
g6
VCrimson?
p852
sg8
VDONNA
p853
sg10
g11
sa(dp854
g6
VThe Campus newspaper.
p855
sg8
VJOSH
p856
sg10
g11
sa(dp857
g6
VYeah, that figures.
p858
sg8
VRYAN
p859
sg10
g11
sa(dp860
g6
VWhat's that supposed to mean?
p861
sg8
VJOSH
p862
sg10
g11
sa(dp863
g6
VNothing. That's great.
p864
sg8
VRYAN
p865
sg10
g11
sa(dp866
g6
VAre you implying that I didn't have a social life?
p867
sg8
VJOSH
p868
sg10
g11
sa(dp869
g6
VYou said you had a girlfriend, right?
p870
sg8
VRYAN
p871
sg10
g11
sa(dp872
g6
VI had a lot of girlfriends.
p873
sg8
VJOSH
p874
sg10
g102
sa(dp875
g6
VReally?
p876
sg8
VDONNA
p877
sg10
g11
sa(dp878
g6
VYou guys always walk so fast?
p879
sg8
VRYAN
p880
sg10
g11
sa(dp881
g6
VYes.
p882
sg8
VJOSH
p883
sg10
g102
sa(dp884
g6
V[getting up] I'm okay.
p885
sg8
VRYAN
p886
sg10
g325
sa(dp887
g6
VWhere'd you spend your free time, one of those finals clubs? Oh, let me guess, the Spee? Tasty Pudding?
p888
sg8
VJOSH
p889
sg10
g11
sa(dp890
g6
VPudding is not technically a final.
p891
sg8
VRYAN
p892
sg10
g11
sa(dp893
g6
VToby. Steve Atwood in the Times. It's already on the website. [to Ryan] It's perfect; you're one of those guys who used to harass me on the way to the library on Friday nights, drunk out of your minds, wearing those ridiculous red chinos.
p894
sg8
VJOSH
p895
sg10
g11
sa(dp896
g6
VYou and me.
p897
sg8
VTOBY
p898
sg10
g11
sa(dp899
g6
VThanks.
p900
sg8
VDEBBIE
p901
sg10
g11
sa(dp902
g6
VYour son's sacrifice for his country, for the safety and security of us all, will not soon be forgotten, sir. ...I-I appreciate that, sir. You and your family will be in our prayers tonight. ...Thank you, sir.
p903
sg8
VWALKEN
p904
sg10
g11
sa(dp905
g6
VHow many more?
p906
sg8
VWALKEN
p907
sg10
g11
sa(dp908
g6
VTwo.
p909
sg8
VDEBBIE
p910
sg10
g11
sa(dp911
g6
VWhen do I get to the fun part of being President, Debbie?
p912
sg8
VWALKEN
p913
sg10
g11
sa(dp914
g6
VThe fun part, sir?
p915
sg8
VDEBBIE
p916
sg10
g11
sa(dp917
g6
VYeah. Flying around on Air Force One, getting a good tee time at the Hilton Head.
p918
sg8
VWALKEN
p919
sg10
g11
sa(dp920
g6
VI doubt you'll have much trouble getting good tee time, sir.
p921
sg8
VDEBBIE
p922
sg10
g11
sa(dp923
g6
VThis is a weird-looking room.
p924
sg8
VWALKEN
p925
sg10
g11
sa(dp926
g6
VTruman called it the crown-jewel of the federal penal system.
p927
sg8
VDEBBIE
p928
sg10
g11
sa(dp929
g6
VYou a Truman fan?
p930
sg8
VWALKEN
p931
sg10
g11
sa(dp932
g6
VYes, sir.
p933
sg8
VDEBBIE
p934
sg10
g102
sa(dp935
g6
VMe, too.
p936
sg8
VWALKEN
p937
sg10
g11
sa(dp938
g6
VI would have taken you for an Eisenhower man, sir.
p939
sg8
VDEBBIE
p940
sg10
g11
sa(dp941
g6
VIf Truman were alive today, he'd be a Republican.
p942
sg8
VWALKEN
p943
sg10
g11
sa(dp944
g6
VOh, I doubt that very much.
p945
sg8
VDEBBIE
p946
sg10
g11
sa(dp947
g6
VYou know, it's funny. This was never an ambition of mine. I never wanted to be President of the United States.
p948
sg8
VWALKEN
p949
sg10
g11
sa(dp950
g6
VNeither did Mr. Truman. [pause] I'll start another call, sir?
p951
sg8
VDEBBIE
p952
sg10
g11
sa(dp953
g6
VThank you.
p954
sg8
VWALKEN
p955
sg10
g102
sa(dp956
g6
V[reading] 'This isn't about partisan politics. It's about what's best for the country. However long this crisis lasts we're fortunate to have President Walken here to lead us." That's a great quote.
p957
sg8
VJOSH
p958
sg10
g11
sa(dp959
g6
VThanks.
p960
sg8
VSTEVE
p961
sg10
g11
sa(dp962
g6
V"However long this crisis lasts..." That's a nice...turn of phrase. Of course, a more accurate description of that period of time would be "Till President Bartlet signs the second letter and boots Walken's fat ass out of our White House."
p963
sg8
VJOSH
p964
sg10
g11
sa(dp965
g6
VWhat the hell are you going on about?
p966
sg8
VSTEVE
p967
sg10
g11
sa(dp968
g6
VYou're campaigning in the middle of a national tragedy. Zoey Bartlet's out in the field, breathing through a straw; you're test driving sound bites for the next election? Straight answer, Steve, once in your life. What are you guys up to? Closed-door meetings, planting quotes in the Times... What's next? Spontaneous speeches on the House floor questioning President Bartlet's fitness to lead?
p969
sg8
VJOSH
p970
sg10
g11
sa(dp971
g6
VYou don't get it, do you? Republicans are in awe of Bartlet. He recused himself in the only way he could. In the way envisioned by the Constitution.
p972
sg8
VSTEVE
p973
sg10
g11
sa(dp974
g6
VNone of the framers were afraid of the President's daughter being kidnapped at musket-point.
p975
sg8
VJOSH
p976
sg10
g11
sa(dp977
g6
VThe whole notion of the 25th Amendment is that the institution matters more than the man. Bartlet's decision was even more self-sacrificing because he willingly gave power to his opposition.
p978
sg8
VSTEVE
p979
sg10
g11
sa(dp980
g6
VThe institution may matter more, but it's your guy protecting it, not ours.
p981
sg8
VJOSH
p982
sg10
g11
sa(dp983
g6
VA truly self-sacrificing act usually involves some sacrifice.
p984
sg8
VSTEVE
p985
sg10
g11
sa(dp986
g6
VSo now you're goin to nail us to the cross?
p987
sg8
VJOSH
p988
sg10
g11
sa(dp989
g6
VNo. You beat the terrorists at their own game. We're not stupid, Josh. We try to use this to our advantage, it'll blow up in our faces. We'd seem callous and unfeeling, in contrast to Bartlet's extraordinary gesture of courage and patriotism. And anyone who thinks otherwise, has a particularly craven way of looking at politics.
p990
sg8
VSTEVE
p991
sg10
g11
sa(dp992
g6
VAl Jazeera has a tape of Zoey.
p993
sg8
VC.J.
p994
sg10
g11
sa(dp995
g6
VThey first broadcast it four minutes ago.
p996
sg8
VCASPER
p997
sg10
g11
sa(dp998
g6
VWhat's he saying?
p999
sg8
VWALKEN
p1000
sg10
g11
sa(dp1001
g6
VHe's claiming responsibility for the kidnapping, in the name of the Bahji and Solomon de Mahmoud.
p1002
sg8
VTRANSLATOR
p1003
sg10
g11
sa(dp1004
g6
VWho is that?
p1005
sg8
VWALKEN
p1006
sg10
g11
sa(dp1007
g6
VOne of the terrorists they want released from prison in Pakistan.
p1008
sg8
VCASPER
p1009
sg10
g11
sa(dp1010
g6
VWhat-what is that she's holding?
p1011
sg8
VWALKEN
p1012
sg10
g11
sa(dp1013
g6
VThis morning's USA Today.
p1014
sg8
VCASPER
p1015
sg10
g11
sa(dp1016
g6
VThey are again demanding the prisoners in Pakistan be released.
p1017
sg8
VTRANSLATOR
p1018
sg10
g11
sa(dp1019
g6
VIs she even conscious? She looks drugged.
p1020
sg8
VWALKEN
p1021
sg10
g11
sa(dp1022
g6
VWhy is the quality so bad?
p1023
sg8
VFITZWALLACE
p1024
sg10
g11
sa(dp1025
g6
VWe think it's a digital photograph, e-mailed to al Jazeera, probably over a modem.
p1026
sg8
VCASPER
p1027
sg10
g11
sa(dp1028
g6
VWe're sure that's her?
p1029
sg8
VWALKEN
p1030
sg10
g11
sa(dp1031
g6
VIt's her. What else is he saying?
p1032
sg8
VLEO
p1033
sg10
g11
sa(dp1034
g6
VHe is denouncing the United States, The Kingdom of Qumar, and our attack on holy Moslem lands. And he says that if every American soldier is not out of Qumar in 24 hours, they are going to shoot her.
p1035
sg8
VTRANSLATOR
p1036
sg10
g11
sa(dp1037
g6
VToby.
p1038
sg8
VBARTLET
p1039
sg10
g11
sa(dp1040
g6
VI'm sorry, I didn't mean to startle you.
p1041
sg8
VBARTLET
p1042
sg10
g11
sa(dp1043
g6
VNo, no, sir. I'm just surprised to see you down here, Mr. President.
p1044
sg8
VTOBY
p1045
sg10
g11
sa(dp1046
g6
VThey haven't revoked my pass yet. Please, sit.
p1047
sg8
VBARTLET
p1048
sg10
g11
sa(dp1049
g6
VIs there anything I can do for you, sir, anything?
p1050
sg8
VTOBY
p1051
sg10
g11
sa(dp1052
g6
VDo you have a cigarette? Abbey doesn't let me smoke in the Residence. I usually keep a pack hidden in the office.
p1053
sg8
VBARTLET
p1054
sg10
g11
sa(dp1055
g6
VI probably have a couple of cigars.
p1056
sg8
VTOBY
p1057
sg10
g11
sa(dp1058
g6
VNo, thanks. I just thought somebody on your staff...
p1059
sg8
VBARTLET
p1060
sg10
g11
sa(dp1061
g6
VWhat are you working on?
p1062
sg8
VBARTLET
p1063
sg10
g11
sa(dp1064
g6
VThe speech for when you come back.
p1065
sg8
VTOBY
p1066
sg10
g11
sa(dp1067
g6
VHow's it coming?
p1068
sg8
VBARTLET
p1069
sg10
g11
sa(dp1070
g6
VFine. Tough.
p1071
sg8
VTOBY
p1072
sg10
g11
sa(dp1073
g6
VMind if I have a look?
p1074
sg8
VBARTLET
p1075
sg10
g11
sa(dp1076
g6
VIt's not finished yet.
p1077
sg8
VTOBY
p1078
sg10
g102
sa(dp1079
g6
VThat's fine.
p1080
sg8
VBARTLET
p1081
sg10
g11
sa(dp1082
g6
VI'm still working on the ending.
p1083
sg8
VTOBY
p1084
sg10
g11
sa(dp1085
g6
VWhere's the other one?
p1086
sg8
VBARTLET
p1087
sg10
g11
sa(dp1088
g6
VWhat other one?
p1089
sg8
VTOBY
p1090
sg10
g11
sa(dp1091
g6
VThe other speech.
p1092
sg8
VBARTLET
p1093
sg10
g11
sa(dp1094
g6
VWe only wrote one.
p1095
sg8
VTOBY
p1096
sg10
g102
sa(dp1097
g6
VYou write this?
p1098
sg8
VBARTLET
p1099
sg10
g11
sa(dp1100
g6
VNo. Will.
p1101
sg8
VTOBY
p1102
sg10
g11
sa(dp1103
g6
V[reading] 'The Lord giveth and the Lord taketh away...' You mind if I take this with me?
p1104
sg8
VBARTLET
p1105
sg10
g11
sa(dp1106
g6
VMaybe I can bum a smoke off one of the agents.
p1107
sg8
VBARTLET
p1108
sg10
g11
sa(dp1109
g6
VYou take care of yourself, Mr. President.
p1110
sg8
VTOBY
p1111
sg10
g11
sa(dp1112
g6
VCan you hang on, officer?
p1113
sg8
VWOMAN
p1114
sg10
g11
sa(dp1115
g6
VExcuse me, sir. We may have something.
p1116
sg8
VWOMAN
p1117
sg10
g11
sa(dp1118
g6
VYou been home since this thing started?
p1119
sg8
VFITZWALLACE
p1120
sg10
g11
sa(dp1121
g6
VI'm all right.
p1122
sg8
VLEO
p1123
sg10
g11
sa(dp1124
g6
VYou guys any closer to naming my successor?
p1125
sg8
VFITZWALLACE
p1126
sg10
g11
sa(dp1127
g6
VYou were serious about that? I thought you were joking.
p1128
sg8
VLEO
p1129
sg10
g11
sa(dp1130
g6
VI promised Laura a month on a boat, kicking around the Caribbean for our honeymoon. 32 years later, I think her patience is starting to finally wearing a bit thin.
p1131
sg8
VFITZWALLACE
p1132
sg10
g11
sa(dp1133
g6
VYou sail?
p1134
sg8
VLEO
p1135
sg10
g11
sa(dp1136
g6
VThe last thing I captained weighed 7,000 tons. I should be able to figure out how to slip a 32-foot Catalina into a slip in Kingston.
p1137
sg8
VFITZWALLACE
p1138
sg10
g11
sa(dp1139
g6
V[into phone] Yes, sir. Mr. McGarry is here. Yes, sir. [hanging up] Mr. McGarry, sir. Admiral, the FBI ares on their way over. They think they found Zoey Bartlet.
p1140
sg8
VOFFICER
p1141
sg10
g11
sa(dp1142
g6
VA Virginia state Trooper responded to a domestic disturbance call outside of Calverton. They both got drunk. He had let her out by the side of the road in the middle of nowhere, so she called 911 on her cell. The trooper couldn't find her. She had wandered off somewhere to try to get out of the rain. Guy checked an old barn across the road from where she said she'd be. A white van...
p1143
sg8
VCASPER
p1144
sg10
g11
sa(dp1145
g6
VZoey!
p1146
sg8
VABBEY
p1147
sg10
g11
sa(dp1148
g6
VShe's got a possible clavicle fracture, some irritation because of the tear gas, and some ringing in her ears because of the flashbangs. No sign of sexual assault, but she's still a bit out of it. They're going to run a tox screen...
p1149
sg8
VAGENT
p1150
sg10
g11
sa(dp1151
g6
VThey all dead?
p1152
sg8
VLEO
p1153
sg10
g11
sa(dp1154
g6
VSharpshooters got two using the spike-mike and thermal scanners. The other one was sleeping when we came in. Tried to grab a weapon. We found her locked in a closet in the back bedroom.
p1155
sg8
VAGENT
p1156
sg10
g11
sa(dp1157
g6
VMr. President.
p1158
sg8
VBARTLET
p1159
sg10
g11
sa(dp1160
g6
VGood morning, sir.
p1161
sg8
VWALKEN
p1162
sg10
g11
sa(dp1163
g6
VYou ready to do this?
p1164
sg8
VBARTLET
p1165
sg10
g11
sa(dp1166
g6
VYes, sir.
p1167
sg8
VWALKEN
p1168
sg10
g102
sa(dp1169
g6
VYou going to run again?
p1170
sg8
VBARTLET
p1171
sg10
g11
sa(dp1172
g6
VI haven't decided.
p1173
sg8
VWALKEN
p1174
sg10
g11
sa(dp1175
g6
VIf you do, let me know. I'll come campaign for you.
p1176
sg8
VBARTLET
p1177
sg10
g11
sa(dp1178
g6
VI'm not so sure that'd be a plus in my district, Mr. President.
p1179
sg8
VWALKEN
p1180
sg10
g11
sa(dp1181
g6
VYou stick around for the press conference?
p1182
sg8
VBARTLET
p1183
sg10
g11
sa(dp1184
g6
VThank you, sir, but I think the nation's best served by seeing only one President at a time.
p1185
sg8
VWALKEN
p1186
sg10
g11
sa(dp1187
g6
VGlen?
p1188
sg8
VBARTLET
p1189
sg10
g11
sa(dp1190
g6
VThank you.
p1191
sg8
VBARTLET
p1192
sg10
g102
sa(dp1193
g6
VI have the final version of your speech for your review, Mr. President.
p1194
sg8
VTOBY
p1195
sg10
g11
sa(dp1196
g6
VI won't need it. I'm going to use the one from last night.
p1197
sg8
VBARTLET
p1198
sg10
g11
sa(dp1199
g6
VLast night, sir?
p1200
sg8
VTOBY
p1201
sg10
g11
sa(dp1202
g6
VI made a few changes, Will. I hope you won't mind.
p1203
sg8
VBARTLET
p1204
sg10
g11
sa(dp1205
g6
VNo, sir. Of course not.
p1206
sg8
VWILL
p1207
sg10
g11
sa(dp1208
g6
VThank you, everyone.
p1209
sg8
VBARTLET
p1210
sg10
g102
sa(dp1211
g6
VThank you, Mr. President.
p1212
sg8
VTOBY
p1213
sg10
g102
sa(dp1214
g6
VThank you, sir.
p1215
sg8
VJOSH
p1216
sg10
g102
sa(dp1217
g6
VHow much time do we have C.J?
p1218
sg8
VBARTLET
p1219
sg10
g11
sa(dp1220
g6
VThey're gathering now. We told the networks to be ready in ten minutes. Excuse me, sir. Will the First Lady be joining you?
p1221
sg8
VC.J.
p1222
sg10
g11
sa(dp1223
g6
VNo. She's at Walter Reed with Zoey.
p1224
sg8
VBARTLET
p1225
sg10
g11
sa(dp1226
g6
VThank you, Mr. President.
p1227
sg8
VC.J.
p1228
sg10
g102
sa(dp1229
g6
VWould you like us to get that up on the TelePrompTer for you, sir?
p1230
sg8
VLEO
p1231
sg10
g11
sa(dp1232
g6
VNo. That won't be necessary.
p1233
sg8
VBARTLET
p1234
sg10
g11
sa(dp1235
g6
VSo, who's the lucky winner?
p1236
sg8
VSTEVE
p1237
sg10
g11
sa(dp1238
g6
VThe President hasn't decided.
p1239
sg8
VJOSH
p1240
sg10
g11
sa(dp1241
g6
VYou got a favorite?
p1242
sg8
VSTEVE
p1243
sg10
g11
sa(dp1244
g6
VPresident hasn't decided.
p1245
sg8
VJOSH
p1246
sg10
g11
sa(dp1247
g6
VJosh, they're gathering.
p1248
sg8
VDONNA
p1249
sg10
g325
sa(dp1250
g6
VNice office.
p1251
sg8
VSTEVE
p1252
sg10
g11
sa(dp1253
g6
VDid we ever find those five Bahji sleepers?
p1254
sg8
VWILL
p1255
sg10
g11
sa(dp1256
g6
VNo.
p1257
sg8
VLEO
p1258
sg10
g11
sa(dp1259
g6
VMr. President.
p1260
sg8
VLEO
p1261
sg10
g11
sa(dp1262
g6
VAre they ready for us, C.J.?
p1263
sg8
VBARTLET
p1264
sg10
g11
sa(dp1265
g6
VWhere are we on the Vice President?
p1266
sg8
VBARTLET
p1267
sg10
g11
sa(dp1268
g6
VWe have several candidates, ready for your decision.
p1269
sg8
VLEO
p1270
sg10
g11
sas.