(dp0
S'season'
p1
I5
sS'episode'
p2
I20
sS'script'
p3
(lp4
(dp5
S'text'
p6
VEven the Latin line got a laugh.
p7
sS'bow_score'
p8
S'positive'
p9
sS'character'
p10
VBARTLET
p11
sS'maxent_score'
p12
S'neutral'
p13
sa(dp14
g6
VI'm still laughing.
p15
sg8
g9
sg10
VDEBBIE
p16
sg12
g9
sa(dp17
g6
VReal reason I went for a second term: couple more years between this gig, the Gridiron, and the Alfalfa Club, I'll be ready for the Def Comedy circuit.
p18
sg8
g9
sg10
VBARTLET
p19
sg12
g13
sa(dp20
g6
VI'd hold out for Vegas, sir.
p21
sg8
g9
sg10
VDEBBIE
p22
sg12
S'negative'
p23
sa(dp24
g6
VMy first Correspondent's Dinner was a nightmare. Bombed.
p25
sg8
g23
sg10
VBARTLET
p26
sg12
g13
sa(dp27
g6
VPut that behind you tonight.
p28
sg8
g13
sg10
VLEO
p29
sg12
g13
sa(dp30
g6
VI killed.
p31
sg8
g13
sg10
VBARTLET
p32
sg12
g23
sa(dp33
g6
VThey laughed till they cried. They're still crying.
p34
sg8
g23
sg10
VBARTLET
p35
sg12
g13
sa(dp36
g6
VHonestly, sir, in my case, it's the pollen count. But for an Anglo-Saxon, you were darn funny.
p37
sg8
g9
sg10
VDEBBIE
p38
sg12
g13
sa(dp39
g6
VHere we go.
p40
sg8
g13
sg10
VBARTLET
p41
sg12
g13
sa(dp42
g6
VAh, thank you, sir. I go forth to bring word of your triumph.
p43
sg8
g9
sg10
VDEBBIE
p44
sg12
g13
sa(dp45
g6
VWe still got a phone call with the Japanese Defense Minister.
p46
sg8
g13
sg10
VLEO
p47
sg12
g13
sa(dp48
g6
VLet's do it upstairs. I've got to check in with Charlie first. Agent Broder, May I?
p49
sg8
g13
sg10
VBARTLET
p50
sg12
g13
sa(dp51
g6
VThank you. Tell me something.
p52
sg8
g13
sg10
VBARTLET
p53
sg12
g13
sa(dp54
g6
VDo you even smoke?
p55
sg8
g13
sg10
VBARTLET
p56
sg12
g13
sa(dp57
g6
VGave it up a year ago.
p58
sg8
g13
sg10
VBRODER
p59
sg12
g13
sa(dp60
g6
VHa. That's what I call willpower.
p61
sg8
g13
sg10
VBARTLET
p62
sg12
g13
sa(dp63
g6
VThat's what I call enabler.
p64
sg8
g13
sg10
VLEO
p65
sg12
g13
sa(dp66
g6
VWhoa.
p67
sg8
g13
sg10
VC.J.
p68
sg12
g13
sa(dp69
g6
VHere, let me.
p70
sg8
g13
sg10
VWILL
p71
sg12
g13
sa(dp72
g6
VNo, you shouldn't. I'm the idiot who... It's an Ohio thing. If it's going to be thrown away...
p73
sg8
g23
sg10
VC.J.
p74
sg12
g13
sa(dp75
g6
VThere I was coveting one of these things all through dinner.
p76
sg8
g9
sg10
VWILL
p77
sg12
g13
sa(dp78
g6
VWhat? It's yours.
p79
sg8
g13
sg10
VC.J.
p80
sg12
g13
sa(dp81
g6
VNo, I wasn't serious.
p82
sg8
g13
sg10
VWILL
p83
sg12
g23
sa(dp84
g6
VI'm not going to even be around this weekend to enjoy them.
p85
sg8
g9
sg10
VC.J.
p86
sg12
g13
sa(dp87
g6
VHe used your other stuff.
p88
sg8
g13
sg10
VDONNA
p89
sg12
g13
sa(dp90
g6
VThat's not the point.
p91
sg8
g13
sg10
VJOSH
p92
sg12
g13
sa(dp93
g6
VIt's not?
p94
sg8
g13
sg10
VDONNA
p95
sg12
g23
sa(dp96
g6
VThe point is the line worked. I liked it, the President liked it. He had nine laugh-out-louds; he could have had ten.
p97
sg8
g13
sg10
VJOSH
p98
sg12
g13
sa(dp99
g6
VYet the world keeps turning.
p100
sg8
g13
sg10
VDONNA
p101
sg12
g9
sa(dp102
g6
VLook it up.
p103
sg8
g13
sg10
VJOSH
p104
sg12
g13
sa(dp105
g6
VThis is me looking. Here we go. Line 27... "delete per NSC. Code 2.2a indication. Commander Harper."
p106
sg8
g13
sg10
VDONNA
p107
sg12
g13
sa(dp108
g6
VNSC? The NSC killed my Panama joke?
p109
sg8
g23
sg10
VJOSH
p110
sg12
g23
sa(dp111
g6
VWas it a joke about warheads?
p112
sg8
g23
sg10
VDONNA
p113
sg12
g23
sa(dp114
g6
VCall Colonel Klink over there. I want to know what happened.
p115
sg8
g13
sg10
VJOSH
p116
sg12
g13
sa(dp117
g6
VNow? I'm calling.
p118
sg8
g13
sg10
VDONNA
p119
sg12
g13
sa(dp120
g6
V2.2a my...
p121
sg8
g13
sg10
VJOSH
p122
sg12
g23
sa(dp123
g6
VJosh Lyman's office for Commander Harper, please.
p124
sg8
g13
sg10
VDONNA
p125
sg12
g13
sa(dp126
g6
VOn your way out, give this to C.J.
p127
sg8
g13
sg10
VJOSH
p128
sg12
g13
sa(dp129
g6
VReally?
p130
sg8
g13
sg10
VDONNA
p131
sg12
g13
sa(dp132
g6
VMy daughter's having a sleepover. We're talking Nemo.
p133
sg8
g9
sg10
VBRODER
p134
sg12
g13
sa(dp135
g6
VWhatever you say, sir.
p136
sg8
g9
sg10
VLEE
p137
sg12
g13
sa(dp138
g6
VRemind me to have you pull more Saturday nights, Lee.
p139
sg8
g9
sg10
VBRODER
p140
sg12
g13
sa(dp141
g6
VSo, he pulled it off?
p142
sg8
g13
sg10
VCHARLIE
p143
sg12
g23
sa(dp144
g6
VGrading on a curve, yes.
p145
sg8
g13
sg10
VDEBBIE
p146
sg12
g9
sa(dp147
g6
VBut...
p148
sg8
g13
sg10
VCHARLIE
p149
sg12
g23
sa(dp150
g6
VYou can't tell him.
p151
sg8
g13
sg10
VDEBBIE
p152
sg12
g13
sa(dp153
g6
VOkay.
p154
sg8
g13
sg10
VCHARLIE
p155
sg12
g13
sa(dp156
g6
VSecond half, I was in the ladies' room.
p157
sg8
g13
sg10
VDEBBIE
p158
sg12
g13
sa(dp159
g6
VHay fever.
p160
sg8
g13
sg10
VCHARLIE
p161
sg12
g13
sa(dp162
g6
VAnd I was seated with the guests of, um... I thought they were the guests of Leno's. Whoever they were, they were drenched with cologne.
p163
sg8
g13
sg10
VDEBBIE
p164
sg12
g13
sa(dp165
g6
VYou should have said something.
p166
sg8
g13
sg10
VCHARLIE
p167
sg12
g13
sa(dp168
g6
VWhat? "Would you mind scrubbing your necks before we have our salad?"
p169
sg8
g13
sg10
VDEBBIE
p170
sg12
g13
sa(dp171
g6
VYou're allergic.
p172
sg8
g13
sg10
VCHARLIE
p173
sg12
g13
sa(dp174
g6
VIt's not an allergy; it is a sensitivity.
p175
sg8
g13
sg10
VDEBBIE
p176
sg12
g23
sa(dp177
g6
VKind of looks like an allergy.
p178
sg8
g13
sg10
VCHARLIE
p179
sg12
g13
sa(dp180
g6
VYou just tell me your hot water's turned back on so I won't worry about you all weekend.
p181
sg8
g23
sg10
VDEBBIE
p182
sg12
g23
sa(dp183
g6
VMy hot water is back on. It will be.
p184
sg8
g13
sg10
VCHARLIE
p185
sg12
g13
sa(dp186
g6
VCharlie, did you pull DOD's report on the Pacific Missile Shield?
p187
sg8
g9
sg10
VBARTLET
p188
sg12
g13
sa(dp189
g6
VIt's right here.
p190
sg8
g13
sg10
VCHARLIE
p191
sg12
g13
sa(dp192
g6
VThank you. Leo's coming to the Residence. We're going to take that call from the Japanese up there.
p193
sg8
g13
sg10
VBARTLET
p194
sg12
g13
sa(dp195
g6
VI'll send it up.
p196
sg8
g13
sg10
VCHARLIE
p197
sg12
g23
sa(dp198
g6
VWhat happened to your hot water?
p199
sg8
g13
sg10
VBARTLET
p200
sg12
g13
sa(dp201
g6
VNothing. It's all squared away, sir.
p202
sg8
g9
sg10
VCHARLIE
p203
sg12
g13
sa(dp204
g6
VAre you falling behind on your bills, Char?
p205
sg8
g23
sg10
VBARTLET
p206
sg12
g13
sa(dp207
g6
VI'm fine, sir. Thank you.
p208
sg8
g9
sg10
VCHARLIE
p209
sg12
g9
sa(dp210
g6
VI'm sure there's some statute that prevents me from staking you to a loan, but Debbie's a soft touch.
p211
sg8
g13
sg10
VBARTLET
p212
sg12
g13
sa(dp213
g6
VBroder.
p214
sg8
g13
sg10
VBRODER
p215
sg12
g13
sa(dp216
g6
VWe're getting a ping, on the EHM.
p217
sg8
g13
sg10
VLEE
p218
sg12
g13
sa(dp219
g6
VThe Rosey Room again?
p220
sg8
g13
sg10
VBRODER
p221
sg12
g13
sa(dp222
g6
VI'm crashing the House.
p223
sg8
g13
sg10
VLEE
p224
sg12
g13
sa(dp225
g6
VWhere's...?
p226
sg8
g13
sg10
VBRODER
p227
sg12
g13
sa(dp228
g6
VI need help securing the West Wing.
p229
sg8
g13
sg10
VLEE
p230
sg12
g13
sa(dp231
g6
VOn my way.
p232
sg8
g13
sg10
VBRODER
p233
sg12
g13
sa(dp234
g6
VMr. President, I need you to don a mask. This is a crash, put these on, please.
p235
sg8
g13
sg10
VAGENT
p236
sg12
g13
sa(dp237
g6
VIs this a drill?
p238
sg8
g13
sg10
VBARTLET
p239
sg12
g13
sa(dp240
g6
VNo, sir. The Environmental Hazard Detector's picking up and unusual pattern of airborne particles.
p241
sg8
g9
sg10
VAGENT
p242
sg12
g13
sa(dp243
g6
VWe've had a couple of false alarms for anthrax since the last patch.
p244
sg8
g23
sg10
VBARTLET
p245
sg12
g13
sa(dp246
g6
VEveryone follow me. This way, quickly.
p247
sg8
g13
sg10
VAGENT
p248
sg12
g23
sa(dp249
g6
VJust do what she says.
p250
sg8
g13
sg10
VBARTLET
p251
sg12
g23
sa(dp252
g6
VLook who it is. Nice rod.
p253
sg8
g9
sg10
VJACK
p254
sg12
g13
sa(dp255
g6
VIs she gone?
p256
sg8
g13
sg10
VDONNA
p257
sg12
g13
sa(dp258
g6
VLadies' room.
p259
sg8
g13
sg10
VJACK
p260
sg12
g13
sa(dp261
g6
VPress detail for the CODEL. Have a fabulous time.
p262
sg8
g13
sg10
VJACK
p263
sg12
g13
sa(dp264
g6
VFaxes need to clear a 90-minute window before briefing. Try and keep track of your time zones. And don't drink the water.
p265
sg8
g13
sg10
VJACK
p266
sg12
g13
sa(dp267
g6
VWas the Vice President happy with his speech tonight?
p268
sg8
g9
sg10
VTOBY
p269
sg12
g13
sa(dp270
g6
VYou know how many Bob Russell jokes were told tonight? 32. I almost lost count. I was gonna carve notches on my belt.
p271
sg8
g23
sg10
VWILL
p272
sg12
g13
sa(dp273
g6
VYou're not answering my question.
p274
sg8
g9
sg10
VTOBY
p275
sg12
g13
sa(dp276
g6
VVice President Russell's a guy who went to Hong Kong, opened a fortune cookie and found an actual fortune. What does that even mean?
p277
sg8
g9
sg10
VWILL
p278
sg12
g13
sa(dp279
g6
VThat Bob Russell's corrupt.
p280
sg8
g23
sg10
VTOBY
p281
sg12
g13
sa(dp282
g6
VOkay, I know what it means, but my point is..
p283
sg8
g13
sg10
VWILL
p284
sg12
g13
sa(dp285
g6
VCome in here.
p286
sg8
g13
sg10
VTOBY
p287
sg12
g13
sa(dp288
g6
VFirst time?
p289
sg8
g13
sg10
VCHARLIE
p290
sg12
g13
sa(dp291
g6
VYou're in for a treat.
p292
sg8
g13
sg10
VBARTLET
p293
sg12
g13
sa(dp294
g6
VNone of you came in any contact with any powdery or gooey substances?
p295
sg8
g9
sg10
VAGENT
p296
sg12
g13
sa(dp297
g6
VNope.
p298
sg8
g13
sg10
VCHARLIE
p299
sg12
g13
sa(dp300
g6
VOpen any sealed containers?
p301
sg8
g13
sg10
VAGENT
p302
sg12
g13
sa(dp303
g6
VBreath mints, in a tin on my desk.
p304
sg8
g13
sg10
VDEBBIE
p305
sg12
g13
sa(dp306
g6
VJosh Lyman?
p307
sg8
g13
sg10
VHARPER
p308
sg12
g13
sa(dp309
g6
VYes.
p310
sg8
g13
sg10
VJOSH
p311
sg12
g9
sa(dp312
g6
VYou asked to see me. Kate Harper. I'm the new Deputy NSA.
p313
sg8
g13
sg10
VHARPER
p314
sg12
g13
sa(dp315
g6
VYou're Commander Harper.
p316
sg8
g13
sg10
VJOSH
p317
sg12
g13
sa(dp318
g6
VKate's fine. Sorry I haven't gotten around to introducing myself to everyone yet...
p319
sg8
g13
sg10
VHARPER
p320
sg12
g13
sa(dp321
g6
VExcuse me. I'm just gonna grab one of these.
p322
sg8
g23
sg10
VHARPER
p323
sg12
g23
sa(dp324
g6
VYou thirsty?
p325
sg8
g23
sg10
VJOSH
p326
sg12
g13
sa(dp327
g6
VWould you like one?
p328
sg8
g13
sg10
VHARPER
p329
sg12
g13
sa(dp330
g6
VNo, thanks. I'm about to head out.
p331
sg8
g13
sg10
VJOSH
p332
sg12
g23
sa(dp333
g6
VWe're crashed, Mr. Lyman.
p334
sg8
g13
sg10
VAGENT
p335
sg12
g13
sa(dp336
g6
VNow?
p337
sg8
g13
sg10
VJOSH
p338
sg12
g13
sa(dp339
g6
VThank you, Ms. Harper.
p340
sg8
g13
sg10
VAGENT
p341
sg12
g9
sa(dp342
g6
VAlmost out the...
p343
sg8
g13
sg10
VJOSH
p344
sg12
g23
sa(dp345
g6
VI need you to stay where you are.
p346
sg8
g13
sg10
VAGENT
p347
sg12
g13
sa(dp348
g6
VYeah, yeah, yeah, yeah, yeah.
p349
sg8
g13
sg10
VJOSH
p350
sg12
g9
sa(dp351
g6
VIt's a simple question, yes or no. Was the Vice President happy with his speech tonight?
p352
sg8
g9
sg10
VTOBY
p353
sg12
g13
sa(dp354
g6
VI have no idea what you're talking about...
p355
sg8
g13
sg10
VWILL
p356
sg12
g13
sa(dp357
g6
VWe're crashed, gentlemen.
p358
sg8
g13
sg10
VBRODER
p359
sg12
g23
sa(dp360
g6
VCome again?
p361
sg8
g13
sg10
VTOBY
p362
sg12
g23
sa(dp363
g6
VThe building's on lockdown. I need you to stay put we know what's up.
p364
sg8
g9
sg10
VBRODER
p365
sg12
g13
sa(dp366
g6
VLove what you've done with the place.
p367
sg8
g13
sg10
VWILL
p368
sg12
g13
sa(dp369
g6
VWe're crashed.
p370
sg8
g13
sg10
VC.J.
p371
sg12
g23
sa(dp372
g6
VAgain?
p373
sg8
g13
sg10
VDONNA
p374
sg12
g23
sa(dp375
g6
VMs. Moss, would you mind stepping in?
p376
sg8
g13
sg10
VAGENT
p377
sg12
g13
sa(dp378
g6
VOh, sure.
p379
sg8
g13
sg10
VDONNA
p380
sg12
g23
sa(dp381
g6
VDid Jack make it out?
p382
sg8
g13
sg10
VC.J.
p383
sg12
g13
sa(dp384
g6
VJack left in a huff.
p385
sg8
g23
sg10
VDONNA
p386
sg12
g13
sa(dp387
g6
VFive more minutes, I could have been in my car.
p388
sg8
g13
sg10
VC.J.
p389
sg12
g23
sa(dp390
g6
VPress Secretary in Congressman DeSanto's office. Oh, it's you. You're going on the CODEL.
p391
sg8
g13
sg10
VC.J.
p392
sg12
g13
sa(dp393
g6
VYeah.
p394
sg8
g13
sg10
VDONNA
p395
sg12
g13
sa(dp396
g6
VYou bumped Jack. He was doing Press Detail. He's probably making a voodoo doll of you right now.
p397
sg8
g23
sg10
VC.J.
p398
sg12
g13
sa(dp399
g6
VI... I don't want to kick him off the trip. Josh didn't say anything about...
p400
sg8
g23
sg10
VDONNA
p401
sg12
g13
sa(dp402
g6
VWhite House only gets one rep. But don't worry: you're not his first voodoo doll, and they rarely work.
p403
sg8
g23
sg10
VC.J.
p404
sg12
g13
sa(dp405
g6
VThis is  for you.
p406
sg8
g13
sg10
VDONNA
p407
sg12
g13
sa(dp408
g6
VOh, sweet Lord, what have I gotten myself into.
p409
sg8
g9
sg10
VC.J.
p410
sg12
g9
sa(dp411
g6
VIs it your birthday?
p412
sg8
g9
sg10
VDONNA
p413
sg12
g13
sa(dp414
g6
VI'm going camping.
p415
sg8
g13
sg10
VC.J.
p416
sg12
g23
sa(dp417
g6
VWhat about automatic bank drafts?
p418
sg8
g13
sg10
VBARTLET
p419
sg12
g13
sa(dp420
g6
VI hear they're convenient, sir.
p421
sg8
g9
sg10
VCHARLIE
p422
sg12
g13
sa(dp423
g6
VMr. President, how are you feeling?
p424
sg8
g13
sg10
VGORDON
p425
sg12
g13
sa(dp426
g6
VDandy. I killed at the Correspondent's Dinner tonight. Have I met you before?
p427
sg8
g13
sg10
VBARTLET
p428
sg12
g13
sa(dp429
g6
VUh, no, sir. I'm Dr. Mike Gordon. I'm new to the unit, but I've been through all the drills.
p430
sg8
g9
sg10
VGORDON
p431
sg12
g13
sa(dp432
g6
VI should do my Latin-as-the-national-language run for him.
p433
sg8
g13
sg10
VBARTLET
p434
sg12
g23
sa(dp435
g6
VUh, no, sir.
p436
sg8
g9
sg10
VCHARLIE
p437
sg12
g23
sa(dp438
g6
VMeet my lucky staff: Charlie Young, Deborah Fidderer.
p439
sg8
g9
sg10
VBARTLET
p440
sg12
g13
sa(dp441
g6
VHow you doing?
p442
sg8
g13
sg10
VCHARLIE
p443
sg12
g13
sa(dp444
g6
VNice to meet you.
p445
sg8
g13
sg10
VDEBBIE
p446
sg12
g9
sa(dp447
g6
VYou need to keep on your masks.
p448
sg8
g13
sg10
VGORDON
p449
sg12
g13
sa(dp450
g6
VSorry, last time, they let us...
p451
sg8
g13
sg10
VCHARLIE
p452
sg12
g13
sa(dp453
g6
VUntil the agents confirm the code, we're on standard respiratory precautions.
p454
sg8
g13
sg10
VGORDON
p455
sg12
g13
sa(dp456
g6
VYou've been here before?
p457
sg8
g13
sg10
VDEBBIE
p458
sg12
g13
sa(dp459
g6
VOnce. They usually turn us around at the bottom of the stairs.
p460
sg8
g23
sg10
VCHARLIE
p461
sg12
g13
sa(dp462
g6
VMr. President, I'm going to take your blood pressure.
p463
sg8
g23
sg10
VGORDON
p464
sg12
g13
sa(dp465
g6
VDon't be shy. I'm used to being manhandled by the medical unit. Are you Army?
p466
sg8
g9
sg10
VBARTLET
p467
sg12
g13
sa(dp468
g6
VYes, sir. Have you been coughing any this evening, Mr. President?
p469
sg8
g9
sg10
VGORDON
p470
sg12
g13
sa(dp471
g6
VNot at all. What are you hearing, agent?
p472
sg8
g23
sg10
VBARTLET
p473
sg12
g13
sa(dp474
g6
VThe ventilation system shut down per design. No other detectors are picking up any unusual particles. A few personnel are being held at their desks.
p475
sg8
g13
sg10
VAGENT
p476
sg12
g13
sa(dp477
g6
VHow about upstairs?
p478
sg8
g13
sg10
VBARTLET
p479
sg12
g13
sa(dp480
g6
VThe Residence is clear.
p481
sg8
g13
sg10
VAGENT
p482
sg12
g13
sa(dp483
g6
VAre you experiencing any shortness of breath, sir?
p484
sg8
g9
sg10
VGORDON
p485
sg12
g13
sa(dp486
g6
VNo, I'm fine. You can skip ahead with the questions.
p487
sg8
g13
sg10
VBARTLET
p488
sg12
g13
sa(dp489
g6
VIt's a long list, but I do need to go through it, sir.
p490
sg8
g9
sg10
VGORDON
p491
sg12
g13
sa(dp492
g6
VDo the questions, sir. We want to take our time with the questions.
p493
sg8
g9
sg10
VCHARLIE
p494
sg12
g9
sa(dp495
g6
VSo, you're aware of what's coming next?
p496
sg8
g13
sg10
VGORDON
p497
sg12
g13
sa(dp498
g6
VOh, yeah.
p499
sg8
g13
sg10
VCHARLIE
p500
sg12
g9
sa(dp501
g6
VDoes it have anything to do with nasal swabs?
p502
sg8
g13
sg10
VDEBBIE
p503
sg12
g13
sa(dp504
g6
VAfraid that's affirmative.
p505
sg8
g9
sg10
VGORDON
p506
sg12
g9
sa(dp507
g6
VServing at the pleasure of the President just gets better and better.
p508
sg8
g13
sg10
VBARTLET
p509
sg12
g13
sa(dp510
g6
VYou read my mind, sir.
p511
sg8
g9
sg10
VDEBBIE
p512
sg12
g9
sa(dp513
g6
VHave we confirmed anything? ... So, unless there's a problem... ... I will hold my location, yeah. ... I'm aware of that. ... I will not leave the Residence.
p514
sg8
g23
sg10
VLEO
p515
sg12
g13
sa(dp516
g6
VWhat are they telling you, Leo?
p517
sg8
g13
sg10
VABBEY
p518
sg12
g9
sa(dp519
g6
VForty minutes tops, assuming no other developments.
p520
sg8
g13
sg10
VLEO
p521
sg12
g13
sa(dp522
g6
VThey told me ten.
p523
sg8
g13
sg10
VABBEY
p524
sg12
g13
sa(dp525
g6
VProbably it'll be more like ten.
p526
sg8
g13
sg10
VLEO
p527
sg12
g13
sa(dp528
g6
VHey, you okay? I saw you slip out early.
p529
sg8
g23
sg10
VLEO
p530
sg12
g23
sa(dp531
g6
VGot a shift; I had to change my clothes.
p532
sg8
g13
sg10
VABBEY
p533
sg12
g13
sa(dp534
g6
VThe exit was a little conspicuous.
p535
sg8
g13
sg10
VLEO
p536
sg12
g13
sa(dp537
g6
VI wasn't throwing food.
p538
sg8
g9
sg10
VABBEY
p539
sg12
g23
sa(dp540
g6
VThe First Lady leaves before the President's speech?
p541
sg8
g9
sg10
VLEO
p542
sg12
g13
sa(dp543
g6
VJed knew I could only be there for the first half.
p544
sg8
g13
sg10
VABBEY
p545
sg12
g13
sa(dp546
g6
VDid anyone else know?
p547
sg8
g13
sg10
VLEO
p548
sg12
g13
sa(dp549
g6
VHello. This is Dr. Bartlet. Would you tell Jerry I'm running late? Thanks.
p550
sg8
g23
sg10
VABBEY
p551
sg12
g23
sa(dp552
g6
VWhat are you doing at this hour?
p553
sg8
g13
sg10
VLEO
p554
sg12
g13
sa(dp555
g6
VI'm at the clinic one night a week: midnight, 8:00 am.
p556
sg8
g13
sg10
VABBEY
p557
sg12
g13
sa(dp558
g6
VGraveyard?
p559
sg8
g13
sg10
VLEO
p560
sg12
g13
sa(dp561
g6
VWe try not to call it that in front of the patients.
p562
sg8
g13
sg10
VABBEY
p563
sg12
g13
sa(dp564
g6
VMidnight to 8:00 doesn't sound like you're handing out lollipops. Does C.J. have anything to say about this?
p565
sg8
g13
sg10
VLEO
p566
sg12
g13
sa(dp567
g6
VC.J. doesn't go to the clinic.
p568
sg8
g13
sg10
VABBEY
p569
sg12
g23
sa(dp570
g6
VI'm saying...
p571
sg8
g13
sg10
VLEO
p572
sg12
g23
sa(dp573
g6
VI know what you're saying.
p574
sg8
g13
sg10
VABBEY
p575
sg12
g13
sa(dp576
g6
VYou could have talked to somebody about this.
p577
sg8
g13
sg10
VLEO
p578
sg12
g23
sa(dp579
g6
VI talked to the President. He didn't tell you I was working night?
p580
sg8
g9
sg10
VABBEY
p581
sg12
g23
sa(dp582
g6
VNo.
p583
sg8
g13
sg10
VLEO
p584
sg12
g13
sa(dp585
g6
VHe never tells me anything either.
p586
sg8
g13
sg10
VABBEY
p587
sg12
g23
sa(dp588
g6
VYou're upset because the VP didn't use any of your jokes.
p589
sg8
g23
sg10
VWILL
p590
sg12
g13
sa(dp591
g6
VI'm upset because he didn't use any of anybody's jokes! 'Cause he gave a humorless sermon at a humorous roast! 'Cause he made the President of the United States look like a buffoon! Like he's squirting seltzer bottles while Pompeii's in flames.
p592
sg8
g9
sg10
VTOBY
p593
sg12
g13
sa(dp594
g6
VVolcanic ash.
p595
sg8
g23
sg10
VWILL
p596
sg12
g23
sa(dp597
g6
VWhat?
p598
sg8
g13
sg10
VTOBY
p599
sg12
g13
sa(dp600
g6
VRome burned. Pompeii was blanketed in volcanic ash.
p601
sg8
g23
sg10
VWILL
p602
sg12
g23
sa(dp603
g6
VI want to know if Bob Russell's happy he upstaged the President.
p604
sg8
g9
sg10
VTOBY
p605
sg12
g13
sa(dp606
g6
VThe Vice President spent three hours as a pin cushion: dull jokes, stiff jokes, agribusiness jokes, unpreparedness jokes, immovable hairline jokes. He provided plenty of humor to the proceedings. He thinks these are serious times and he didn't want to bow and scrape and tell knock-knock jokes to all establishment in Washington. You're damn right he was happy.
p607
sg8
g23
sg10
VWILL
p608
sg12
g13
sa(dp609
g6
VFrom now on, any joint POTUS-VPOTUS appearance, I clear his speech.
p610
sg8
g9
sg10
VTOBY
p611
sg12
g13
sa(dp612
g6
VFirst of all, no. Second, you're mad he didn't use any of your jokes.
p613
sg8
g23
sg10
VWILL
p614
sg12
g13
sa(dp615
g6
VOkay.
p616
sg8
g13
sg10
VTOBY
p617
sg12
g13
sa(dp618
g6
VThe problem with Bob Russell jokes is he doesn't think they're funny and no one else thinks they're jokes.
p619
sg8
g23
sg10
VTOBY
p620
sg12
g23
sa(dp621
g6
VThese are serious times.
p622
sg8
g13
sg10
VWILL
p623
sg12
g13
sa(dp624
g6
VAnd only the Vice President has figured that out!
p625
sg8
g13
sg10
VTOBY
p626
sg12
g13
sa(dp627
g6
VAccording to you, he's the only one tonight who didn't look like a buffoon, and he's the only who wasn't taking your advice, so add one to the other and tell me what you get.
p628
sg8
g13
sg10
VWILL
p629
sg12
g13
sa(dp630
g6
VWe're done here.
p631
sg8
g13
sg10
VTOBY
p632
sg12
g23
sa(dp633
g6
VExcuse me.
p634
sg8
g13
sg10
VTOBY
p635
sg12
g23
sa(dp636
g6
VYou need to close the door.
p637
sg8
g13
sg10
VBRODER
p638
sg12
g13
sa(dp639
g6
VMy office is two feet...
p640
sg8
g13
sg10
VTOBY
p641
sg12
g13
sa(dp642
g6
VStrict procedures, Mr. Ziegler.
p643
sg8
g13
sg10
VBRODER
p644
sg12
g13
sa(dp645
g6
VI guarantee the President would prefer...
p646
sg8
g9
sg10
VTOBY
p647
sg12
g13
sa(dp648
g6
VI'll let you know when.
p649
sg8
g13
sg10
VBRODER
p650
sg12
g13
sa(dp651
g6
VI'm not staying with this guy. You can...
p652
sg8
g13
sg10
VTOBY
p653
sg12
g23
sa(dp654
g6
VI'm sorry, Mr. Ziegler.
p655
sg8
g13
sg10
VBRODER
p656
sg12
g13
sa(dp657
g6
VStay inside the room, gentlemen.
p658
sg8
g13
sg10
VBRODER
p659
sg12
g9
sa(dp660
g6
VOh, man.
p661
sg8
g13
sg10
VWILL
p662
sg12
g13
sa(dp663
g6
VSo this is verified? Gold alert?
p664
sg8
g9
sg10
VBARTLET
p665
sg12
g9
sa(dp666
g6
VThe office was sealed in less than eight minutes. While the alarm's being verified, the scanner began a DNA diagnostic.
p667
sg8
g13
sg10
VBUTTERFIELD
p668
sg12
g13
sa(dp669
g6
VMalfunction's still possible?
p670
sg8
g13
sg10
VBARTLET
p671
sg12
g9
sa(dp672
g6
VYes. But while we rule out system error, hazmat moves ahead with a sweep of the area.
p673
sg8
g13
sg10
VBUTTERFIELD
p674
sg12
g13
sa(dp675
g6
VAny shortness of breath?
p676
sg8
g13
sg10
VGORDON
p677
sg12
g13
sa(dp678
g6
VNot really. I have a little allergic rhinitis, but no, the answer's no.
p679
sg8
g13
sg10
VDEBBIE
p680
sg12
g23
sa(dp681
g6
VOw!
p682
sg8
g13
sg10
VCHARLIE
p683
sg12
g13
sa(dp684
g6
VSorry.
p685
sg8
g13
sg10
VDOCTOR
p686
sg12
g13
sa(dp687
g6
VWas that my sinus or my frontal lobe?
p688
sg8
g13
sg10
VCHARLIE
p689
sg12
g23
sa(dp690
g6
VDo you feel any kind of burning sensation on your skin or eyes?
p691
sg8
g9
sg10
VGORDON
p692
sg12
g13
sa(dp693
g6
VNot on my skin.
p694
sg8
g13
sg10
VDEBBIE
p695
sg12
g13
sa(dp696
g6
VYour eyes? They're pretty red.
p697
sg8
g9
sg10
VGORDON
p698
sg12
g13
sa(dp699
g6
VThat's all of them.
p700
sg8
g13
sg10
VDOCTOR
p701
sg12
g13
sa(dp702
g6
VTake that straight to Fort Detrick.
p703
sg8
g13
sg10
VCHARLIE
p704
sg12
g13
sa(dp705
g6
VYou'd hate for them to get lost.
p706
sg8
g23
sg10
VDEBBIE
p707
sg12
g13
sa(dp708
g6
VMs. Fiderer, about your eyes...
p709
sg8
g13
sg10
VGORDON
p710
sg12
g13
sa(dp711
g6
VThe pollen count has been in the go-back-to-bed region all week.
p712
sg8
g9
sg10
VDEBBIE
p713
sg12
g13
sa(dp714
g6
VHas your nose been burning.
p715
sg8
g13
sg10
VGORDON
p716
sg12
g23
sa(dp717
g6
VRunning more than burning, but that's from the cloud of Chanel at dinner.
p718
sg8
g9
sg10
VDEBBIE
p719
sg12
g13
sa(dp720
g6
VShe's got a fragrance sensitivity that she's pretty sensitive about.
p721
sg8
g9
sg10
VCHARLIE
p722
sg12
g9
sa(dp723
g6
VWas anything actually sprayed on you at this dinner?
p724
sg8
g9
sg10
VGORDON
p725
sg12
g13
sa(dp726
g6
VWell, actually - this won't count - but when I took my tablemates to meet the President, I thought they were guests of Leno's but it turns out they weren't. While we waited for him to finish with the party ahead of us, I didn't even see the woman get into her bag and - shhh! - she spritzed right into my face.
p727
sg8
g9
sg10
VDEBBIE
p728
sg12
g13
sa(dp729
g6
VAre you saying this aerosol actually got on you?
p730
sg8
g13
sg10
VGORDON
p731
sg12
g13
sa(dp732
g6
VWe expect an ID in 20 minutes.
p733
sg8
g9
sg10
VBUTTERFIELD
p734
sg12
g13
sa(dp735
g6
VThanks, Ron.
p736
sg8
g13
sg10
VBARTLET
p737
sg12
g9
sa(dp738
g6
VI'm sorry, Agent Butterfield, no one leaves.
p739
sg8
g13
sg10
VGORDON
p740
sg12
g23
sa(dp741
g6
VWhat?
p742
sg8
g13
sg10
VBUTTERFIELD
p743
sg12
g13
sa(dp744
g6
VI'm calling a Code Chem. We need to run a DE-CON protocol.
p745
sg8
g13
sg10
VGORDON
p746
sg12
g13
sa(dp747
g6
VAre there chemical indications?
p748
sg8
g13
sg10
VBUTTERFIELD
p749
sg12
g23
sa(dp750
g6
VFiderer was sprayed with an unknown agent in proximity to the President. It's causing edema and burning in the eyes. I'm going to have to ask everyone to take a decontamination rinse in the shower, starting with the President.
p751
sg8
g23
sg10
VGORDON
p752
sg12
g13
sa(dp753
g6
VOh, for the love of Mike.
p754
sg8
g9
sg10
VBARTLET
p755
sg12
g13
sa(dp756
g6
VWe'll proceed one at a time and meet in the clean area. We should move as quickly as possible.
p757
sg8
g9
sg10
VGORDON
p758
sg12
g13
sa(dp759
g6
VI'm all for the protocol, Major, but this is absurd.
p760
sg8
g23
sg10
VBARTLET
p761
sg12
g23
sa(dp762
g6
VMy apologies.
p763
sg8
g13
sg10
VGORDON
p764
sg12
g13
sa(dp765
g6
VWe've got an oversensitive, overpriced piece of equipment that's overreacting.
p766
sg8
g23
sg10
VBARTLET
p767
sg12
g23
sa(dp768
g6
VYes, sir. You'll find written instructions in the shower. Make sure you scrub vigorously and rinse your eyes.
p769
sg8
g13
sg10
VGORDON
p770
sg12
g13
sa(dp771
g6
VYou're making a great impression, Doc.
p772
sg8
g9
sg10
VBARTLET
p773
sg12
g13
sa(dp774
g6
VMr. President...
p775
sg8
g13
sg10
VGORDON
p776
sg12
g13
sa(dp777
g6
VRon'll put in a good word to your CO.
p778
sg8
g9
sg10
VBARTLET
p779
sg12
g9
sa(dp780
g6
VMr. President, get in the shower.
p781
sg8
g13
sg10
VCHARLIE
p782
sg12
g13
sa(dp783
g6
VCan you see anybody?
p784
sg8
g13
sg10
VC.J.
p785
sg12
g13
sa(dp786
g6
VJosh's door is closed. He's not picking up?
p787
sg8
g13
sg10
VDONNA
p788
sg12
g13
sa(dp789
g6
VJosh Lyman's office.
p790
sg8
g13
sg10
VJOSH
p791
sg12
g13
sa(dp792
g6
VAnd Josh Lyman himself.
p793
sg8
g13
sg10
VC.J.
p794
sg12
g13
sa(dp795
g6
VNo. She's right here.
p796
sg8
g13
sg10
VC.J.
p797
sg12
g13
sa(dp798
g6
VWhat's the holdup?
p799
sg8
g13
sg10
VC.J.
p800
sg12
g13
sa(dp801
g6
VI don't know. I got a...
p802
sg8
g13
sg10
VJOSH
p803
sg12
g23
sa(dp804
g6
VWell, ask her why we can't throw a little money at the system and do something about these false alarms.
p805
sg8
g9
sg10
VC.J.
p806
sg12
g13
sa(dp807
g6
VC.J. Cregg would like to know why we spend half our lives in unnecessary lockdowns.
p808
sg8
g13
sg10
VJOSH
p809
sg12
g13
sa(dp810
g6
VBetter safe than sorry.
p811
sg8
g9
sg10
VHARPER
p812
sg12
g13
sa(dp813
g6
VShe's got nothing.
p814
sg8
g13
sg10
VJOSH
p815
sg12
g9
sa(dp816
g6
VDid you know I'm taking Jack Sosa's place on the trip?
p817
sg8
g13
sg10
VDONNA
p818
sg12
g13
sa(dp819
g6
VHe was on Press Detail.
p820
sg8
g13
sg10
VDONNA
p821
sg12
g13
sa(dp822
g6
VNow I'm on Press Detail.
p823
sg8
g13
sg10
VDONNA
p824
sg12
g23
sa(dp825
g6
VBring him back a keychain with a pyramid on it or something. Whoops, I got another line beeping. What do I do?
p826
sg8
g13
sg10
VJOSH
p827
sg12
g13
sa(dp828
g6
VPress hold and...
p829
sg8
g13
sg10
VDONNA
p830
sg12
g9
sa(dp831
g6
VWeren't you getting a drink with that guy from the Post-Intelligencer?
p832
sg8
g13
sg10
VC.J.
p833
sg12
g13
sa(dp834
g6
VI thought we had stuff to wrap up. Apparently it was just Operation Rod & Reel.
p835
sg8
g13
sg10
VDONNA
p836
sg12
g23
sa(dp837
g6
VHe was cute.
p838
sg8
g9
sg10
VC.J.
p839
sg12
g9
sa(dp840
g6
VEh, he'll call.
p841
sg8
g13
sg10
VDONNA
p842
sg12
g13
sa(dp843
g6
VOh, God. Sasquatch.
p844
sg8
g13
sg10
VC.J.
p845
sg12
g13
sa(dp846
g6
VIce might help.
p847
sg8
g13
sg10
VWILL
p848
sg12
g13
sa(dp849
g6
VAre you making conversation?
p850
sg8
g13
sg10
VTOBY
p851
sg12
g13
sa(dp852
g6
VYou don't want it to swell up.
p853
sg8
g13
sg10
VWILL
p854
sg12
g13
sa(dp855
g6
VThere's no ice here and, as you may have noticed, we're not at liberty to wander.
p856
sg8
g9
sg10
VTOBY
p857
sg12
g13
sa(dp858
g6
VDo they always do that? Saran-wrap the Oval.
p859
sg8
g13
sg10
VWILL
p860
sg12
g13
sa(dp861
g6
VI don't know. If it was real, Russell would know. You would have gotten a call.
p862
sg8
g9
sg10
VTOBY
p863
sg12
g23
sa(dp864
g6
VMy cell phone's out in my coat pocket, and since your scrubbing of my old office included the phone... He was fast, that guy. You think that was judo?
p865
sg8
g9
sg10
VWILL
p866
sg12
g13
sa(dp867
g6
VThere are sodas in here. They're cold.
p868
sg8
g23
sg10
VWILL
p869
sg12
g23
sa(dp870
g6
VI'm not putting a soda on my head.
p871
sg8
g13
sg10
VTOBY
p872
sg12
g23
sa(dp873
g6
VOkay. There's gonna be a bump.
p874
sg8
g13
sg10
VWILL
p875
sg12
g23
sa(dp876
g6
VI don't know Major Gordon. Do we like him?
p877
sg8
g13
sg10
VABBEY
p878
sg12
g23
sa(dp879
g6
VHe didn't laugh at my Social Security joke.
p880
sg8
g13
sg10
VBARTLET
p881
sg12
g23
sa(dp882
g6
VI think we can count on Dr. Gordon's sobriety.
p883
sg8
g9
sg10
VBARTLET
p884
sg12
g13
sa(dp885
g6
VSeriously, It's a miracle I'm still alive.
p886
sg8
g9
sg10
VBARTLET
p887
sg12
g9
sa(dp888
g6
VDon't get too bored.
p889
sg8
g13
sg10
VBARTLET
p890
sg12
g23
sa(dp891
g6
VLeo's still in the building?
p892
sg8
g9
sg10
VBARTLET
p893
sg12
g13
sa(dp894
g6
VYes.
p895
sg8
g13
sg10
VABBEY
p896
sg12
g9
sa(dp897
g6
VI thought they would...
p898
sg8
g13
sg10
VBARTLET
p899
sg12
g13
sa(dp900
g6
VI thought he went home.
p901
sg8
g13
sg10
VBARTLET
p902
sg12
g13
sa(dp903
g6
VNo, he's with me.
p904
sg8
g13
sg10
VABBEY
p905
sg12
g13
sa(dp906
g6
VUntil he gets whisked away to some undisclosed location, I'm gonna run with the false alarm story.
p907
sg8
g23
sg10
VABBEY
p908
sg12
g13
sa(dp909
g6
VLeo.
p910
sg8
g13
sg10
VABBEY
p911
sg12
g13
sa(dp912
g6
VHow's it going?
p913
sg8
g13
sg10
VLEO
p914
sg12
g13
sa(dp915
g6
VSomeone alerted the Chinese that Japan's on board with the missile shield.
p916
sg8
g13
sg10
VLEO
p917
sg12
g13
sa(dp918
g6
VAre we?
p919
sg8
g13
sg10
VBARTLET
p920
sg12
g13
sa(dp921
g6
VWe'll have to be.
p922
sg8
g13
sg10
VLEO
p923
sg12
g23
sa(dp924
g6
VYeah.
p925
sg8
g13
sg10
VLEO
p926
sg12
g13
sa(dp927
g6
VYou can stay.
p928
sg8
g13
sg10
VABBEY
p929
sg12
g13
sa(dp930
g6
VThey don't think there's a real danger.
p931
sg8
g13
sg10
VLEO
p932
sg12
g23
sa(dp933
g6
VBetter to have you here making sure I behave.
p934
sg8
g13
sg10
VABBEY
p935
sg12
g23
sa(dp936
g6
VIf it comes to that, have you got any of those to spare? Or are you hoarding the good stuff?
p937
sg8
g9
sg10
VLEO
p938
sg12
g13
sa(dp939
g6
VI'm sorry, where's my manners? I'm not going to tell you it's cold medicine.
p940
sg8
g13
sg10
VABBEY
p941
sg12
g13
sa(dp942
g6
VYou carry 'em with you?
p943
sg8
g13
sg10
VLEO
p944
sg12
g13
sa(dp945
g6
V"As needed." It's not a daily dose. How about I make us some tea?
p946
sg8
g13
sg10
VABBEY
p947
sg12
g13
sa(dp948
g6
VSo, why'd you get the water? You went out and got a case right before the agent showed up.
p949
sg8
g23
sg10
VJOSH
p950
sg12
g13
sa(dp951
g6
VDo you want one?
p952
sg8
g13
sg10
VHARPER
p953
sg12
g13
sa(dp954
g6
VYou knew we were going to be stuck here indefinitely. I didn't.
p955
sg8
g13
sg10
VJOSH
p956
sg12
g13
sa(dp957
g6
VIt's a reflex.
p958
sg8
g13
sg10
VHARPER
p959
sg12
g13
sa(dp960
g6
VYeah? "Better safe"?
p961
sg8
g9
sg10
VJOSH
p962
sg12
g13
sa(dp963
g6
VI was in a lockdown for 77 hours once.
p964
sg8
g13
sg10
VHARPER
p965
sg12
g23
sa(dp966
g6
VWhere was that?
p967
sg8
g13
sg10
VJOSH
p968
sg12
g23
sa(dp969
g6
VOverseas.
p970
sg8
g13
sg10
VHARPER
p971
sg12
g13
sa(dp972
g6
V"Overseas" is a big place.
p973
sg8
g13
sg10
VJOSH
p974
sg12
g13
sa(dp975
g6
VYeah.
p976
sg8
g13
sg10
VHARPER
p977
sg12
g13
sa(dp978
g6
VWere you in the Embassy in Haiti?
p979
sg8
g13
sg10
VJOSH
p980
sg12
g13
sa(dp981
g6
VI got a power bar, too, if things get ugly.
p982
sg8
g23
sg10
VHARPER
p983
sg12
g13
sa(dp984
g6
VOkay. I get it. CIA. I can look you up. I have code-word clearance.
p985
sg8
g9
sg10
VJOSH
p986
sg12
g23
sa(dp987
g6
VNot this code, you don't.
p988
sg8
g13
sg10
VHARPER
p989
sg12
g13
sa(dp990
g6
VSo why'd you kill my Panama joke?
p991
sg8
g23
sg10
VJOSH
p992
sg12
g23
sa(dp993
g6
VWhat?
p994
sg8
g13
sg10
VHARPER
p995
sg12
g13
sa(dp996
g6
VIn the President's speech tonight. What possible threat to National Security...?
p997
sg8
g13
sg10
VJOSH
p998
sg12
g13
sa(dp999
g6
VNo threat.
p1000
sg8
g23
sg10
VHARPER
p1001
sg12
g23
sa(dp1002
g6
VNo?
p1003
sg8
g13
sg10
VJOSH
p1004
sg12
g13
sa(dp1005
g6
VIt wasn't funny.
p1006
sg8
g13
sg10
VHARPER
p1007
sg12
g23
sa(dp1008
g6
VYou don't really like Russell.
p1009
sg8
g13
sg10
VTOBY
p1010
sg12
g23
sa(dp1011
g6
VNo, you don't. And your dislike isn't professional, it's personal.
p1012
sg8
g13
sg10
VWILL
p1013
sg12
g23
sa(dp1014
g6
VIt's not personal. Visceral.
p1015
sg8
g13
sg10
VTOBY
p1016
sg12
g23
sa(dp1017
g6
VHe's not inconsiderable once you spend some time with him.
p1018
sg8
g13
sg10
VWILL
p1019
sg12
g13
sa(dp1020
g6
VHe's a featherweight who only looks like a lightweight because he's got you propping him up.
p1021
sg8
g13
sg10
VTOBY
p1022
sg12
g13
sa(dp1023
g6
VHe's the heir apparent.
p1024
sg8
g13
sg10
VWILL
p1025
sg12
g23
sa(dp1026
g6
VDon't say heir apparent when we've got men in moon suits hermetically sealing the Oval. This is Russell's only shot, by the way. A night like this. You're comfortable with that?
p1027
sg8
g23
sg10
VTOBY
p1028
sg12
g13
sa(dp1029
g6
VPerfectly. Thank you.
p1030
sg8
g13
sg10
VWILL
p1031
sg12
g9
sa(dp1032
g6
VWell, great.
p1033
sg8
g13
sg10
VTOBY
p1034
sg12
g13
sa(dp1035
g6
VOnly shot.
p1036
sg8
g23
sg10
VWILL
p1037
sg12
g13
sa(dp1038
g6
VThis and voter fraud, another option.
p1039
sg8
g13
sg10
VTOBY
p1040
sg12
g9
sa(dp1041
g6
VYeah, I see.
p1042
sg8
g13
sg10
VWILL
p1043
sg12
g23
sa(dp1044
g6
VOr a mob hit would also work.
p1045
sg8
g23
sg10
VTOBY
p1046
sg12
g13
sa(dp1047
g6
VSomeday there's going to be a newer, younger political operative moving on to your landscape. Somebody up through the ranks from the domestic policy shop, and you'll be able to foist all your jealousy and resentment onto his unsuspecting shoulders and you'll give me a break for three consecutive minutes.
p1048
sg8
g23
sg10
VWILL
p1049
sg12
g13
sa(dp1050
g6
VJealousy? This is good.
p1051
sg8
g9
sg10
VTOBY
p1052
sg12
g9
sa(dp1053
g6
VYou've had one win in your career, one. And you're looking sunset in the face, and I'm just getting started, and that's eating you apart like some psychological melanoma.
p1054
sg8
g9
sg10
VWILL
p1055
sg12
g13
sa(dp1056
g6
VMy jealousy of you?
p1057
sg8
g23
sg10
VTOBY
p1058
sg12
g13
sa(dp1059
g6
VIt's an adrenaline sport and you're exhausted. If you had another fight in you, you'd be grooming Matt Packard or Howard Sturgis and you'd take me down, me and my anemic candidate. But you don't have it. I say this with a great amount of respect. I would be eternally grateful if you would back off.
p1060
sg8
g9
sg10
VWILL
p1061
sg12
g13
sa(dp1062
g6
VMy father had one of these. I barfed in it once. I usually threw up off the side of the boat. Sitting there, rocking in the lake swells. It was always about getting up at some God-awful hour in the morning. We're not going to make it to the Shenandoahs.
p1063
sg8
g13
sg10
VC.J.
p1064
sg12
g13
sa(dp1065
g6
VYou were driving there tonight?
p1066
sg8
g13
sg10
VDONNA
p1067
sg12
g23
sa(dp1068
g6
VThe plan was to hit the road by 11:00, get there by 1:00, pitch a tent by starlight, and wake up in the green world.
p1069
sg8
g9
sg10
VC.J.
p1070
sg12
g13
sa(dp1071
g6
VYou can still make it.
p1072
sg8
g13
sg10
VDONNA
p1073
sg12
g9
sa(dp1074
g6
VThere's going to be post-mortem on this.
p1075
sg8
g13
sg10
VC.J.
p1076
sg12
g13
sa(dp1077
g6
VI doubt it.
p1078
sg8
g23
sg10
VDONNA
p1079
sg12
g23
sa(dp1080
g6
V"Why the system's on the fritz. Is the White House crippled by its own protection?"
p1081
sg8
g23
sg10
VC.J.
p1082
sg12
g13
sa(dp1083
g6
VWe just left the entire press corps at the Hilton and they were liking the open bar.
p1084
sg8
g9
sg10
VDONNA
p1085
sg12
g13
sa(dp1086
g6
VStill...
p1087
sg8
g13
sg10
VC.J.
p1088
sg12
g13
sa(dp1089
g6
VSomeone else can handle it. Spray a little Deet behind your ears and go have fun.
p1090
sg8
g9
sg10
VDONNA
p1091
sg12
g13
sa(dp1092
g6
VHi. I'm still here. We've got a little bit of a situation. I'm afraid our little getaway isn't going to work. I'm really sorry.
p1093
sg8
g23
sg10
VC.J.
p1094
sg12
g23
sa(dp1095
g6
VAllergies have been a pain my whole life, but this is a new low.
p1096
sg8
g23
sg10
VDEBBIE
p1097
sg12
g13
sa(dp1098
g6
VNone of that.
p1099
sg8
g13
sg10
VBARTLET
p1100
sg12
g9
sa(dp1101
g6
VFor all we know, you probably saved our lives.
p1102
sg8
g13
sg10
VCHARLIE
p1103
sg12
g13
sa(dp1104
g6
VAnd at the very least, you got us into some comfortable clothes. You both comfy?
p1105
sg8
g13
sg10
VBARTLET
p1106
sg12
g9
sa(dp1107
g6
VOh, yes, sir. I'm so digging the polyester.
p1108
sg8
g9
sg10
VDEBBIE
p1109
sg12
g13
sa(dp1110
g6
VIt's a great look.
p1111
sg8
g13
sg10
VCHARLIE
p1112
sg12
g9
sa(dp1113
g6
VCipro?
p1114
sg8
g13
sg10
VBARTLET
p1115
sg12
g13
sa(dp1116
g6
VYes, sir. We'll treat prophylactically - 500 milligrams twice a day. Drink lots of water, it's dehydrating.
p1117
sg8
g9
sg10
VGORDON
p1118
sg12
g9
sa(dp1119
g6
VLet me guess: protocol.
p1120
sg8
g13
sg10
VBARTLET
p1121
sg12
g23
sa(dp1122
g6
VThe cultures will be back in 48 hours. If it's negative for anthrax, we'll stop the regimen.
p1123
sg8
g23
sg10
VGORDON
p1124
sg12
g13
sa(dp1125
g6
VSo, we haven't ruled out anthrax?
p1126
sg8
g23
sg10
VCHARLIE
p1127
sg12
g23
sa(dp1128
g6
VWe haven't ruled out anything.
p1129
sg8
g13
sg10
VGORDON
p1130
sg12
g23
sa(dp1131
g6
VActually, we have. Mr. President?
p1132
sg8
g13
sg10
VBUTTERFIELD
p1133
sg12
g13
sa(dp1134
g6
VGo ahead. If the phrase "We're all in this together" ever applied...
p1135
sg8
g9
sg10
VBARTLET
p1136
sg12
g13
sa(dp1137
g6
VYou can hold the Cipro, Doctor. The scanner has made a determination. It's positive for tularemia.
p1138
sg8
g9
sg10
VBUTTERFIELD
p1139
sg12
g13
sa(dp1140
g6
VWhat?
p1141
sg8
g13
sg10
VCHARLIE
p1142
sg12
g13
sa(dp1143
g6
VIs that a virus?
p1144
sg8
g23
sg10
VBARTLET
p1145
sg12
g23
sa(dp1146
g6
VTularemia is a bacterium. It occurs rarely in insects and rodents. Theoretically, in an aerosolized form, it could be used as a weapon.
p1147
sg8
g23
sg10
VGORDON
p1148
sg12
g13
sa(dp1149
g6
VNot looking all that theoretical at the moment.
p1150
sg8
g9
sg10
VCHARLIE
p1151
sg12
g13
sa(dp1152
g6
VSo, at the Correspondent's Dinner...?
p1153
sg8
g13
sg10
VDEBBIE
p1154
sg12
g13
sa(dp1155
g6
VNo. We can eliminate that scenario. This bacteria was released in the office; probably within 10 to 15 minutes of the alarm sounding.
p1156
sg8
g23
sg10
VBUTTERFIELD
p1157
sg12
g13
sa(dp1158
g6
VWhere in the office?
p1159
sg8
g13
sg10
VCHARLIE
p1160
sg12
g13
sa(dp1161
g6
VThat's what hazmat's trying to determine.
p1162
sg8
g13
sg10
VBUTTERFIELD
p1163
sg12
g13
sa(dp1164
g6
VWe can treat for tularemia immediately. With an antibiotic cocktail, you probably won't develop symptoms.
p1165
sg8
g9
sg10
VGORDON
p1166
sg12
g23
sa(dp1167
g6
VIf it had gone undetected?
p1168
sg8
g13
sg10
VBARTLET
p1169
sg12
g13
sa(dp1170
g6
VTularemia's likely to manifest as a severe respiratory infection: pneumonia, eventually systemic.
p1171
sg8
g23
sg10
VGORDON
p1172
sg12
g23
sa(dp1173
g6
VSounds bad.
p1174
sg8
g23
sg10
VCHARLIE
p1175
sg12
g23
sa(dp1176
g6
VIn the world of known pathogens, tularemia is closest to... well, in fact, it is plague.
p1177
sg8
g23
sg10
VGORDON
p1178
sg12
g13
sa(dp1179
g6
VHow long has it been?
p1180
sg8
g13
sg10
VTOBY
p1181
sg12
g23
sa(dp1182
g6
VHalf an hour.
p1183
sg8
g13
sg10
VWILL
p1184
sg12
g13
sa(dp1185
g6
VIt's like something out of Beckett.
p1186
sg8
g13
sg10
VTOBY
p1187
sg12
g13
sa(dp1188
g6
VYou mean Sartre.
p1189
sg8
g13
sg10
VWILL
p1190
sg12
g13
sa(dp1191
g6
VIf I meant Sartre, I would have said Sartre.
p1192
sg8
g13
sg10
VTOBY
p1193
sg12
g23
sa(dp1194
g6
V"Hell is other people."
p1195
sg8
g13
sg10
VWILL
p1196
sg12
g13
sa(dp1197
g6
VOkay, Sartre.
p1198
sg8
g13
sg10
VTOBY
p1199
sg12
g9
sa(dp1200
g6
VWe're stuck in a lockdown every time some frat boy on a hazing dare tries to jump the fence. You know how many undergraduate institutions there are in this town?
p1201
sg8
g13
sg10
VJOSH
p1202
sg12
g13
sa(dp1203
g6
VIt's not the fence.
p1204
sg8
g13
sg10
VHARPER
p1205
sg12
g13
sa(dp1206
g6
VWhat is that?
p1207
sg8
g13
sg10
VJOSH
p1208
sg12
g9
sa(dp1209
g6
VIt's not the fence.
p1210
sg8
g13
sg10
VHARPER
p1211
sg12
g13
sa(dp1212
g6
VIs there anything I can do to get a straight answer out of you?
p1213
sg8
g13
sg10
VJOSH
p1214
sg12
g23
sa(dp1215
g6
VIt's a possible airborne contaminant.
p1216
sg8
g13
sg10
VHARPER
p1217
sg12
g13
sa(dp1218
g6
VHow did you...?
p1219
sg8
g13
sg10
VJOSH
p1220
sg12
g13
sa(dp1221
g6
VThe ventilation system's off, which the do either in the event of a fire or they do in the event of a potential airborne contaminant. In the event of a fire I like to think they'll lock us outside the building.
p1222
sg8
g9
sg10
VHARPER
p1223
sg12
g13
sa(dp1224
g6
VSo, what kind of substance are we talking about?
p1225
sg8
g9
sg10
VJOSH
p1226
sg12
g13
sa(dp1227
g6
VCould be anthrax, smallpox, botulism. Though it's hard to aerosolize, so it's probably not botulism. Sarin and VX kill you within minutes, so we can rule them out. Mustard's unlikely 'cause we'd smell it, and there'd be blistering...
p1228
sg8
g23
sg10
VHARPER
p1229
sg12
g23
sa(dp1230
g6
VOkay.
p1231
sg8
g13
sg10
VJOSH
p1232
sg12
g13
sa(dp1233
g6
VThanks. [pause] How'd you know the air's off?
p1234
sg8
g13
sg10
VJOSH
p1235
sg12
g13
sa(dp1236
g6
V'Cause it's hot.
p1237
sg8
g13
sg10
VHARPER
p1238
sg12
g13
sa(dp1239
g6
VScrabble, Boggle, Parcheesi.
p1240
sg8
g13
sg10
VCHARLIE
p1241
sg12
g9
sa(dp1242
g6
VHow can they not have a deck of cards?
p1243
sg8
g13
sg10
VDEBBIE
p1244
sg12
g13
sa(dp1245
g6
VNobody's got cash down here, Debbie. It's not a missed opportunity.
p1246
sg8
g9
sg10
VBARTLET
p1247
sg12
g23
sa(dp1248
g6
VThe sprung for Boggle, they could have thrown in a deck of cards.
p1249
sg8
g13
sg10
VDEBBIE
p1250
sg12
g13
sa(dp1251
g6
VRon?
p1252
sg8
g13
sg10
VBARTLET
p1253
sg12
g13
sa(dp1254
g6
VYes, sir.
p1255
sg8
g9
sg10
VBUTTERFIELD
p1256
sg12
g9
sa(dp1257
g6
VHazmat's really taking there time up there, aren't they?
p1258
sg8
g13
sg10
VBARTLET
p1259
sg12
g23
sa(dp1260
g6
VJust a moment, sir.
p1261
sg8
g9
sg10
VBUTTERFIELD
p1262
sg12
g9
sa(dp1263
g6
VRon is on the phone.
p1264
sg8
g13
sg10
VBARTLET
p1265
sg12
g13
sa(dp1266
g6
VHow about Risk?
p1267
sg8
g13
sg10
VCHARLIE
p1268
sg12
g13
sa(dp1269
g6
VBring it on.
p1270
sg8
g13
sg10
VDEBBIE
p1271
sg12
g23
sa(dp1272
g6
VAny changes in the last five minutes?
p1273
sg8
g13
sg10
VBARTLET
p1274
sg12
g13
sa(dp1275
g6
VStill 129/85.
p1276
sg8
g13
sg10
VGORDON
p1277
sg12
g13
sa(dp1278
g6
VNot bad, considering.
p1279
sg8
g23
sg10
VDEBBIE
p1280
sg12
g23
sa(dp1281
g6
VYeah. You'd have thought the word "plague" alone would have spiked us all into the stratosphere.
p1282
sg8
g13
sg10
VBARTLET
p1283
sg12
g13
sa(dp1284
g6
VYou want to be red green?
p1285
sg8
g9
sg10
VCHARLIE
p1286
sg12
g13
sa(dp1287
g6
VEither way, my army's taking Asia by Round III.
p1288
sg8
g13
sg10
VDEBBIE
p1289
sg12
g13
sa(dp1290
g6
VMr. President, they found the source of the contamination. Hazmat found traces of tularemia in a recycle bin.
p1291
sg8
g9
sg10
VBUTTERFIELD
p1292
sg12
g13
sa(dp1293
g6
VWhich bin?
p1294
sg8
g13
sg10
VDEBBIE
p1295
sg12
g13
sa(dp1296
g6
VIt was found inside a manila envelope addressed to Charlie.
p1297
sg8
g9
sg10
VBUTTERFIELD
p1298
sg12
g13
sa(dp1299
g6
VTo me?
p1300
sg8
g13
sg10
VCHARLIE
p1301
sg12
g23
sa(dp1302
g6
VTo your home address. Did you bring in any mail from home?
p1303
sg8
g13
sg10
VBUTTERFIELD
p1304
sg12
g13
sa(dp1305
g6
VOnly bills, mail that was already opened.
p1306
sg8
g13
sg10
VCHARLIE
p1307
sg12
g23
sa(dp1308
g6
VFiderer.
p1309
sg8
g13
sg10
VDEBBIE
p1310
sg12
g13
sa(dp1311
g6
VRon, why don't you talk to Charlie alone?
p1312
sg8
g9
sg10
VBARTLET
p1313
sg12
g13
sa(dp1314
g6
VLet's go inside.
p1315
sg8
g13
sg10
VBUTTERFIELD
p1316
sg12
g13
sa(dp1317
g6
VMr. President, they're patching through your call from the Japanese Defense Minister.
p1318
sg8
g13
sg10
VDEBBIE
p1319
sg12
g13
sa(dp1320
g6
VThank you.
p1321
sg8
g13
sg10
VBARTLET
p1322
sg12
g9
sa(dp1323
g6
VMr. President, I swear...
p1324
sg8
g9
sg10
VCHARLIE
p1325
sg12
g13
sa(dp1326
g6
VIt's okay, go on.
p1327
sg8
g13
sg10
VBARTLET
p1328
sg12
g13
sa(dp1329
g6
VGood morning, Mr. Takabi. ... We're having a wonderful evening. I can see the cherry blossoms from here. ... No, sir, I'm not concerned. We're ready to move forward. ... Well, I just think you're going to have to put a little more faith in our Department of Defense.
p1330
sg8
g9
sg10
VBARTLET
p1331
sg12
g13
sa(dp1332
g6
VAre you serenading me?
p1333
sg8
g13
sg10
VWILL
p1334
sg12
g23
sa(dp1335
g6
VMyself. An ode to my sunset years.
p1336
sg8
g9
sg10
VTOBY
p1337
sg12
g13
sa(dp1338
g6
VAll right, I'm sorry. That was a gross exaggeration.
p1339
sg8
g23
sg10
VWILL
p1340
sg12
g13
sa(dp1341
g6
VNo, I love it that I live in your imagination crippled by jealousy and in my decline. That speech Russell gave tonight...
p1342
sg8
g23
sg10
VTOBY
p1343
sg12
g13
sa(dp1344
g6
VI could've given you a heads-up.
p1345
sg8
g13
sg10
VWILL
p1346
sg12
g13
sa(dp1347
g6
VNo. It's... That's the speech the President should have given. A flailing economy, tribal rivalries exploding all over the world, the West Wing crashed four times this year, and we're running around playing dress-up, like a bunch of bad Dean Martin impersonators. That's the speech the President should have given. And you should have wrote it for him.
p1348
sg8
g9
sg10
VTOBY
p1349
sg12
g13
sa(dp1350
g6
VYou couldn't find some nice, innocuous baby seal campaign? You got to be downtown with the crackheads and the needle exchange?
p1351
sg8
g9
sg10
VLEO
p1352
sg12
g9
sa(dp1353
g6
VThey're understaffed. They asked me to pitch in.
p1354
sg8
g13
sg10
VABBEY
p1355
sg12
g23
sa(dp1356
g6
VBelieve me, I love the idea of you ministering to the wayward and unwashed. I don't love you becoming a de facto spokesperson for a load of issues we can't support.
p1357
sg8
g9
sg10
VLEO
p1358
sg12
g13
sa(dp1359
g6
VI'm not on a lecture tour, I'm seeing patients.
p1360
sg8
g13
sg10
VABBEY
p1361
sg12
g23
sa(dp1362
g6
V"Hello. My name is Clarissa Ponsissa. I'm 14 and sexually active. But I know it's okay, 'cause I got my condoms from the First Lady." Fox News is throwing a party.
p1363
sg8
g13
sg10
VLEO
p1364
sg12
g13
sa(dp1365
g6
VWe're five years in. They don't have the interest in pathologizing my every move.
p1366
sg8
g9
sg10
VABBEY
p1367
sg12
g13
sa(dp1368
g6
VThey most certainly do. The clinic was one thing - volunteering, children's health - I think we sold that. But now it's all-nighters, Saturday nights?
p1369
sg8
g13
sg10
VLEO
p1370
sg12
g13
sa(dp1371
g6
VNot negotiable. Since I came back, since Zoey, this is the only deal I've had with myself. Follow my gut.
p1372
sg8
g9
sg10
VABBEY
p1373
sg12
g13
sa(dp1374
g6
VYour Secret Service detail must be thrilled.
p1375
sg8
g13
sg10
VLEO
p1376
sg12
g13
sa(dp1377
g6
VAbout as thrilled as you.
p1378
sg8
g13
sg10
VABBEY
p1379
sg12
g13
sa(dp1380
g6
VIt's colorless, odorless, could be stored in a sealed envelope. But it's sensitive to ultraviolet light. It is contagious. Some nut could have mailed it to Charlie.
p1381
sg8
g23
sg10
VDEBBIE
p1382
sg12
g13
sa(dp1383
g6
VDebbie, you'll drive yourself crazy with this.
p1384
sg8
g23
sg10
VBARTLET
p1385
sg12
g13
sa(dp1386
g6
VI know, I'm only giving myself three more minutes.
p1387
sg8
g9
sg10
VDEBBIE
p1388
sg12
g23
sa(dp1389
g6
VThen what?
p1390
sg8
g13
sg10
VBARTLET
p1391
sg12
g13
sa(dp1392
g6
VThen it's half an hour of silent meditation. How do you think I survive?
p1393
sg8
g9
sg10
VDEBBIE
p1394
sg12
g13
sa(dp1395
g6
VIn this job, it's an apt question.
p1396
sg8
g9
sg10
VBARTLET
p1397
sg12
g9
sa(dp1398
g6
VIn this world, Mr. President.
p1399
sg8
g13
sg10
VDEBBIE
p1400
sg12
g13
sa(dp1401
g6
VWhen I came into office, we knew the word "terrorist." It was in the daily briefing. But we pictured guys with turbans in the desert or some mad survivalist in a cabin in Montana. That party's over. Now anyone with high school chemistry is a potential threat.
p1402
sg8
g23
sg10
VBARTLET
p1403
sg12
g13
sa(dp1404
g6
VThat's a lot of enemies, sir.
p1405
sg8
g9
sg10
VDEBBIE
p1406
sg12
g9
sa(dp1407
g6
VToo many.
p1408
sg8
g13
sg10
VBARTLET
p1409
sg12
g13
sa(dp1410
g6
VSince I was a kid, Spring came, everyone else ran outside to roll in the grass. Not me. My immune system sees harmless ragweed pollen as poison. My white blood cells are paranoid xenophobes. They go into full attack mode over everything - and nothing. I'm the one who suffers.
p1411
sg8
g13
sg10
VDEBBIE
p1412
sg12
g13
sa(dp1413
g6
VSo, meditation's the ticket?
p1414
sg8
g13
sg10
VBARTLET
p1415
sg12
g23
sa(dp1416
g6
VAlong with ballistic allergy shots.
p1417
sg8
g13
sg10
VDEBBIE
p1418
sg12
g13
sa(dp1419
g6
VHe won't forgive himself.
p1420
sg8
g9
sg10
VDEBBIE
p1421
sg12
g13
sa(dp1422
g6
VDid Josh know we could only send one person?
p1423
sg8
g13
sg10
VDONNA
p1424
sg12
g13
sa(dp1425
g6
VOn the CODEL? Probably.
p1426
sg8
g13
sg10
VC.J.
p1427
sg12
g13
sa(dp1428
g6
VHe said he was sending me so I could report back to him and Toby on meetings and what they were talking about.
p1429
sg8
g13
sg10
VDONNA
p1430
sg12
g13
sa(dp1431
g6
VUgh! This is carob!
p1432
sg8
g13
sg10
VC.J.
p1433
sg12
g13
sa(dp1434
g6
VI just don't know how much I can report if I'm in the copy room.
p1435
sg8
g23
sg10
VDONNA
p1436
sg12
g23
sa(dp1437
g6
VFitz is going to fill them in.
p1438
sg8
g13
sg10
VC.J.
p1439
sg12
g13
sa(dp1440
g6
VSure. I just don't know why Josh told me that... Whatever.
p1441
sg8
g13
sg10
VDONNA
p1442
sg12
g23
sa(dp1443
g6
VThe Israeli embassy is going to give you four people, so for that leg of the trip you can sit in on a couple of meetings.
p1444
sg8
g13
sg10
VC.J.
p1445
sg12
g13
sa(dp1446
g6
VReally?
p1447
sg8
g13
sg10
VDONNA
p1448
sg12
g13
sa(dp1449
g6
VMm-hmm. Page 12.
p1450
sg8
g13
sg10
VC.J.
p1451
sg12
g13
sa(dp1452
g6
VGreat. That's great.
p1453
sg8
g13
sg10
VDONNA
p1454
sg12
g13
sa(dp1455
g6
VJosh Lyman needs a smack in the head.
p1456
sg8
g23
sg10
VC.J.
p1457
sg12
g23
sa(dp1458
g6
VWhy?
p1459
sg8
g13
sg10
VDONNA
p1460
sg12
g13
sa(dp1461
g6
VHe sold you a bill of goods.
p1462
sg8
g9
sg10
VC.J.
p1463
sg12
g9
sa(dp1464
g6
VNot at all. He's gone out of his way to give me every opportunity he can.
p1465
sg8
g9
sg10
VDONNA
p1466
sg12
g13
sa(dp1467
g6
VOkay.
p1468
sg8
g13
sg10
VC.J.
p1469
sg12
g13
sa(dp1470
g6
VHasn't he?
p1471
sg8
g13
sg10
VDONNA
p1472
sg12
g23
sa(dp1473
g6
VAbsolutely.
p1474
sg8
g13
sg10
VC.J.
p1475
sg12
g13
sa(dp1476
g6
VC.J.?
p1477
sg8
g13
sg10
VDONNA
p1478
sg12
g13
sa(dp1479
g6
VIf he was giving you every opportunity, you would have grown out of this job three years ago. You can't blame him. He's never gonna find anybody else as capable.
p1480
sg8
g9
sg10
VC.J.
p1481
sg12
g13
sa(dp1482
g6
VIt's not a false alarm. It wouldn't take this long.
p1483
sg8
g23
sg10
VDONNA
p1484
sg12
g23
sa(dp1485
g6
VI wish I had filled this damn canteen.
p1486
sg8
g23
sg10
VC.J.
p1487
sg12
g23
sa(dp1488
g6
VYon know, you can't blame Josh. It's not his job to...
p1489
sg8
g13
sg10
VDONNA
p1490
sg12
g13
sa(dp1491
g6
VI don't blame Josh, it takes two of you. You choose to stay.
p1492
sg8
g23
sg10
VC.J.
p1493
sg12
g13
sa(dp1494
g6
VIt's the White House.
p1495
sg8
g13
sg10
VDONNA
p1496
sg12
g13
sa(dp1497
g6
VIt's not the White House, it's him.
p1498
sg8
g13
sg10
VC.J.
p1499
sg12
g13
sa(dp1500
g6
VOkay. I don't really want to...
p1501
sg8
g13
sg10
VDONNA
p1502
sg12
g23
sa(dp1503
g6
VWhy didn't you get a drink with the guy from the Post-Intelligencer? You knew what was on your desk, you knew what was on Josh's desk. It wouldn't wait until Monday?
p1504
sg8
g23
sg10
VC.J.
p1505
sg12
g13
sa(dp1506
g6
VWhy did you cancel your camping trip? We're going to be out of here in a few minutes, you're going home to a rerun of Lettermen. I'm sorry. I just...
p1507
sg8
g23
sg10
VDONNA
p1508
sg12
g13
sa(dp1509
g6
VYou what?
p1510
sg8
g13
sg10
VC.J.
p1511
sg12
g13
sa(dp1512
g6
VNothing.
p1513
sg8
g13
sg10
VDONNA
p1514
sg12
g13
sa(dp1515
g6
VYou what, Donna?
p1516
sg8
g13
sg10
VC.J.
p1517
sg12
g13
sa(dp1518
g6
VI think Ben's great. I think you guys are great together. I hope it works.
p1519
sg8
g9
sg10
VDONNA
p1520
sg12
g13
sa(dp1521
g6
VHave you seen us together?
p1522
sg8
g13
sg10
VC.J.
p1523
sg12
g13
sa(dp1524
g6
VNot really. [pause] What should I be doing? Instead of this?
p1525
sg8
g13
sg10
VDONNA
p1526
sg12
g13
sa(dp1527
g6
VAnything. You should... go to lectures and symposia and look for opportunities with non-profits and have one-night stands with reporters from the Post-Intelligencer and go on dates with what's-his-name from the Solicitor General's office, and anything that doesn't have to do with Josh Lyman.
p1528
sg8
g13
sg10
VC.J.
p1529
sg12
g13
sa(dp1530
g6
VWow. Okay. Let's not do this.
p1531
sg8
g13
sg10
VDONNA
p1532
sg12
g23
sa(dp1533
g6
VWhat you wrote for Russell tonight was profoundly disturbing.
p1534
sg8
g13
sg10
VTOBY
p1535
sg12
g13
sa(dp1536
g6
VBecause he upstaged the President?
p1537
sg8
g13
sg10
VWILL
p1538
sg12
g13
sa(dp1539
g6
VBecause he might win.
p1540
sg8
g13
sg10
VTOBY
p1541
sg12
g13
sa(dp1542
g6
VWhat?
p1543
sg8
g13
sg10
VWILL
p1544
sg12
g13
sa(dp1545
g6
VWho was the first person to shake his hand after the speech tonight?
p1546
sg8
g9
sg10
VTOBY
p1547
sg12
g13
sa(dp1548
g6
VI wasn't watching.
p1549
sg8
g13
sg10
VWILL
p1550
sg12
g23
sa(dp1551
g6
VOf course you were.
p1552
sg8
g13
sg10
VTOBY
p1553
sg12
g13
sa(dp1554
g6
VChuck McGill, they golf.
p1555
sg8
g13
sg10
VWILL
p1556
sg12
g9
sa(dp1557
g6
VIn a room full of 600 reporters McGill's not a golf buddy, he's Chairman of Ways and Means. You made a calculation, you positioned him brilliantly. It never for a second crossed my mind before, but if you keep this up he might win.
p1558
sg8
g9
sg10
VTOBY
p1559
sg12
g13
sa(dp1560
g6
VThanks.
p1561
sg8
g13
sg10
VWILL
p1562
sg12
g13
sa(dp1563
g6
VIt wasn't a compliment. You need to get the hell out of there. You're grooming this clown for a win and then what?
p1564
sg8
g9
sg10
VTOBY
p1565
sg12
g13
sa(dp1566
g6
VFour more years. A better prescription drug plan, maybe the educational overhaul you guys can't seem to get off the ground.
p1567
sg8
g9
sg10
VWILL
p1568
sg12
g13
sa(dp1569
g6
VWith Howdy Doody at the helm?
p1570
sg8
g13
sg10
VTOBY
p1571
sg12
g13
sa(dp1572
g6
VThis isn't a dictatorship. There are hundreds of people running this White House. The salient detail being they're all Democrats. You most of all...
p1573
sg8
g13
sg10
VWILL
p1574
sg12
g13
sa(dp1575
g6
VThere are no launch codes at my desk! At the event of what I perceive to be a threat, I can't deploy troops to invade so much as a seven-eleven. I don't care who you surround this guy with, he's going to wield a tremendous amount of power.
p1576
sg8
g13
sg10
VTOBY
p1577
sg12
g13
sa(dp1578
g6
VHe'll be fine. The Party wants a win. 60 million Democrats want...
p1579
sg8
g13
sg10
VWILL
p1580
sg12
g13
sa(dp1581
g6
VWinning is easy.
p1582
sg8
g13
sg10
VTOBY
p1583
sg12
g13
sa(dp1584
g6
VYou only hit it once, and maybe never again.
p1585
sg8
g23
sg10
VWILL
p1586
sg12
g9
sa(dp1587
g6
VBecause you back the guy who should win, not the guy who will win. I backed a man of vision, who's still hanging on to his integrity with his teeth. You're damn straight I won't win again.
p1588
sg8
g13
sg10
VTOBY
p1589
sg12
g13
sa(dp1590
g6
VThere has to be a future, Toby. Someone will take the torch. You will despise the very notion of them whoever they may be.
p1591
sg8
g13
sg10
VWILL
p1592
sg12
g13
sa(dp1593
g6
VGo find someone you can honestly respect. Groom him.
p1594
sg8
g9
sg10
VTOBY
p1595
sg12
g13
sa(dp1596
g6
VI'll comb the countryside.
p1597
sg8
g13
sg10
VWILL
p1598
sg12
g13
sa(dp1599
g6
VWe went to Hokumville, New Hampshire, to find one, yeah. Comb the countryside.
p1600
sg8
g13
sg10
VTOBY
p1601
sg12
g13
sa(dp1602
g6
VYou go. If it's so important, you go. [pause] That's what I thought.
p1603
sg8
g9
sg10
VWILL
p1604
sg12
g13
sa(dp1605
g6
VCrash is lifted. Apologies for the inconvenience.
p1606
sg8
g13
sg10
VBRODER
p1607
sg12
g13
sa(dp1608
g6
VHazmat's declaring the office clean.
p1609
sg8
g9
sg10
VBUTTERFIELD
p1610
sg12
g13
sa(dp1611
g6
VWhat's the time?
p1612
sg8
g13
sg10
VBARTLET
p1613
sg12
g13
sa(dp1614
g6
VAlmost 43 minutes, sir.
p1615
sg8
g9
sg10
VBUTTERFIELD
p1616
sg12
g9
sa(dp1617
g6
VThat's the all-clear?
p1618
sg8
g13
sg10
VGORDON
p1619
sg12
g13
sa(dp1620
g6
VYes, it is.
p1621
sg8
g13
sg10
VBUTTERFIELD
p1622
sg12
g9
sa(dp1623
g6
VGee, I finally nested.
p1624
sg8
g9
sg10
VDEBBIE
p1625
sg12
g9
sa(dp1626
g6
VYour clothes and effects will be back from the lab on Monday. The antibiotics are ready...
p1627
sg8
g9
sg10
VGORDON
p1628
sg12
g13
sa(dp1629
g6
VI'm going to have to ask you to hold off on that for just a moment.
p1630
sg8
g13
sg10
VBUTTERFIELD
p1631
sg12
g23
sa(dp1632
g6
VWhy?
p1633
sg8
g13
sg10
VGORDON
p1634
sg12
g13
sa(dp1635
g6
VI need to brief the President, then I'd like to speak to all of you in the Mural Room. If you run into anyone on the way up, we'd like you to treat this as a false alarm.
p1636
sg8
g23
sg10
VBUTTERFIELD
p1637
sg12
g13
sa(dp1638
g6
VFalse alarm.
p1639
sg8
g23
sg10
VLEO
p1640
sg12
g23
sa(dp1641
g6
VRight.
p1642
sg8
g13
sg10
VABBEY
p1643
sg12
g13
sa(dp1644
g6
VHe should be up soon.
p1645
sg8
g13
sg10
VLEO
p1646
sg12
g23
sa(dp1647
g6
VI'm on my way out.
p1648
sg8
g13
sg10
VABBEY
p1649
sg12
g23
sa(dp1650
g6
VIf this is about Jed, there must be other ways.
p1651
sg8
g13
sg10
VLEO
p1652
sg12
g13
sa(dp1653
g6
VOther ways to what?
p1654
sg8
g13
sg10
VABBEY
p1655
sg12
g13
sa(dp1656
g6
VI don't know.
p1657
sg8
g13
sg10
VLEO
p1658
sg12
g23
sa(dp1659
g6
VHe's not running again. It's about saving lives now.
p1660
sg8
g13
sg10
VABBEY
p1661
sg12
g13
sa(dp1662
g6
VOkay. If that's what it's about.
p1663
sg8
g13
sg10
VLEO
p1664
sg12
g13
sa(dp1665
g6
VSpit it out, Leo.
p1666
sg8
g13
sg10
VABBEY
p1667
sg12
g9
sa(dp1668
g6
VSomebody snaps the wrong photo of you with a junkie or somebody sees you pop a Xanax...
p1669
sg8
g23
sg10
VLEO
p1670
sg12
g13
sa(dp1671
g6
VI don't care if they do.
p1672
sg8
g13
sg10
VABBEY
p1673
sg12
g23
sa(dp1674
g6
VI never had to tell you this before. You always knew when something was over the line.
p1675
sg8
g13
sg10
VLEO
p1676
sg12
g13
sa(dp1677
g6
VI still do.
p1678
sg8
g13
sg10
VABBEY
p1679
sg12
g23
sa(dp1680
g6
VOkay, forget that. That was... that was... I'm saying, as your friend, I'm saying, as a person who had a close personal relationship with Valium for more years than I care to remember, it's dicey. It starts at "As needed". Then you need a little more.
p1681
sg8
g13
sg10
VLEO
p1682
sg12
g13
sa(dp1683
g6
VI don't have a problem. Unless having a husband who spends evenings in an underground bunker counts.
p1684
sg8
g23
sg10
VABBEY
p1685
sg12
g23
sa(dp1686
g6
VIt's hard on you.
p1687
sg8
g13
sg10
VLEO
p1688
sg12
g13
sa(dp1689
g6
VOn all of us. Do you know what this lifestyle does to the body? The minute your system senses stress it releases a hormone that constricts the blood vessels, contracts the heart muscles, stimulates the adrenal gland. You stay in this state for not a hundredth of the time that you and I have existed like this and the vessels begin to shred. The heart permanently constricts. The intestines, the immune system, shut down. Relieving those conditions is the one responsible course of action I can take. I am sorry it is not a course of action that's available to you, but if you think you're going to talk me out of it with some Valley of the Dolls cautionary tale, you have picked the wrong girl.
p1690
sg8
g9
sg10
VABBEY
p1691
sg12
g13
sa(dp1692
g6
VOkay. Do what you need to do.
p1693
sg8
g13
sg10
VLEO
p1694
sg12
g13
sa(dp1695
g6
VI'm healthy as a horse, but thank you, Dr. B.
p1696
sg8
g9
sg10
VLEO
p1697
sg12
g9
sa(dp1698
g6
VI'm not kidding.
p1699
sg8
g13
sg10
VABBEY
p1700
sg12
g23
sa(dp1701
g6
VI may not be Jack LaLane...
p1702
sg8
g13
sg10
VLEO
p1703
sg12
g13
sa(dp1704
g6
VGo see Ted Mayfield, get and EKG.
p1705
sg8
g13
sg10
VABBEY
p1706
sg12
g13
sa(dp1707
g6
VOkay.
p1708
sg8
g13
sg10
VLEO
p1709
sg12
g13
sa(dp1710
g6
VI'm mean it. I'll call and set up the appointment myself.
p1711
sg8
g13
sg10
VABBEY
p1712
sg12
g13
sa(dp1713
g6
VEnough, Abbey. I'm going to head downstairs.
p1714
sg8
g13
sg10
VLEO
p1715
sg12
g13
sa(dp1716
g6
VWe're all clear, ladies.
p1717
sg8
g13
sg10
VAGENT
p1718
sg12
g13
sa(dp1719
g6
VHallelujah.
p1720
sg8
g13
sg10
VDONNA
p1721
sg12
g13
sa(dp1722
g6
VThank you for your patience.
p1723
sg8
g9
sg10
VAGENT
p1724
sg12
g9
sa(dp1725
g6
VDo we know what happened?
p1726
sg8
g13
sg10
VC.J.
p1727
sg12
g13
sa(dp1728
g6
VFalse alarm.
p1729
sg8
g23
sg10
VAGENT
p1730
sg12
g23
sa(dp1731
g6
VI'm going to need a report from your supervisor for the briefing. Donna.
p1732
sg8
g13
sg10
VC.J.
p1733
sg12
g13
sa(dp1734
g6
VYeah?
p1735
sg8
g13
sg10
VDONNA
p1736
sg12
g13
sa(dp1737
g6
VGood night.
p1738
sg8
g13
sg10
VC.J.
p1739
sg12
g13
sa(dp1740
g6
VGood night.
p1741
sg8
g13
sg10
VDONNA
p1742
sg12
g13
sa(dp1743
g6
VHey, Commander.
p1744
sg8
g13
sg10
VJOSH
p1745
sg12
g9
sa(dp1746
g6
VWhat'd he say?
p1747
sg8
g13
sg10
VJOSH
p1748
sg12
g13
sa(dp1749
g6
VFalse alarm.
p1750
sg8
g23
sg10
VHARPER
p1751
sg12
g23
sa(dp1752
g6
VHe said that before. He didn't say anything else?
p1753
sg8
g13
sg10
VJOSH
p1754
sg12
g23
sa(dp1755
g6
VNot really.
p1756
sg8
g13
sg10
VHARPER
p1757
sg12
g23
sa(dp1758
g6
VYou just talked to him for five minutes.
p1759
sg8
g13
sg10
VJOSH
p1760
sg12
g13
sa(dp1761
g6
VHis daughter's taking ballet: she's not very good.
p1762
sg8
g9
sg10
VHARPER
p1763
sg12
g9
sa(dp1764
g6
VYou know, you're not a spy in a Ukrainian nuke lab anymore. We talk about stuff here.
p1765
sg8
g9
sg10
VJOSH
p1766
sg12
g13
sa(dp1767
g6
VOkay.
p1768
sg8
g13
sg10
VHARPER
p1769
sg12
g13
sa(dp1770
g6
VWe're going to be working together. You ought to work on the communication part. Friendly advice.
p1771
sg8
g9
sg10
VJOSH
p1772
sg12
g13
sa(dp1773
g6
VThanks.
p1774
sg8
g13
sg10
VHARPER
p1775
sg12
g13
sa(dp1776
g6
VNothing? Okay. Whatever.
p1777
sg8
g13
sg10
VJOSH
p1778
sg12
g13
sa(dp1779
g6
VYour joke.
p1780
sg8
g23
sg10
VHARPER
p1781
sg12
g13
sa(dp1782
g6
VYeah, not funny, got it.
p1783
sg8
g13
sg10
VJOSH
p1784
sg12
g9
sa(dp1785
g6
VThere's a nuclear sub's been grounded for nine months, under repair at Pearl Harbor. It's back in commission and being deployed to patrol activity around Cape Verde off the coast of Mauritania. It's crossing from the Pacific to the Atlantic right now. Through a canal in...
p1786
sg8
g13
sg10
VHARPER
p1787
sg12
g13
sa(dp1788
g6
VPanama.
p1789
sg8
g13
sg10
VJOSH
p1790
sg12
g13
sa(dp1791
g6
VDonna!
p1792
sg8
g13
sg10
VJOSH
p1793
sg12
g13
sa(dp1794
g6
VDonna!
p1795
sg8
g13
sg10
VJOSH
p1796
sg12
g13
sa(dp1797
g6
VWe beat our goal for the all-clear by more than five minutes.
p1798
sg8
g13
sg10
VBUTTERFIELD
p1799
sg12
g13
sa(dp1800
g6
VHave a seat. Where'd we fall short?
p1801
sg8
g23
sg10
VBARTLET
p1802
sg12
g13
sa(dp1803
g6
VOne channel of the ventilation system failed to deactivate. If this had been a live infection, we'd have had a contamination in the communications area...
p1804
sg8
g23
sg10
VBUTTERFIELD
p1805
sg12
g13
sa(dp1806
g6
VI'm sorry to interrupt, sir, but what in the name of all that's holy...
p1807
sg8
g9
sg10
VDEBBIE
p1808
sg12
g13
sa(dp1809
g6
VTonight's exercise was a drill.
p1810
sg8
g13
sg10
VBARTLET
p1811
sg12
g13
sa(dp1812
g6
VA drill?
p1813
sg8
g13
sg10
VDEBBIE
p1814
sg12
g13
sa(dp1815
g6
VA live drill, meaning the participants were unaware that it was a drill. Ron's agents, hazmat, and the entire medical staff were being tested. The three of us were the guinea pigs.
p1816
sg8
g13
sg10
VBARTLET
p1817
sg12
g13
sa(dp1818
g6
VOkay.
p1819
sg8
g13
sg10
VDEBBIE
p1820
sg12
g13
sa(dp1821
g6
VWe're trying to address critical holes in the security system. We're fielding threats no one's ever had to face before.
p1822
sg8
g13
sg10
VBUTTERFIELD
p1823
sg12
g13
sa(dp1824
g6
VSo, the tularemia...?
p1825
sg8
g13
sg10
VDEBBIE
p1826
sg12
g9
sa(dp1827
g6
VWas a stimulant - without harmful properties - that was planted in Charlie's recycle bin.
p1828
sg8
g23
sg10
VBUTTERFIELD
p1829
sg12
g13
sa(dp1830
g6
VWithout my knowledge.
p1831
sg8
g9
sg10
VCHARLIE
p1832
sg12
g9
sa(dp1833
g6
VYou were both participants of a top secret exercise tonight, and for the time being it's going to have to remain top secret. If I'm ever looking this in the face, I hope I've got folks beside me like the two of you.
p1834
sg8
g9
sg10
VBARTLET
p1835
sg12
g13
sa(dp1836
g6
VThank you, sir.
p1837
sg8
g9
sg10
VCHARLIE
p1838
sg12
g9
sa(dp1839
g6
VThank you, Mr. President.
p1840
sg8
g13
sg10
VDEBBIE
p1841
sg12
g13
sa(dp1842
g6
VThey didn't question it.
p1843
sg8
g9
sg10
VBUTTERFIELD
p1844
sg12
g13
sa(dp1845
g6
VI'm not surprised.
p1846
sg8
g13
sg10
VBARTLET
p1847
sg12
g23
sa(dp1848
g6
VYou didn't know it would be tonight, sir.
p1849
sg8
g9
sg10
VBUTTERFIELD
p1850
sg12
g23
sa(dp1851
g6
VI knew it when you showed up. And it was worth it if we learned something useful. Did we learn anything, Ron?
p1852
sg8
g9
sg10
VBARTLET
p1853
sg12
g13
sa(dp1854
g6
VA preliminary report will be on your desk in an hour.
p1855
sg8
g13
sg10
VBUTTERFIELD
p1856
sg12
g13
sa(dp1857
g6
VHas the FBI made any progress?
p1858
sg8
g9
sg10
VBARTLET
p1859
sg12
g9
sa(dp1860
g6
VThey have a chemist under surveillance who tried to order bacteria from the CDC. Tularemia won't get through again.
p1861
sg8
g13
sg10
VBUTTERFIELD
p1862
sg12
g13
sa(dp1863
g6
VYou're right: on a need-to-know basis, who needs to know this much.
p1864
sg8
g13
sg10
VBARTLET
p1865
sg12
g13
sa(dp1866
g6
VAh, I need a hot bath.
p1867
sg8
g9
sg10
VDEBBIE
p1868
sg12
g13
sa(dp1869
g6
VYou had a shower.
p1870
sg8
g13
sg10
VCHARLIE
p1871
sg12
g13
sa(dp1872
g6
VWhich is more than you can do at home, I guess, with your gas and electric issues...
p1873
sg8
g9
sg10
VDEBBIE
p1874
sg12
g13
sa(dp1875
g6
VRub it in.
p1876
sg8
g13
sg10
VCHARLIE
p1877
sg12
g13
sa(dp1878
g6
VGood night.
p1879
sg8
g13
sg10
VDEBBIE
p1880
sg12
g13
sa(dp1881
g6
VCan you believe another one of these?
p1882
sg8
g13
sg10
VTOBY
p1883
sg12
g13
sa(dp1884
g6
VNope.
p1885
sg8
g13
sg10
VCHARLIE
p1886
sg12
g13
sa(dp1887
g6
VAre they sticking with false alarm?
p1888
sg8
g23
sg10
VTOBY
p1889
sg12
g23
sa(dp1890
g6
VYeah.
p1891
sg8
g13
sg10
VCHARLIE
p1892
sg12
g13
sa(dp1893
g6
VThat one's getting a little old.
p1894
sg8
g13
sg10
VTOBY
p1895
sg12
g13
sa(dp1896
g6
VUh-huh.
p1897
sg8
g13
sg10
VCHARLIE
p1898
sg12
g13
sa(dp1899
g6
VGood night, gentlemen.
p1900
sg8
g13
sg10
VDEBBIE
p1901
sg12
g13
sa(dp1902
g6
VIt's me. ... Am I calling too late? ... I'm just getting out, I'm thinking Thai. ... Why, why would you be worried about me? ... Oh, yeah. True, the pollen count has been wicked.
p1903
sg8
g23
sg10
VDEBBIE
p1904
sg12
g13
sas.