(dp0
S'season'
p1
I5
sS'episode'
p2
I4
sS'script'
p3
(lp4
(dp5
S'text'
p6
VRemarkable.
p7
sS'character'
p8
VLEO
p9
sS'maxent_score'
p10
S'neutral'
p11
sa(dp12
g6
VHe's playing?
p13
sg8
VC.J.
p14
sg10
g11
sa(dp15
g6
VI don't know; it's classical piano; who can tell one from the other?
p16
sg8
VLEO
p17
sg10
g11
sa(dp18
g6
VThe President.
p19
sg8
VC.J.
p20
sg10
g11
sa(dp21
g6
VSo he claims.
p22
sg8
VLEO
p23
sg10
g11
sa(dp24
g6
VSo what's...?
p25
sg8
VC.J.
p26
sg10
g11
sa(dp27
g6
VHe's North Korean, God knows how he managed to even learn. Their music's all hymns to the barley harvest, not that they ever have one.
p28
sg8
VLEO
p29
sg10
g11
sa(dp30
g6
VTo busy reprocessing plutonium to feed anybody.
p31
sg8
VC.J.
p32
sg10
g11
sa(dp33
g6
VWhy they're a rogue state.
p34
sg8
VLEO
p35
sg10
S'negative'
p36
sa(dp37
g6
VRogue state... makes them sound bravishly charming... should be thug state; psycho state.
p38
sg8
VC.J.
p39
sg10
g11
sa(dp40
g6
VWe'll ask the UN to re-designate.
p41
sg8
VLEO
p42
sg10
g11
sa(dp43
g6
VPunk state, that's what they are, a bunch of punks.
p44
sg8
VC.J.
p45
sg10
g11
sa(dp46
g6
VBunch of punks, with what could be six nuclear warheads.
p47
sg8
VLEO
p48
sg10
g11
sa(dp49
g6
V[to waiting gaggle of press and photographers] In a minute, everyone.
p50
sg8
VC.J.
p51
sg10
g11
sa(dp52
g6
V[mumbled] Thanks C.J.
p53
sg8
VPRESS
p54
sg10
g11
sa(dp55
g6
VGood opener. Use that.
p56
sg8
VLEO
p57
sg10
g11
sa(dp58
g6
V[his words being simultaneously translated into Korean] Yeah, I took lessons for six years - hopeless. No sense of time - I could read okay and get the fingering down, but I should have been sent to rhythm prison. What I did to the 'Appassionata'; war criminals can't get near The Hague, I have to stay out of Vienna. [pause for translation] More amusing in English.
p59
sg8
VBARTLET
p60
sg10
g11
sa(dp61
g6
VMarginally.
p62
sg8
VLEO
p63
sg10
g11
sa(dp64
g6
VMy Chief of Staff Leo McGarry; C.J. Cregg, Press Secretary.
p65
sg8
VBARTLET
p66
sg10
g11
sa(dp67
g6
VWelcome.
p68
sg8
VLEO
p69
sg10
g11
sa(dp70
g6
VAn honour.
p71
sg8
VC.J.
p72
sg10
g11
sa(dp73
g6
V[speaks in Korean]
p74
sg8
VJAI
p75
sg10
g11
sa(dp76
g6
VOh, no no.
p77
sg8
VLEO
p78
sg10
g11
sa(dp79
g6
VChopsticks... a beginners piece... with an incredibly insensitive name, I'm sorry. Are we ready?
p80
sg8
VC.J.
p81
sg10
g11
sa(dp82
g6
V[to press] Okay everyone, remember pics only, no questions. Come on in.
p83
sg8
VC.J.
p84
sg10
g11
sa(dp85
g6
V[to Jai, his words being translated again] Welcome to the White House. I want to say how honoured we are to be hosting your first concert appearance here in the West. We thank the North Korean government for so generously sharing one of their national treasures, and we hope this marks just the first of many such cultural exchanges leading to improved relations between our two countries.
p86
sg8
VBARTLET
p87
sg10
g11
sa(dp88
g6
V[speaks in Korean, first calmly, then militantly]
p89
sg8
VJAI
p90
sg10
g11
sa(dp91
g6
VReally. Next time he's overseas it would be nice if Yo-Yo Ma said that. [everyone laughs, Bartlet turns to Jai] I want to thank you for the visit, we greatly look forward to tonight's concert.
p92
sg8
VBARTLET
p93
sg10
g11
sa(dp94
g6
VOkay everyone, thank you very much.
p95
sg8
VC.J.
p96
sg10
g11
sa(dp97
g6
VWill you be seeing any sights during your day here in Washington?
p98
sg8
VLEO
p99
sg10
g11
sa(dp100
g6
VUh-huh.
p101
sg8
VLEO
p102
sg10
g11
sa(dp103
g6
VCD - I will sign?
p104
sg8
VJAI
p105
sg10
g11
sa(dp106
g6
VGreat. [Jai signs a CD and hands it over to Bartlet] I'll treasure this - thank you.
p107
sg8
VBARTLET
p108
sg10
g11
sa(dp109
g6
VPleasure all mine.
p110
sg8
VJAI
p111
sg10
g11
sa(dp112
g6
V[to Bartlet] Sweet kid. [Bartlet smiles and nods]
p113
sg8
VLEO
p114
sg10
g11
sa(dp115
g6
VThe handlers are lot of laughs. Bet they can pretty much transform anyplace into their own little wall of death.
p116
sg8
VC.J.
p117
sg10
g11
sa(dp118
g6
VWhat?
p119
sg8
VLEO
p120
sg10
g11
sa(dp121
g6
VThis isn't an autograph... [shot of CD sleeve with the words 'I wish to defect' written on it] it's a message.
p122
sg8
VBARTLET
p123
sg10
g11
sa(dp124
g6
VThis is complicated.
p125
sg8
VLEO
p126
sg10
S'positive'
p127
sa(dp128
g6
VGet the Counsel's Office, Justice, NSC, State, Immigration in right away. Let's find out what we're talking about here.
p129
sg8
VBARTLET
p130
sg10
g11
sa(dp131
g6
VYes sir, but it's...
p132
sg8
VLEO
p133
sg10
g11
sa(dp134
g6
VComplicated, I know.
p135
sg8
VBARTLET
p136
sg10
g11
sa(dp137
g6
VSir, is there anything you...
p138
sg8
VC.J.
p139
sg10
g127
sa(dp140
g6
VWhen's he back in the building?
p141
sg8
VBARTLET
p142
sg10
g11
sa(dp143
g6
VRehearsal and sound check at two thirty.
p144
sg8
VC.J.
p145
sg10
g11
sa(dp146
g6
VWe behave normally, like this isn't happening.
p147
sg8
VBARTLET
p148
sg10
g36
sa(dp149
g6
VIt may not be happening.
p150
sg8
VLEO
p151
sg10
g11
sa(dp152
g6
VI don't understand...
p153
sg8
VC.J.
p154
sg10
g11
sa(dp155
g6
VWe've been in secret negotiations with North Korea in Geneva the last three weeks, about their nuclear programme.
p156
sg8
VBARTLET
p157
sg10
g11
sa(dp158
g6
VThis guy defects, everybody goes home.
p159
sg8
VLEO
p160
sg10
g127
sa(dp161
g6
VWe don't know that. Get people in, let's find out.
p162
sg8
VBARTLET
p163
sg10
g11
sa(dp164
g6
VBut we're not turning him away?
p165
sg8
VC.J.
p166
sg10
g11
sa(dp167
g6
VOf course not.
p168
sg8
VBARTLET
p169
sg10
g11
sa(dp170
g6
VIt's complicated. Thank you, Mr. President.
p171
sg8
VLEO
p172
sg10
g11
sa(dp173
g6
VThank you, sir.
p174
sg8
VC.J.
p175
sg10
g127
sa(dp176
g6
VCongressman Theo needs to come over before the VP confirmation vote.
p177
sg8
VJOSH
p178
sg10
g11
sa(dp179
g6
VWhich is noon?
p180
sg8
VDONNA
p181
sg10
g11
sa(dp182
g6
VSenate's noon; the House votes at four. Get him in after the Punch and Judy show.
p183
sg8
VJOSH
p184
sg10
g11
sa(dp185
g6
VThe citizenry would be comforted knowing that's how you refer to the President's economic advisors.
p186
sg8
VDONNA
p187
sg10
g11
sa(dp188
g6
VThe citizenry doesn't have to sit in a room with them.
p189
sg8
VJOSH
p190
sg10
g11
sa(dp191
g6
VWhy do you want Theo?
p192
sg8
VDONNA
p193
sg10
g11
sa(dp194
g6
VHe's voting against. The confirmation is going to be 534 to 1.
p195
sg8
VJOSH
p196
sg10
g11
sa(dp197
g6
VSqueaker like this, I can see why you want to squeeze him.
p198
sg8
VDONNA
p199
sg10
g11
sa(dp200
g6
VWell Theo's the only no vote, he's catch of the day for a week; gets on every talk show explaining why Russell's a lousy choice for VP.
p201
sg8
VJOSH
p202
sg10
g11
sa(dp203
g6
VWhich you agree with.
p204
sg8
VDONNA
p205
sg10
g127
sa(dp206
g6
VI don't want anybody saying out loud.
p207
sg8
VJOSH
p208
sg10
g11
sa(dp209
g6
VSorry.
p210
sg8
VDONNA
p211
sg10
g11
sa(dp212
g6
VI either have to turn him or get ten other guys to vote no.
p213
sg8
VJOSH
p214
sg10
g11
sa(dp215
g6
VSo if I tell you something could you try not to be so you about it?
p216
sg8
VDONNA
p217
sg10
g11
sa(dp218
g6
VYeah, what's going on?
p219
sg8
VJOSH
p220
sg10
g11
sa(dp221
g6
VI'm taking my Aunt and Uncle from Wisconsin, who are perfectly nice people, on a tour of the White House later today, and I'd rather not go through an entire morning of 'cheese head' jokes, which are beneath you anyway...
p222
sg8
VDONNA
p223
sg10
g11
sa(dp224
g6
VYou know what's the state bird of Wisconsin? The Munster. The state motto? Live Brie or die. It narrowly beat out you can have my wheel of Cheddar when you pry it out of my cold, dead, stinky fingers.
p225
sg8
VJOSH
p226
sg10
g11
sa(dp227
g6
VDrag about the unemployment numbers, huh?
p228
sg8
VRYAN
p229
sg10
g11
sa(dp230
g6
VYou're going to be added to them if you don't get out from behind my desk.
p231
sg8
VJOSH
p232
sg10
g11
sa(dp233
g6
VYou have an office. Don't read my memo. [Josh takes memo out of Ryan's hand]
p234
sg8
VJOSH
p235
sg10
g11
sa(dp236
g6
VI can't learn anything from you if I'm sitting across the street all day.
p237
sg8
VRYAN
p238
sg10
g11
sa(dp239
g6
VHere's a lesson - ask permission before you do stuff.
p240
sg8
VJOSH
p241
sg10
g11
sa(dp242
g6
VWhere you going?
p243
sg8
VRYAN
p244
sg10
g11
sa(dp245
g6
VMeeting with the economic advisors.
p246
sg8
VJOSH
p247
sg10
g11
sa(dp248
g6
VCan I go with you?
p249
sg8
VRYAN
p250
sg10
g11
sa(dp251
g6
VNo. That was good.
p252
sg8
VJOSH
p253
sg10
g11
sa(dp254
g6
VAltitude?
p255
sg8
VWILL
p256
sg10
g11
sa(dp257
g6
VLoftier. If I don't sound enthused, how do we expect the country to get excited about this guy?
p258
sg8
VBARTLET
p259
sg10
g11
sa(dp260
g6
VYes, sir.
p261
sg8
VWILL
p262
sg10
g127
sa(dp263
g6
VYou're not very excited about him?
p264
sg8
VBARTLET
p265
sg10
g11
sa(dp266
g6
VOh, no, I mean sure... I mean I'm not, not excited about him.
p267
sg8
VWILL
p268
sg10
g11
sa(dp269
g6
VWhat you sounded like just then, is how this reads. Let's take the equivocation out of it.
p270
sg8
VBARTLET
p271
sg10
g11
sa(dp272
g6
VYes, sir.
p273
sg8
VWILL
p274
sg10
g127
sa(dp275
g6
VOkay.
p276
sg8
VBARTLET
p277
sg10
g11
sa(dp278
g6
VThank you, Mr. President.
p279
sg8
VWILL
p280
sg10
g127
sa(dp281
g6
VYeah?
p282
sg8
VBARTLET
p283
sg10
g11
sa(dp284
g6
VSo, Will's working out?
p285
sg8
VTOBY
p286
sg10
g11
sa(dp287
g6
VSeems to be.
p288
sg8
VLEO
p289
sg10
g11
sa(dp290
g6
VThe President loved his Zoey speech.
p291
sg8
VTOBY
p292
sg10
g11
sa(dp293
g6
VWe all did.
p294
sg8
VLEO
p295
sg10
g11
sa(dp296
g6
VSo, I'm gonna start doing other things.
p297
sg8
VTOBY
p298
sg10
g11
sa(dp299
g6
VWhat other things?
p300
sg8
VLEO
p301
sg10
g11
sa(dp302
g6
V[coughs] We're drifting.
p303
sg8
VTOBY
p304
sg10
g11
sa(dp305
g6
VWe've had to deal with some stuff.
p306
sg8
VLEO
p307
sg10
g11
sa(dp308
g6
VWhich has left us kinda drifting.
p309
sg8
VTOBY
p310
sg10
g127
sa(dp311
g6
VOkay.
p312
sg8
VLEO
p313
sg10
g11
sa(dp314
g6
VWe need to refocus - get back on message.
p315
sg8
VTOBY
p316
sg10
g11
sa(dp317
g6
VOkay.
p318
sg8
VLEO
p319
sg10
g11
sa(dp320
g6
VSo I'll start with that.
p321
sg8
VTOBY
p322
sg10
g11
sa(dp323
g6
VGood.
p324
sg8
VLEO
p325
sg10
g11
sa(dp326
g6
VSince Will's working out.
p327
sg8
VTOBY
p328
sg10
g11
sa(dp329
g6
VActually, the President's not crazy about his Rose Garden draft.
p330
sg8
VLEO
p331
sg10
g11
sa(dp332
g6
VGentlemen.
p333
sg8
VLEO
p334
sg10
g11
sa(dp335
g6
VMorning everyone.
p336
sg8
VBARTLET
p337
sg10
g11
sa(dp338
g6
VWhat's the bad news?
p339
sg8
VBARTLET
p340
sg10
g11
sa(dp341
g6
VWell sir, there are some troubling indicators. ISM's still below 50, consumer confidence remains low.
p342
sg8
VLARRY
p343
sg10
g11
sa(dp344
g6
VThat's just hangover from the kidnapping.
p345
sg8
VJOSH
p346
sg10
g11
sa(dp347
g6
VThe kidnapping, the bombings...
p348
sg8
VTOBY
p349
sg10
g11
sa(dp350
g6
VSo where are we headed?
p351
sg8
VBARTLET
p352
sg10
g11
sa(dp353
g6
VSigns indicate we could be sliding toward... bagel.
p354
sg8
VLARRY
p355
sg10
g11
sa(dp356
g6
VSir, Larry doesn't need a vacation, that's the word we've agreed to use in-house to avoid using the 'r' word.
p357
sg8
VJOSH
p358
sg10
g11
sa(dp359
g6
VWhat I need is your recommendation for keeping us out... I really don't have to call it that do I?
p360
sg8
VBARTLET
p361
sg10
g11
sa(dp362
g6
VOf course not.
p363
sg8
VLEO
p364
sg10
g11
sa(dp365
g6
VFor keeping us out of er... thing.
p366
sg8
VBARTLET
p367
sg10
g11
sa(dp368
g6
VExplain that to the 1.2 million people who've just lost their jobs.
p369
sg8
VTOBY
p370
sg10
g11
sa(dp371
g6
VPhone 'em, they're home.
p372
sg8
VJOSH
p373
sg10
g36
sa(dp374
g6
VA stimulus package?
p375
sg8
VLARRY
p376
sg10
g11
sa(dp377
g6
VWhich helps not at all the bottom 40% of wage earners who don't pay income tax. We have to stop or I'm gonna start shooting people, starting with myself. I asked for a recommendation, not a debate. Wake me when there's a consensus.
p378
sg8
VBARTLET
p379
sg10
g11
sa(dp380
g6
VThank you, Mr. President.
p381
sg8
VTOBY
p382
sg10
g127
sa(dp383
g6
VThank you, sir.
p384
sg8
VJOSH
p385
sg10
g127
sa(dp386
g6
VWhat's the matter with you guys? The man's got a Nobel in this. My other meeting's here.
p387
sg8
VLEO
p388
sg10
g11
sa(dp389
g6
VGood morning.
p390
sg8
VLEO
p391
sg10
g11
sa(dp392
g6
VPlease. Thanks for coming. What do we think?
p393
sg8
VLEO
p394
sg10
g11
sa(dp395
g6
VYou don't blow a negotiation of this magnitude over some kid. I don't care if he plays Schubert with his feet.
p396
sg8
VBARROW
p397
sg10
g11
sa(dp398
g6
VIt violates international law.
p399
sg8
VMIKE
p400
sg10
g11
sa(dp401
g6
VUS law.
p402
sg8
VADVISOR
p403
sg10
g11
sa(dp404
g6
VOne thing at a time. The negotiations - they for real?
p405
sg8
VLEO
p406
sg10
g11
sa(dp407
g6
V[nods] And we're not just talking about another freeze. Hundreds more sensors installed, inspectors on the ground in (place in North Korea not identifiable).
p408
sg8
VBARROW
p409
sg10
g11
sa(dp410
g6
VThey've broken agreements before, what's different now?
p411
sg8
VLEO
p412
sg10
g11
sa(dp413
g6
VThe Chinese. They're worried that the North's nuclear programme will push Japan into finally developing the bomb. The Koreans screw around this time, they piss off the only ally they have left.
p414
sg8
VBARROW
p415
sg10
g11
sa(dp416
g6
VThis is that serious they're gonna blow it over some piano player?
p417
sg8
VLEO
p418
sg10
g11
sa(dp419
g6
VIt's the most unpredictable regime in the world. Walking out on the negotiations could be the least thing they do.
p420
sg8
VBARROW
p421
sg10
g11
sa(dp422
g6
VThey'd shell Seoul over this?
p423
sg8
VLEO
p424
sg10
g36
sa(dp425
g6
VYou wanna find out?
p426
sg8
VBARROW
p427
sg10
g11
sa(dp428
g6
VSwell and lovely, but we can't send him back. Listen very carefully - it's against the law.
p429
sg8
VMIKE
p430
sg10
g11
sa(dp431
g6
VTitle 8 of the Immigration and Nationality Act prohibits sending an alien back to his homeland if he has well-founded fear of being persecuted there.
p432
sg8
VADVISOR
p433
sg10
g11
sa(dp434
g6
VPersecuted? He's the most privileged guy in the entire country.
p435
sg8
VBARROW
p436
sg10
g11
sa(dp437
g6
VAnd since the penalty for attempted defection is death, that may just change.
p438
sg8
VADVISOR
p439
sg10
g11
sa(dp440
g6
VHe's only in jeopardy if the Koreans find out. Are you gonna tell them?
p441
sg8
VBARROW
p442
sg10
g11
sa(dp443
g6
VAll quiet. This appears locked down for now; my office is monitoring it.
p444
sg8
VC.J.
p445
sg10
g11
sa(dp446
g6
VThis gets out, it's game over.
p447
sg8
VADVISOR
p448
sg10
g11
sa(dp449
g6
VThis conversation gets out...
p450
sg8
VMIKE
p451
sg10
g11
sa(dp452
g6
VAnd we're comfortable with that?
p453
sg8
VC.J.
p454
sg10
g11
sa(dp455
g6
VWhat's your point? ADVISOR Understand, he doesn't wanna go; he has a legal right to apply for asylum.
p456
sg8
VBARROW
p457
sg10
g11
sa(dp458
g6
VCan we get back to the real world? The North Koreans are peddling their missile technology all over the Middle East, and sensors on the boarder have picked up elevated levels of Krypton 85. They are making plutonium, they can get it onto warheads, and their best customers are the people who hate us. Why are we still talking about this?
p459
sg8
VBARROW
p460
sg10
g11
sa(dp461
g6
VI don't see how we can get past the legal issues.
p462
sg8
VMIKE
p463
sg10
g11
sa(dp464
g6
VI don't see how you can send someone back to the bleakest place left on the planet after he tells you he doesn't wanna go.
p465
sg8
VC.J.
p466
sg10
g11
sa(dp467
g6
VC.J....
p468
sg8
VLEO
p469
sg10
g11
sa(dp470
g6
VIt's not that bleak; the DMZ is beautiful; it's like a nature preserve. Endangered Black-faced Spoonbills, Amur leopards...
p471
sg8
VBARROW
p472
sg10
g11
sa(dp473
g6
VWhat's your point?
p474
sg8
VC.J.
p475
sg10
g11
sa(dp476
g6
VThat I know more about this than you do.
p477
sg8
VBARROW
p478
sg10
g11
sa(dp479
g6
VThe legal issues?
p480
sg8
VLEO
p481
sg10
g11
sa(dp482
g6
VThe guy doesn't know his rights - it's a non-problem. What's a big problem is if he tells anyone else. Where is he now?
p483
sg8
VBARROW
p484
sg10
g11
sa(dp485
g6
VSightseeing, he'll be back for rehearsal at 2.30.
p486
sg8
VC.J.
p487
sg10
g11
sa(dp488
g6
VDon't let him back in the building. Well, the good news is his handlers don't let him out of their sight. Today it's like they're working for us.
p489
sg8
VBARROW
p490
sg10
g11
sa(dp491
g6
VOur very own totalitarian helpmates.
p492
sg8
VC.J.
p493
sg10
g11
sa(dp494
g6
VExcuse me a minute. C.J....
p495
sg8
VLEO
p496
sg10
g11
sa(dp497
g6
VWhat are you doing?
p498
sg8
VLEO
p499
sg10
g11
sa(dp500
g6
VDon't let him back in the building?
p501
sg8
VC.J.
p502
sg10
g11
sa(dp503
g6
VWe look at this from every angle.
p504
sg8
VLEO
p505
sg10
g11
sa(dp506
g6
VThe President said he's not sending him back.
p507
sg8
VC.J.
p508
sg10
g11
sa(dp509
g6
VMy job is to present him with options; your job at the moment is to butt out.
p510
sg8
VLEO
p511
sg10
g11
sa(dp512
g6
VWe've certainly come a long way from give me your tired, your poor. If we don't allow this defection, if we blithely exploit this young man's ignorance then I don't know who we are anymore.
p513
sg8
VC.J.
p514
sg10
g11
sa(dp515
g6
VVP intro needs to go on a prompter by 2, how you doing?
p516
sg8
VTOBY
p517
sg10
g11
sa(dp518
g6
VI have altitude sickness.
p519
sg8
VWILL
p520
sg10
g36
sa(dp521
g6
VI'm sorry?
p522
sg8
VTOBY
p523
sg10
g11
sa(dp524
g6
VThe President wants more altitude; I'm having conscience issues.
p525
sg8
VWILL
p526
sg10
g11
sa(dp527
g6
VWell I'm sure you'd have to say things you haven't meant before. You've read friends' poetry, had girlfriends.
p528
sg8
VTOBY
p529
sg10
g11
sa(dp530
g6
VI could use help.
p531
sg8
VWILL
p532
sg10
g11
sa(dp533
g6
VJust hold your nose and hype him.
p534
sg8
VTOBY
p535
sg10
g11
sa(dp536
g6
VThe President hated this. My self-confidence is down around my ankles.
p537
sg8
VWILL
p538
sg10
g11
sa(dp539
g6
VWell hitch it up, and start typing. Come on. Clackety clack.
p540
sg8
VTOBY
p541
sg10
g11
sa(dp542
g6
VYou're really not going to help me?
p543
sg8
VWILL
p544
sg10
g11
sa(dp545
g6
VI have things to do.
p546
sg8
VTOBY
p547
sg10
g11
sa(dp548
g6
VLyle.
p549
sg8
VC.J.
p550
sg10
g11
sa(dp551
g6
VThis being his first visit, can you share Jai Yung Ahn's impressions of America?
p552
sg8
VLYLE
p553
sg10
g11
sa(dp554
g6
VYou'd need to ask him, but I can tell you his impression of our buffet table seemed favourable.
p555
sg8
VC.J.
p556
sg10
g11
sa(dp557
g6
VC.J.
p558
sg8
VKATIE
p559
sg10
g11
sa(dp560
g6
VKatie.
p561
sg8
VC.J.
p562
sg10
g11
sa(dp563
g6
VIs there a concern this sort of cultural exchange confers legitimacy on the repressive North Korean regime?
p564
sg8
VKATIE
p565
sg10
g11
sa(dp566
g6
VIt's hoped exchanges like this help bring light to such places, nudging them towards more open policies in the future.
p567
sg8
VC.J.
p568
sg10
g11
sa(dp569
g6
VAnd while he's here is he free to go where he pleases?
p570
sg8
VKATIE
p571
sg10
g11
sa(dp572
g6
VWell his mother didn't want him hitting any strip clubs, but, um, as far as I know he's seeing the sights even as we speak. Yes.
p573
sg8
VC.J.
p574
sg10
g11
sa(dp575
g6
VMoving to the economy, did today's unemployment figures indicate we're moving into recession?
p576
sg8
VREPORTER
p577
sg10
g11
sa(dp578
g6
VRecession has a specific meaning; two consecutive quarters of negative growth. That's not the current situation.
p579
sg8
VC.J.
p580
sg10
g11
sa(dp581
g6
VHow would you characterise the state of the economy then?
p582
sg8
VREPORTER
p583
sg10
g11
sa(dp584
g6
VI wouldn't.
p585
sg8
VC.J.
p586
sg10
g11
sa(dp587
g6
VIf not recession, what word would the administration use? Slowdown, downturn, torpor?
p588
sg8
VREPORTER
p589
sg10
g11
sa(dp590
g6
VTorpor?
p591
sg8
VC.J.
p592
sg10
g11
sa(dp593
g6
VIt means...
p594
sg8
VREPORTER
p595
sg10
g11
sa(dp596
g6
VI know what it means, I'm feeling a little coming on now as a fatter of fact.
p597
sg8
VC.J.
p598
sg10
g11
sa(dp599
g6
VYeah?
p600
sg8
VJOSH
p601
sg10
g11
sa(dp602
g6
VCan't ditch the kid.
p603
sg8
VLEO
p604
sg10
g11
sa(dp605
g6
VLeo...
p606
sg8
VJOSH
p607
sg10
g11
sa(dp608
g6
VCan't do it Josh, I don't need his old man on my call sheet.
p609
sg8
VLEO
p610
sg10
g11
sa(dp611
g6
V[sighs] Okay.
p612
sg8
VJOSH
p613
sg10
g11
sa(dp614
g6
V[sighs] Poll numbers are down.
p615
sg8
VLEO
p616
sg10
g11
sa(dp617
g6
VWhat poll?
p618
sg8
VJOSH
p619
sg10
g11
sa(dp620
g6
VAn internal - his approval rating down eleven points.
p621
sg8
VLEO
p622
sg10
g11
sa(dp623
g6
VIt was artificially high from the kidnapping.
p624
sg8
VJOSH
p625
sg10
g11
sa(dp626
g6
VYeah.
p627
sg8
VLEO
p628
sg10
g11
sa(dp629
g6
VWe knew it wasn't gonna stay up there.
p630
sg8
VJOSH
p631
sg10
g11
sa(dp632
g6
VYeah. Where are we on Theo?
p633
sg8
VLEO
p634
sg10
g11
sa(dp635
g6
VHe's coming over.
p636
sg8
VJOSH
p637
sg10
g11
sa(dp638
g6
VHe votes against us it'll be all Theo all the time.
p639
sg8
VLEO
p640
sg10
g11
sa(dp641
g6
VSomething going on?
p642
sg8
VJOSH
p643
sg10
g11
sa(dp644
g6
VGet us Theo.
p645
sg8
VLEO
p646
sg10
g127
sa(dp647
g6
VJosh. My Aunt Barbara and Uncle Ted.
p648
sg8
VDONNA
p649
sg10
g11
sa(dp650
g6
VHi, good to meet you both. Welcome.
p651
sg8
VJOSH
p652
sg10
g11
sa(dp653
g6
VAny chance of getting them into the concert tonight?
p654
sg8
VDONNA
p655
sg10
g11
sa(dp656
g6
V[sighs] Sorry, there are Senators on the waiting list. Mostly Republicans. [Josh lets out a slight laugh and exchanges glances] You're Republicans... there's a rehearsal or something I can get you into this afternoon.
p657
sg8
VJOSH
p658
sg10
g11
sa(dp659
g6
VWonderful.
p660
sg8
VBARBARA
p661
sg10
g11
sa(dp662
g6
VDonna tells us you're meeting with the economic advisors?
p663
sg8
VTED
p664
sg10
g11
sa(dp665
g6
VNot so much meeting as fighting off slipping into a coma.
p666
sg8
VJOSH
p667
sg10
g36
sa(dp668
g6
V[laughs] Pretty dense, huh?
p669
sg8
VTED
p670
sg10
g11
sa(dp671
g6
VPlus they never agree, yet no one is remotely afflicted by doubt.
p672
sg8
VJOSH
p673
sg10
g127
sa(dp674
g6
VIt's like with diets. How there's all these different diet theories all completely contradictory, when most doctors agree that the healthiest advice is just to eat a variety of food in moderate amounts.
p675
sg8
VDONNA
p676
sg10
g11
sa(dp677
g6
VUh-huh.
p678
sg8
VJOSH
p679
sg10
g11
sa(dp680
g6
VMaybe that's the approach to take with the economists. Take from every theory in moderation.
p681
sg8
VDONNA
p682
sg10
g11
sa(dp683
g6
VYeah. Interesting. So Ted, what is it that you do?
p684
sg8
VJOSH
p685
sg10
g11
sa(dp686
g6
VI'm a sales rep for a dairy consortium.
p687
sg8
VTED
p688
sg10
g11
sa(dp689
g6
VYou mean... cheese?
p690
sg8
VJOSH
p691
sg10
g11
sa(dp692
g6
VAbsolutely.
p693
sg8
VTED
p694
sg10
g11
sa(dp695
g6
V[smirking] Well enjoy your tour. Have fun.
p696
sg8
VJOSH
p697
sg10
g11
sa(dp698
g6
VDid you know North Korea's the only country left in the world where it's impossible to access the internet? That all TVs and radios are preset before they're sold so they receive only state-controlled stations?
p699
sg8
VC.J.
p700
sg10
g11
sa(dp701
g6
VIt's a bad place.
p702
sg8
VCHARLIE
p703
sg10
g11
sa(dp704
g6
VImagine what it must be like for a musician to live in a society so completely regimented, where the only music allowed is what glorifies the state.
p705
sg8
VC.J.
p706
sg10
g11
sa(dp707
g6
VIt's amazing he'd wanna go back.
p708
sg8
VCHARLIE
p709
sg10
g11
sa(dp710
g6
VC.J.
p711
sg8
VLEO
p712
sg10
g11
sa(dp713
g6
VWe're controlling media access to Jai Yung Ahn?
p714
sg8
VBARTLET
p715
sg10
g11
sa(dp716
g6
VPool spray at the sound check, if he's still doing one.
p717
sg8
VC.J.
p718
sg10
g11
sa(dp719
g6
VNo questions.
p720
sg8
VLEO
p721
sg10
g11
sa(dp722
g6
VThe press understands the Koreans won't allow it... so, he's being allowed back in the building?
p723
sg8
VC.J.
p724
sg10
g11
sa(dp725
g6
VLeo tells me you have a strong view on this?
p726
sg8
VBARTLET
p727
sg10
g11
sa(dp728
g6
VYes sir, for one thing sending him back would seem to be illegal.
p729
sg8
VC.J.
p730
sg10
g11
sa(dp731
g6
VOur hand's not legally forced unless he tells anyone.
p732
sg8
VLEO
p733
sg10
g11
sa(dp734
g6
VHe's told us. He's asked the President of the United States for asylum. Are we saying he'd have been better off asking some cab driver?
p735
sg8
VC.J.
p736
sg10
g11
sa(dp737
g6
VYou know the rationale for sending him back.
p738
sg8
VBARTLET
p739
sg10
g11
sa(dp740
g6
VSo the Iranians don't wake up one morning and decide, hey, it's a good day to nuke Israel.
p741
sg8
VLEO
p742
sg10
g11
sa(dp743
g6
VSir, seven North Korean nuclear scientists defected through China last year, we helped pay for it. Are we saying, if this kid were more valuable to us we'd accept him?
p744
sg8
VC.J.
p745
sg10
g11
sa(dp746
g6
VIs that such an unreasonable distinction? But this isn't your real argument.
p747
sg8
VBARTLET
p748
sg10
g11
sa(dp749
g6
VSending him back will play as a disaster in the press if it ever gets out.
p750
sg8
VC.J.
p751
sg10
g11
sa(dp752
g6
V[shakes head] That's not your real argument either.
p753
sg8
VBARTLET
p754
sg10
g11
sa(dp755
g6
VNo sir, it's not. This young man's asking for freedom. It's what this country was built on; everyone's from somewhere else, some place less free. That's my argument.
p756
sg8
VC.J.
p757
sg10
g11
sa(dp758
g6
VThank you.
p759
sg8
VBARTLET
p760
sg10
g127
sa(dp761
g6
VThank you, Mr. President.
p762
sg8
VLEO
p763
sg10
g127
sa(dp764
g6
VThank you, sir.
p765
sg8
VC.J.
p766
sg10
g127
sa(dp767
g6
VWe have a meeting.
p768
sg8
VJOSH
p769
sg10
g36
sa(dp770
g6
VOutstanding.
p771
sg8
VRYAN
p772
sg10
g11
sa(dp773
g6
VOkay... you can't say things like 'outstanding' during it.
p774
sg8
VJOSH
p775
sg10
g11
sa(dp776
g6
VI was pretty sure you didn't want me saying anything at all.
p777
sg8
VRYAN
p778
sg10
g11
sa(dp779
g6
VYeah.
p780
sg8
VJOSH
p781
sg10
g11
sa(dp782
g6
VWe're meeting with?
p783
sg8
VRYAN
p784
sg10
g11
sa(dp785
g6
VCongressman Theo, Democrat from Rhode Island...
p786
sg8
VJOSH
p787
sg10
g11
sa(dp788
g6
V[at the same time as Josh] Rhode Island... he interned for my Uncle.
p789
sg8
VRYAN
p790
sg10
g11
sa(dp791
g6
VCourse he did. He's voting against Russell; I have to whip him into shape. Watch and learn.
p792
sg8
VJOSH
p793
sg10
g11
sa(dp794
g6
VYeah?
p795
sg8
VLEO
p796
sg10
g11
sa(dp797
g6
VWill's fixing the VP intro.
p798
sg8
VTOBY
p799
sg10
g11
sa(dp800
g6
VGood, since that would be his job.
p801
sg8
VLEO
p802
sg10
g11
sa(dp803
g6
VI'm not sure I was clear before.
p804
sg8
VTOBY
p805
sg10
g11
sa(dp806
g6
VWe need to get back on focus. Work up a message calendar like in the campaigns.
p807
sg8
VLEO
p808
sg10
g11
sa(dp809
g6
VLong-term. I'm talking about something else, not articulating the message; shaping it.
p810
sg8
VTOBY
p811
sg10
g11
sa(dp812
g6
VYou do shape it.
p813
sg8
VLEO
p814
sg10
g11
sa(dp815
g6
VI mean full-time.
p816
sg8
VTOBY
p817
sg10
g11
sa(dp818
g6
VYou have responsibilities.
p819
sg8
VLEO
p820
sg10
g11
sa(dp821
g6
VThat I can turn over.
p822
sg8
VTOBY
p823
sg10
g11
sa(dp824
g6
VTo Will. We should discuss it. [Toby stares at Leo] Not today.
p825
sg8
VLEO
p826
sg10
g11
sa(dp827
g6
V[sighs then smiles] Tomorrow, and tomorrow, and tomorrow.
p828
sg8
VTOBY
p829
sg10
g127
sa(dp830
g6
VYeah.
p831
sg8
VLEO
p832
sg10
g11
sa(dp833
g6
V[while leaving] We are drifting.
p834
sg8
VTOBY
p835
sg10
g127
sa(dp836
g6
VThis doesn't make any sense.
p837
sg8
VJOSH
p838
sg10
g11
sa(dp839
g6
VI don't like the guy, I'm voting against him. What doesn't make sense?
p840
sg8
VTHEO
p841
sg10
g11
sa(dp842
g6
VYou're embarrassing the President.
p843
sg8
VJOSH
p844
sg10
g11
sa(dp845
g6
V[smiles and laughs] He's got a margin of 533 votes... must have a pretty low threshold of embarrassment.
p846
sg8
VTHEO
p847
sg10
g11
sa(dp848
g6
VIt's grandstanding, Congressman. It's a cheap and easy way to get your name in the paper, only it's... gonna make you look eccentric, like some kinda goofball crank.
p849
sg8
VJOSH
p850
sg10
g11
sa(dp851
g6
VI beg your pardon.
p852
sg8
VTHEO
p853
sg10
g11
sa(dp854
g6
VYou're not embarrassing the President, you're embarrassing yourself.
p855
sg8
VJOSH
p856
sg10
g11
sa(dp857
g6
VLook...
p858
sg8
VTHEO
p859
sg10
g11
sa(dp860
g6
VDo you want the President's backing for anything you might actually want to accomplish this term? As opposed to pulling pointless little publicity stunts, you'll swallow hard whatever petty animus you bear toward the guy about to be the number two man in your party, and you will give your President what he wants. A unanimous confirmation.
p861
sg8
VJOSH
p862
sg10
g11
sa(dp863
g6
VMy petty animus is that Russell's not good enough. Which is exactly what you've been saying to each other round here ever since his name was announced. [laughs] You think I don't know how you got rolled on Berryhill, or forced to settle for this party hack? You've put someone second-rate next in line to a President with a serious health problem. You wanna talk about embarrassment? Be embarrassed about that.
p864
sg8
VTHEO
p865
sg10
g11
sa(dp866
g6
VThe North Korean's have cancelled the pool spray at the sound check.
p867
sg8
VLEO
p868
sg10
g11
sa(dp869
g6
VOkay.
p870
sg8
VC.J.
p871
sg10
g11
sa(dp872
g6
VHe doesn't like people around when he's rehearsing.
p873
sg8
VBARTLET
p874
sg10
g11
sa(dp875
g6
VSorry.
p876
sg8
VJOSH
p877
sg10
g11
sa(dp878
g6
VTalk to Theo?
p879
sg8
VLEO
p880
sg10
g11
sa(dp881
g6
VYeah, I'm gonna need a plan B.
p882
sg8
VJOSH
p883
sg10
g127
sa(dp884
g6
VThe VP intro is finished?
p885
sg8
VBARTLET
p886
sg10
g11
sa(dp887
g6
VWill's doing last touches.
p888
sg8
VTOBY
p889
sg10
g11
sa(dp890
g6
VHelp him out, will you?
p891
sg8
VBARTLET
p892
sg10
g11
sa(dp893
g6
VHe's got it handled.
p894
sg8
VTOBY
p895
sg10
g11
sa(dp896
g6
VHe was having some trouble; look it over, punch it up.
p897
sg8
VBARTLET
p898
sg10
g11
sa(dp899
g6
VYes, sir.
p900
sg8
VTOBY
p901
sg10
g127
sa(dp902
g6
VSir, something happened today at the briefing. I got questions about the economy and I felt like I was tap dancing.
p903
sg8
VC.J.
p904
sg10
g11
sa(dp905
g6
VSaw it, I thought you were fine.
p906
sg8
VLEO
p907
sg10
g11
sa(dp908
g6
VDeft. Extremely deft.
p909
sg8
VJOSH
p910
sg10
g11
sa(dp911
g6
VAs much as I appreciate your attempt to complement me out of my point, I'm starting to feel a little self-conscious about our lack of vocabulary to describe the economy.
p912
sg8
VC.J.
p913
sg10
g11
sa(dp914
g6
VDidn't she get the bagel memo?
p915
sg8
VBARTLET
p916
sg10
g11
sa(dp917
g6
VYou could argue the President's got a responsibility to do it. Setting a positive tone conceivably helps bring about positive results.
p918
sg8
VJOSH
p919
sg10
g11
sa(dp920
g6
VIt's not that I wanna don a shroud, I just think the Polly-Anna act's not wearing well. Sir, I'm worried that at some point avoidance starts to look like maybe we just haven't noticed. We run the risk of appearing out of touch, like one of those President's who doesn't know the price of milk. [Leo exchanges glances with Bartlet] Sir, do you know the price of milk?
p921
sg8
VC.J.
p922
sg10
g11
sa(dp923
g6
VNot precisely.
p924
sg8
VBARTLET
p925
sg10
g11
sa(dp926
g6
VNeither do I. Do any of us? [question is greeted with silence]
p927
sg8
VC.J.
p928
sg10
g11
sa(dp929
g6
VOkay, let's get on coming up with a language plan for talking more realistically about the economy. That session this morning with the advisors; everybody's got a magic lever they want you to push. I studied economics all my life but in this job only a fool is ever certain. You don't push any one lever; you wanna push a little on them all.
p930
sg8
VBARTLET
p931
sg10
g11
sa(dp932
g6
VFrom every theory in moderation...
p933
sg8
VJOSH
p934
sg10
g11
sa(dp935
g6
VExactly. Thank you, everyone.
p936
sg8
VBARTLET
p937
sg10
g127
sa(dp938
g6
VC.J., these negotiations are the real thing. I can't allow this defection. I know you disagree, but that's my decision.
p939
sg8
VBARTLET
p940
sg10
g11
sa(dp941
g6
VThank you, Mr. President. It's not that I disagree sir; I'm disappointed.
p942
sg8
VC.J.
p943
sg10
g11
sa(dp944
g6
VWe'll get someone from State to tell the kid.
p945
sg8
VLEO
p946
sg10
g11
sa(dp947
g6
VNo, I'll do it.
p948
sg8
VBARTLET
p949
sg10
g11
sa(dp950
g6
VSir...
p951
sg8
VLEO
p952
sg10
g11
sa(dp953
g6
VIt's my call, I tell him. She okay?
p954
sg8
VBARTLET
p955
sg10
g11
sa(dp956
g6
VI don't know.
p957
sg8
VLEO
p958
sg10
g11
sa(dp959
g6
VHey.
p960
sg8
VJOSH
p961
sg10
g11
sa(dp962
g6
VHello.
p963
sg8
VAMY
p964
sg10
g11
sa(dp965
g6
VGot my ass kicked a little bit ago by Theo.
p966
sg8
VJOSH
p967
sg10
g36
sa(dp968
g6
VThe Russell vote?
p969
sg8
VAMY
p970
sg10
g11
sa(dp971
g6
VYeah. It was in front of Richie Rich.
p972
sg8
VJOSH
p973
sg10
g11
sa(dp974
g6
VThe Pierce kid? JOSH Theo's gonna be everywhere.
p975
sg8
VAMY
p976
sg10
g11
sa(dp977
g6
VThe Republic will stand.
p978
sg8
VAMY
p979
sg10
g11
sa(dp980
g6
VI'm gonna do damage control; I'm gonna leak it that Theo wanted it.
p981
sg8
VJOSH
p982
sg10
g11
sa(dp983
g6
VThe Vice Presidency?
p984
sg8
VAMY
p985
sg10
g11
sa(dp986
g6
VYeah, make it just look like pique.
p987
sg8
VJOSH
p988
sg10
g11
sa(dp989
g6
VSecond-term Congressman from the smallest state expecting to be named VP?
p990
sg8
VAMY
p991
sg10
g11
sa(dp992
g6
V[laughing] He's really gonna seem like a crackpot.
p993
sg8
VJOSH
p994
sg10
g11
sa(dp995
g6
VGod. Don't ever get mad at me.
p996
sg8
VAMY
p997
sg10
g11
sa(dp998
g6
VI've gotten mad at you.
p999
sg8
VJOSH
p1000
sg10
g11
sa(dp1001
g6
VYeah, why it's better when we don't talk. Come by tonight, we can not talk some more.
p1002
sg8
VAMY
p1003
sg10
g11
sa(dp1004
g6
VIt's with abundant pleasure and pride...
p1005
sg8
VWILL
p1006
sg10
g11
sa(dp1007
g6
VSurpassing. More altitude.
p1008
sg8
VTOBY
p1009
sg10
g11
sa(dp1010
g6
VStill tweaking? The prompter guys needed the disc a half an hour ago.
p1011
sg8
VGINGER
p1012
sg10
g11
sa(dp1013
g6
VGo away.
p1014
sg8
VTOBY
p1015
sg10
g11
sa(dp1016
g6
VIt's with surpassing pleasure and pride blah blah blah, Robert Russell, blah blah, confirmed by overwhelming vote as befits this distinguished choice.
p1017
sg8
VWILL
p1018
sg10
g11
sa(dp1019
g6
VDistinguished?
p1020
sg8
VTOBY
p1021
sg10
g11
sa(dp1022
g6
VWanna use surpassing again?
p1023
sg8
VWILL
p1024
sg10
g11
sa(dp1025
g6
VEminent, illustrious? Problem being he's none of those things.
p1026
sg8
VTOBY
p1027
sg10
g11
sa(dp1028
g6
VThis is my problem.
p1029
sg8
VWILL
p1030
sg10
g11
sa(dp1031
g6
VNor is he estimable, laudable or someone you'd walk across the room to shake hands with.
p1032
sg8
VTOBY
p1033
sg10
g11
sa(dp1034
g6
VThe President wants altitude.
p1035
sg8
VWILL
p1036
sg10
g11
sa(dp1037
g6
VAs befits this vertiginous choice? [Toby stands up] Distinguished is as high as we go; you have to be high to go loftier. Here's what it should be. [Will beings to type] In a triumph of the middling, a nod to mediocrity, and with gorge rising, it gives me great nausea to announce Robert Russell - Bingo Bob himself - as your new Vice President.
p1038
sg8
VTOBY
p1039
sg10
g11
sa(dp1040
g6
VThis lapdog of mining interests is as dull as he is unremarkable.
p1041
sg8
VWILL
p1042
sg10
g11
sa(dp1043
g6
VAs lacklustre as he is soporific...
p1044
sg8
VTOBY
p1045
sg10
g11
sa(dp1046
g6
VGood.
p1047
sg8
VWILL
p1048
sg10
g11
sa(dp1049
g6
VThis reversion to the mean...
p1050
sg8
VTOBY
p1051
sg10
g11
sa(dp1052
g6
VThis rebuke to the exemplary...
p1053
sg8
VWILL
p1054
sg10
g11
sa(dp1055
g6
VGives hope to the millions unfavoured by the exceptional...
p1056
sg8
VTOBY
p1057
sg10
g11
sa(dp1058
g6
VYes.
p1059
sg8
VWILL
p1060
sg10
g127
sa(dp1061
g6
VThe Vice Presidency, being famously once described as not being worth a warm bucket of spit; let's now hock a big loogie for Bob Russell. Not the worst. Not the best. Just what we're stuck with.
p1062
sg8
VTOBY
p1063
sg10
g11
sa(dp1064
g6
VAmen.
p1065
sg8
VWILL
p1066
sg10
g11
sa(dp1067
g6
V[sighs] Where were we? WILL Let me get back to it. This distinguished choice...
p1068
sg8
VTOBY
p1069
sg10
g11
sa(dp1070
g6
VThis redoubtable choice. It's perfect. Nobody knows what it means.
p1071
sg8
VTOBY
p1072
sg10
g11
sa(dp1073
g6
VI love this Chopin. Fooled with it myself, but could never quite get the fingering down.
p1074
sg8
VBARTLET
p1075
sg10
g11
sa(dp1076
g6
VThe White House photographers are going to get some shots of them.
p1077
sg8
VLEO
p1078
sg10
g11
sa(dp1079
g6
VExcuse me, Leo.
p1080
sg8
VPHOTOGRAPHER
p1081
sg10
g11
sa(dp1082
g6
VOoo, we in the way? Er, you mind a minute? Please. [Leo moves the Korean handlers further away from Jai] Right here. So, how's your day been? You get to see much...
p1083
sg8
VLEO
p1084
sg10
g11
sa(dp1085
g6
VI try to stay, you arrest me?
p1086
sg8
VJAI
p1087
sg10
g11
sa(dp1088
g6
VNo.
p1089
sg8
VBARTLET
p1090
sg10
g11
sa(dp1091
g6
VYou give me back to them.
p1092
sg8
VJAI
p1093
sg10
g11
sa(dp1094
g6
V[emphatically] No. Freedom means choice. You must decide which is the most responsible course.
p1095
sg8
VBARTLET
p1096
sg10
g11
sa(dp1097
g6
VYou know Korean word 'Han'? BARTLET No. [the Korean handlers walk over the Jai and Bartlet] I could practise the fingering every day for the rest of my life, I'd never be able to play it like that.
p1098
sg8
VJAI
p1099
sg10
g11
sa(dp1100
g6
VIt is... this.
p1101
sg8
VJAI
p1102
sg10
g36
sa(dp1103
g6
VMr. President, I think we have to cancel the concert.
p1104
sg8
VBARROW
p1105
sg10
g11
sa(dp1106
g6
VNo.
p1107
sg8
VBARTLET
p1108
sg10
g11
sa(dp1109
g6
VYou don't even know if he understood you.
p1110
sg8
VLEO
p1111
sg10
g11
sa(dp1112
g6
VHis English is better than he lets on.
p1113
sg8
VBARTLET
p1114
sg10
g11
sa(dp1115
g6
VYou don't know if he understood your English, much less your meaning. You're a persuasive man Mr. President, but it helps if you're talking to someone who speaks the language.
p1116
sg8
VLEO
p1117
sg10
g11
sa(dp1118
g6
VWe're not cancelling the concert.
p1119
sg8
VBARTLET
p1120
sg10
g11
sa(dp1121
g6
VSir, you're not positive if he got it or not?
p1122
sg8
VBARROW
p1123
sg10
g11
sa(dp1124
g6
VNo.
p1125
sg8
VBARTLET
p1126
sg10
g11
sa(dp1127
g6
VThen you need to come down with some flu.
p1128
sg8
VLEO
p1129
sg10
g11
sa(dp1130
g6
VLeo...
p1131
sg8
VBARTLET
p1132
sg10
g11
sa(dp1133
g6
VOtherwise, we're putting the fate of what is potentially the most significant international agreement of this Presidency in the hands of a 23-year-old who may have only understood every fifth word of what you were saying.
p1134
sg8
VLEO
p1135
sg10
g11
sa(dp1136
g6
VWe cancel the concert it's a red flag. I told him freedom means choice; my choice is to trust in his decision.
p1137
sg8
VBARTLET
p1138
sg10
g11
sa(dp1139
g6
V[nods] Thank you, Mr. President.
p1140
sg8
VBARROW
p1141
sg10
g127
sa(dp1142
g6
VIt's a crapshoot.
p1143
sg8
VLEO
p1144
sg10
g11
sa(dp1145
g6
VThe negotiations are a crapshoot. [smiling] The whole damn job's a crapshoot.
p1146
sg8
VBARTLET
p1147
sg10
g11
sa(dp1148
g6
VTheo.
p1149
sg8
VSPEAKER
p1150
sg10
g11
sa(dp1151
g6
VAye.
p1152
sg8
VTHEO
p1153
sg10
g11
sa(dp1154
g6
VJosh, Victoria Maplin from the Post returning your call on three.
p1155
sg8
VDONNA
p1156
sg10
g11
sa(dp1157
g6
VYeah, tell her never mind.
p1158
sg8
VJOSH
p1159
sg10
g127
sa(dp1160
g6
VNice work on Theo.
p1161
sg8
VLEO
p1162
sg10
g11
sa(dp1163
g6
VYeah.
p1164
sg8
VJOSH
p1165
sg10
g11
sa(dp1166
g6
VHow'd you get him to turn?
p1167
sg8
VLEO
p1168
sg10
g11
sa(dp1169
g6
VI don't know exactly.
p1170
sg8
VJOSH
p1171
sg10
g11
sa(dp1172
g6
VMargaret, I'm going to need State again. [Leo and Josh walk into Leo's office] We have a Vice President.
p1173
sg8
VLEO
p1174
sg10
g11
sa(dp1175
g6
VAbout time.
p1176
sg8
VJOSH
p1177
sg10
g11
sa(dp1178
g6
VI might actually sleep tonight.
p1179
sg8
VLEO
p1180
sg10
g11
sa(dp1181
g6
VProbably not.
p1182
sg8
VJOSH
p1183
sg10
g11
sa(dp1184
g6
VProbably not. [smiles] See you in the Rose Garden.
p1185
sg8
VLEO
p1186
sg10
g11
sa(dp1187
g6
VOkay.
p1188
sg8
VJOSH
p1189
sg10
g11
sa(dp1190
g6
VGood afternoon. I want to welcome you all. It's with surpassing pleasure and pride that I announce that Congress, just a short time ago, voted to confirm Robert Russell as the new Vice President of these United States; confirmed by unanimous vote, as befits this redoubtable choice. In a triumph of... [Bartlet stops reading as the teleprompter is displaying the 'mediocrity' speech Will and Toby were writing earlier'] In a triumph of the meritorious, Bob Russell is someone I have come to know, trust and immeasurably respect over the past five years of our working together, as have all of us here at the White House. [Russell has noticed what the teleprompter is displaying, while Toby and Will are seen grasping what has happened] His estimable legislative record is but one facet of his laudable public service to his country. Service that now ascends to an even loftier level as he assumes his new responsibilities as Vice President. Mr. Robert Russell.
p1191
sg8
VBARTLET
p1192
sg10
g11
sa(dp1193
g6
VI'm gonna get fired.
p1194
sg8
VWILL
p1195
sg10
g11
sa(dp1196
g6
VNobody's getting fired.
p1197
sg8
VTOBY
p1198
sg10
g11
sa(dp1199
g6
VI'm the new guy I'll be made an example; put my head on a pike on the South Lawn.
p1200
sg8
VWILL
p1201
sg10
g11
sa(dp1202
g6
VYou're working out, Leo agrees, you're not gonna get fired.
p1203
sg8
VTOBY
p1204
sg10
g11
sa(dp1205
g6
VGentlemen.
p1206
sg8
VRUSSELL
p1207
sg10
g11
sa(dp1208
g6
V[sighs] Mr. Vice President, please accept...
p1209
sg8
VTOBY
p1210
sg10
g11
sa(dp1211
g6
VI'd like a copy.
p1212
sg8
VRUSSELL
p1213
sg10
g11
sa(dp1214
g6
VThere are no copies, we've shredded...
p1215
sg8
VTOBY
p1216
sg10
g11
sa(dp1217
g6
VWiped hard drives... we're considering putting out our own eyes.
p1218
sg8
VWILL
p1219
sg10
g11
sa(dp1220
g6
VFind one; send it to my office. I thought it was hilarious.
p1221
sg8
VRUSSELL
p1222
sg10
g11
sa(dp1223
g6
V[smiling] Uh, hilarious, sir?
p1224
sg8
VTOBY
p1225
sg10
g11
sa(dp1226
g6
VI know my public profile, my political persona. I'm just glad to see there's such a keen awareness of the scale of the job you've all got ahead of you. I'm part of the team now, which makes all this pretty much your problem. Good luck with it.
p1227
sg8
VRUSSELL
p1228
sg10
g11
sa(dp1229
g6
VSometimes happens that way - delayed reaction. Obviously, my little talk stayed with the good Congressman.
p1230
sg8
VJOSH
p1231
sg10
g11
sa(dp1232
g6
VYeah.
p1233
sg8
VRYAN
p1234
sg10
g11
sa(dp1235
g6
VThat's the reason you hammer hard; it's all they understand.
p1236
sg8
VJOSH
p1237
sg10
g11
sa(dp1238
g6
VIt's not really my personality, I'm more of a get more bees with honey type.
p1239
sg8
VRYAN
p1240
sg10
g11
sa(dp1241
g6
VAh, you'll learn.
p1242
sg8
VJOSH
p1243
sg10
g11
sa(dp1244
g6
VHey.
p1245
sg8
VAMY
p1246
sg10
g11
sa(dp1247
g6
VHey.
p1248
sg8
VJOSH
p1249
sg10
g11
sa(dp1250
g6
VSo what's the deal there; boyfriend girlfriend; friends with privileges?
p1251
sg8
VRYAN
p1252
sg10
g11
sa(dp1253
g6
V[not paying attention to Ryan] What?
p1254
sg8
VJOSH
p1255
sg10
g11
sa(dp1256
g6
VSomething's going on.
p1257
sg8
VRYAN
p1258
sg10
g11
sa(dp1259
g6
VYou like Chopin, Charlie?
p1260
sg8
VBARTLET
p1261
sg10
g11
sa(dp1262
g6
VIf I say I've never heard any am I going to get the life history of the guy and a shopping list?
p1263
sg8
VCHARLIE
p1264
sg10
g11
sa(dp1265
g6
VYou'll thank me one day.
p1266
sg8
VBARTLET
p1267
sg10
g11
sa(dp1268
g6
VI thank you now sir but could you hold off, I'm still working through the 14 discs of Bach you made me buy last year.
p1269
sg8
VCHARLIE
p1270
sg10
g11
sa(dp1271
g6
VThe Well-Tempered Clavier?
p1272
sg8
VBARTLET
p1273
sg10
g11
sa(dp1274
g6
VBoth books.
p1275
sg8
VCHARLIE
p1276
sg10
g11
sa(dp1277
g6
VYou know what that means?
p1278
sg8
VBARTLET
p1279
sg10
g11
sa(dp1280
g6
VYou already told me what tempered means.
p1281
sg8
VCHARLIE
p1282
sg10
g11
sa(dp1283
g6
VGood, listen, I need you to research something for me. Could you find out the price of a gallon of milk?
p1284
sg8
VBARTLET
p1285
sg10
g11
sa(dp1286
g6
V$2.69 cents. 2.89 in Georgetown and 2.54 with a coupon from the paper.
p1287
sg8
VCHARLIE
p1288
sg10
g11
sa(dp1289
g6
V[nods] Will you make sure everybody knows that tomorrow?
p1290
sg8
VBARTLET
p1291
sg10
g11
sa(dp1292
g6
VThank you for earlier.
p1293
sg8
VDONNA
p1294
sg10
g11
sa(dp1295
g6
VYou were absolutely right, they were perfectly nice people.
p1296
sg8
VJOSH
p1297
sg10
g11
sa(dp1298
g6
VI meant when I went into that whole diet economics harangue.
p1299
sg8
VDONNA
p1300
sg10
g11
sa(dp1301
g6
VThat was quite an oratorio.
p1302
sg8
VJOSH
p1303
sg10
g11
sa(dp1304
g6
VI was showing off and it was ridiculous, and you didn't make fun of me and I appreciate it.
p1305
sg8
VDONNA
p1306
sg10
g11
sa(dp1307
g6
VYou know, the President made almost the exact same basic point this afternoon.
p1308
sg8
VJOSH
p1309
sg10
g11
sa(dp1310
g6
VVery funny.
p1311
sg8
VDONNA
p1312
sg10
g11
sa(dp1313
g6
VIt's true, actually, it was uncanny.
p1314
sg8
VJOSH
p1315
sg10
g11
sa(dp1316
g6
VOh my God.
p1317
sg8
VDONNA
p1318
sg10
g11
sa(dp1319
g6
VCourse he left out the whole goofy diet part.
p1320
sg8
VJOSH
p1321
sg10
g11
sa(dp1322
g6
VDon't blow it now.
p1323
sg8
VDONNA
p1324
sg10
g11
sa(dp1325
g6
VPerfectly nice people... for residents of the only state that consider rind one of the four major food groups.
p1326
sg8
VJOSH
p1327
sg10
g11
sa(dp1328
g6
VGood, I didn't miss it.
p1329
sg8
VAMY
p1330
sg10
g11
sa(dp1331
g6
VNah, there might be 30 or 40 seconds left. [laughs] You look great.
p1332
sg8
VJOSH
p1333
sg10
g11
sa(dp1334
g6
VThanks, so do you.
p1335
sg8
VAMY
p1336
sg10
g127
sa(dp1337
g6
VEveryone looks great in a tux; chimps look great.
p1338
sg8
VJOSH
p1339
sg10
g11
sa(dp1340
g6
VWith none actually present I'll have to settle for you.
p1341
sg8
VAMY
p1342
sg10
g11
sa(dp1343
g6
VSo listen, umm, Ryan of all people asked me straight out about our relationship, and I couldn't have avoided the subject more if I had faked a stroke.
p1344
sg8
VJOSH
p1345
sg10
g11
sa(dp1346
g6
VCheeky little brat.
p1347
sg8
VAMY
p1348
sg10
g36
sa(dp1349
g6
VThat's not the point, even if I'd wanted to answer him I wouldn't have known what to say. It's like what C.J. said today about the economy; by refusing to put language to it we're trying to pretend it doesn't exist, but it's something... even if we don't know what to call it. I just think it's time to start thinking about a language plan for whatever it is we're doing too.
p1350
sg8
VJOSH
p1351
sg10
g11
sa(dp1352
g6
VBravo!
p1353
sg8
VBARTLET
p1354
sg10
g11
sa(dp1355
g6
VBravo!
p1356
sg8
VLEO
p1357
sg10
g11
sa(dp1358
g6
VLadies, gentlemen, I wish to... [Jai exchanges a longing glance with Bartlet] I wish to... thank the President, the American people for this opportunity. I wish it be start many exchanges and improve relations between our countries.
p1359
sg8
VJAI
p1360
sg10
g11
sa(dp1361
g6
VHe didn't realise what it was.
p1362
sg8
VBARTLET
p1363
sg10
g11
sa(dp1364
g6
VWhat what was, sir?
p1365
sg8
VC.J.
p1366
sg10
g11
sa(dp1367
g6
VFreedom.
p1368
sg8
VBARTLET
p1369
sg10
g11
sa(dp1370
g6
VYou could have cancelled the concert.
p1371
sg8
VC.J.
p1372
sg10
g11
sa(dp1373
g6
VThere's a Korean word, Han, I looked it up. There is no literal English translation; it's a state of mind; of soul, really. A sadness; a sadness so deep no tears will come. And yet still, there's hope.
p1374
sg8
VBARTLET
p1375
sg10
g11
sa(dp1376
g6
VGoodnight, Mr. President. [stands up]
p1377
sg8
VC.J.
p1378
sg10
g11
sa(dp1379
g6
VI got a call from Geneva 15 minutes ago. The negotiations are on hold. The North Koreans didn't like the size of everyone's flags at the table.
p1380
sg8
VBARTLET
p1381
sg10
g11
sa(dp1382
g6
V[sighs] Goodnight, sir.
p1383
sg8
VC.J.
p1384
sg10
g11
sas.