(dp0
S'season'
p1
I5
sS'episode'
p2
I9
sS'script'
p3
(lp4
(dp5
S'text'
p6
V[singing] Sleigh bells ringing and jing-jing-jingling, ding-ding-ding ding...
p7
sS'bow_score'
p8
S'neutral'
p9
sS'character'
p10
VC.J.
p11
sS'maxent_score'
p12
S'positive'
p13
sa(dp14
g6
VWhat are you doing?
p15
sg8
g9
sg10
VTOBY
p16
sg12
g9
sa(dp17
g6
VI'm holding up my tree. Isn't it nice?
p18
sg8
g13
sg10
VC.J.
p19
sg12
S'negative'
p20
sa(dp21
g6
VWhat are you doing to it?
p22
sg8
g9
sg10
VTOBY
p23
sg12
g9
sa(dp24
g6
VI'm holding it up. The stand isn't...
p25
sg8
g9
sg10
VC.J.
p26
sg12
g20
sa(dp27
g6
VThey didn't have anything smaller?
p28
sg8
g9
sg10
VTOBY
p29
sg12
g20
sa(dp30
g6
VSmaller than me is a shrub. I wanted a real tree this year.
p31
sg8
g13
sg10
VC.J.
p32
sg12
g9
sa(dp33
g6
VHmm.
p34
sg8
g9
sg10
VTOBY
p35
sg12
g9
sa(dp36
g6
VThis is fine. I just cut some of the naked gloating.
p37
sg8
g9
sg10
VTOBY
p38
sg12
g9
sa(dp39
g6
VWe restarted the government, Toby. There was a showdown at the OK Corral, and we gunned down the Clantons. We're heroes.
p40
sg8
g20
sg10
VC.J.
p41
sg12
g9
sa(dp42
g6
VAnd yet self-effacing.
p43
sg8
g9
sg10
VTOBY
p44
sg12
g13
sa(dp45
g6
V[entering] Excuse me, C.J.
p46
sg8
g9
sg10
VCAROL
p47
sg12
g20
sa(dp48
g6
VCan we get a bigger stand?
p49
sg8
g9
sg10
VC.J.
p50
sg12
g9
sa(dp51
g6
VYeah. Waterville Crier on Two wants a comment.
p52
sg8
g9
sg10
VCAROL
p53
sg12
g9
sa(dp54
g6
VNo comments for anything called the Crier, the Intelligencer or the Breeze.
p55
sg8
g9
sg10
VC.J.
p56
sg12
g9
sa(dp57
g6
VThe DEA just suspended a Waterville doctor's drug license for giving a terminal patient enough narcotics to kill her.
p58
sg8
g13
sg10
VCAROL
p59
sg12
g9
sa(dp60
g6
V[stands, still holding the tree] That's against the law. It's what the DEA does with their time.
p61
sg8
g13
sg10
VC.J.
p62
sg12
g9
sa(dp63
g6
VC.J., Waterville's in Oregon.
p64
sg8
g9
sg10
VCAROL
p65
sg12
g9
sa(dp66
g6
VAll three of our daughters in one place for Christmas. You've never seen that, have you?
p67
sg8
g9
sg10
VBARTLET
p68
sg12
g9
sa(dp69
g6
VNo, sir. I haven't.
p70
sg8
g13
sg10
VDEBBIE
p71
sg12
g20
sa(dp72
g6
V[to Abbey] She's never seen it.
p73
sg8
g9
sg10
VBARTLET
p74
sg12
g9
sa(dp75
g6
VMaybe next year.
p76
sg8
g9
sg10
VABBEY
p77
sg12
g9
sa(dp78
g6
VWhat if she quits before then? She's flighty.
p79
sg8
g9
sg10
VBARTLET
p80
sg12
g9
sa(dp81
g6
VThey'll all be here tonight. We'll be grateful for that.
p82
sg8
g13
sg10
VABBEY
p83
sg12
g9
sa(dp84
g6
VI'm grateful. But Debbie thinks one night isn't a visit so much as a pit stop.
p85
sg8
g13
sg10
VBARTLET
p86
sg12
g20
sa(dp87
g6
V[entering] Mr. President. Liz is pulling up.
p88
sg8
g9
sg10
VCHARLIE
p89
sg12
g9
sa(dp90
g6
VThank you.
p91
sg8
g9
sg10
VBARTLET
p92
sg12
g13
sa(dp93
g6
VLet's not dwell on it with the kids.
p94
sg8
g9
sg10
VABBEY
p95
sg12
g9
sa(dp96
g6
VI'm not dwelling. I think it's fine. I think we should all spend Christmas at Liz's in-laws.
p97
sg8
g9
sg10
VBARTLET
p98
sg12
g9
sa(dp99
g6
VWe're invited.
p100
sg8
g9
sg10
VABBEY
p101
sg12
g20
sa(dp102
g6
VNever again. I still have flashbacks.
p103
sg8
g9
sg10
VBARTLET
p104
sg12
g20
sa(dp105
g6
VYou didn't sit up all night with Jean sewing ducklings on all the stockings?
p106
sg8
g9
sg10
VABBEY
p107
sg12
g9
sa(dp108
g6
VGood morning sir, Mrs. Bartlet.
p109
sg8
g13
sg10
VJIM
p110
sg12
g13
sa(dp111
g6
VGood to see you, Jim.
p112
sg8
g9
sg10
VBARTLET
p113
sg12
g13
sa(dp114
g6
VWe're not doing photos now, are we?
p115
sg8
g9
sg10
VABBEY
p116
sg12
g9
sa(dp117
g6
VA couple candids. Nothing serious till the tree lighting.
p118
sg8
g13
sg10
VJIM
p119
sg12
g9
sa(dp120
g6
VYou should get a few of the dinner with the family together. I'll be there.
p121
sg8
g13
sg10
VBARTLET
p122
sg12
g9
sa(dp123
g6
VI know you will.
p124
sg8
g9
sg10
VABBEY
p125
sg12
g9
sa(dp126
g6
VI will.
p127
sg8
g9
sg10
VBARTLET
p128
sg12
g9
sa(dp129
g6
VI just don't think you should crucify Ellie for telling you she might be late.
p130
sg8
g20
sg10
VABBEY
p131
sg12
g20
sa(dp132
g6
VHow hard could it possibly be?
p133
sg8
g9
sg10
VBARTLET
p134
sg12
g20
sa(dp135
g6
VWhen there's a chance you may not make it yourself.
p136
sg8
g9
sg10
VABBEY
p137
sg12
g9
sa(dp138
g6
VI'm not asking her to stay a week. It's one meal.
p139
sg8
g9
sg10
VBARTLET
p140
sg12
g9
sa(dp141
g6
V...British Embassy on the 15th, DNC chair on the 22nd, the Uphoffs on Christmas eve.
p142
sg8
g9
sg10
VMARGARET
p143
sg12
g9
sa(dp144
g6
VDNC's a maybe. Uphoffs are a maybe.
p145
sg8
g9
sg10
VLEO
p146
sg12
g9
sa(dp147
g6
VI think we shouldn't go with maybes on the Christmas parties this year because "maybe" means I RSVP yes, and you cancel ten minutes before it starts, and I have to call and say the honored guest isn't coming, and you remain lovable Leo McGarry, and I'm the dope who couldn't accurately assess the constraints of your schedule.
p148
sg8
g9
sg10
VMARGARET
p149
sg12
g9
sa(dp150
g6
V"Hostages?" Did he just say "hostage?"
p151
sg8
g20
sg10
VLEO
p152
sg12
g9
sa(dp153
g6
VAnd by New Year's, I'm a pariah. People hexing my muffins in the mess...
p154
sg8
g20
sg10
VMARGARET
p155
sg12
g9
sa(dp156
g6
V[into phone] Leo McGarry for the Sudan desk please. [to Margaret] Get Josh on this call now.
p157
sg8
g9
sg10
VLEO
p158
sg12
g9
sa(dp159
g6
VI don't want to sit next to Doug tonight. I don't want to hear about his kayak.
p160
sg8
g9
sg10
VBARTLET
p161
sg12
g9
sa(dp162
g6
VShow up in time, you can sit wherever you like.
p163
sg8
g9
sg10
VABBEY
p164
sg12
g9
sa(dp165
g6
VTell Ellie if she's late, she has to sit next to Doug.
p166
sg8
g20
sg10
VBARTLET
p167
sg12
g9
sa(dp168
g6
VLizzie.
p169
sg8
g9
sg10
VBARTLET
p170
sg12
g9
sa(dp171
g6
V[sees Gus] Oh, there's my guy.
p172
sg8
g9
sg10
VABBEY
p173
sg12
g13
sa(dp174
g6
V[to Liz] How are you, kid?
p175
sg8
g9
sg10
VBARTLET
p176
sg12
g9
sa(dp177
g6
VHi Doug.
p178
sg8
g9
sg10
VABBEY
p179
sg12
g9
sa(dp180
g6
VHi.
p181
sg8
g9
sg10
VDOUG
p182
sg12
g9
sa(dp183
g6
VDoug.
p184
sg8
g9
sg10
VBARTLET
p185
sg12
g9
sa(dp186
g6
VHey, Jed.
p187
sg8
g9
sg10
VDOUG
p188
sg12
g9
sa(dp189
g6
VWas there a stowaway in the car? A monster?
p190
sg8
g20
sg10
VBARTLET
p191
sg12
g9
sa(dp192
g6
VI got him! I got him! Come with me.
p193
sg8
g9
sg10
VBARTLET
p194
sg12
g9
sa(dp195
g6
VLeo, we have a...
p196
sg8
g9
sg10
VC.J.
p197
sg12
g9
sa(dp198
g6
VI saw it. Hostages.
p199
sg8
g9
sg10
VLEO
p200
sg12
g20
sa(dp201
g6
VNo. The DEA.
p202
sg8
g9
sg10
VC.J.
p203
sg12
g9
sa(dp204
g6
VWhat's their problem?
p205
sg8
g20
sg10
VLEO
p206
sg12
g9
sa(dp207
g6
VWe have a hostage situation?
p208
sg8
g20
sg10
VC.J.
p209
sg12
g9
sa(dp210
g6
VYou and I have a very serious job to do tonight.
p211
sg8
g13
sg10
VBARTLET
p212
sg12
g9
sa(dp213
g6
VMr. President.
p214
sg8
g9
sg10
VLEO
p215
sg12
g9
sa(dp216
g6
VYou want to see something? [shows Bartlet something on his hand]
p217
sg8
g9
sg10
VGUS
p218
sg12
g9
sa(dp219
g6
VOh, great!
p220
sg8
g9
sg10
VBARTLET
p221
sg12
g9
sa(dp222
g6
V[quietly] Twelve relief workers in Sudan got thrown in jail. Congressman's on CNN calling them hostages.
p223
sg8
g9
sg10
VLEO
p224
sg12
g9
sa(dp225
g6
VI have a quarter with New Hampshire on it.
p226
sg8
g9
sg10
VGUS
p227
sg12
g9
sa(dp228
g6
VYou sure do. [to C.J.] You talk to State?
p229
sg8
g13
sg10
VBARTLET
p230
sg12
g9
sa(dp231
g6
VI just heard myself. I was... there's a problem at the DEA.
p232
sg8
g20
sg10
VC.J.
p233
sg12
g9
sa(dp234
g6
VHang on.
p235
sg8
g9
sg10
VBARTLET
p236
sg12
g9
sa(dp237
g6
VFive minutes ago, we were having a quiet morning. I got to take a look. I'll catch up with you in a few minutes. We've got all sorts of good stuff planned.
p238
sg8
g13
sg10
VBARTLET
p239
sg12
g9
sa(dp240
g6
V[to Gus] It's okay. We'll see him later.
p241
sg8
g9
sg10
VELIZABETH
p242
sg12
g9
sa(dp243
g6
VSudanese authorities say some of them were trying to convert the locals to Christianity, and it's Islamic law in Northern Sudan...
p244
sg8
g13
sg10
VLEO
p245
sg12
g9
sa(dp246
g6
VSo they threw the whole lot of them in jail.
p247
sg8
g20
sg10
VBARTLET
p248
sg12
g9
sa(dp249
g6
VSudan desk got a call from Congressman Richter. Two are his constituents.
p250
sg8
g9
sg10
VLEO
p251
sg12
g9
sa(dp252
g6
VSir, did you talk to the DEA yesterday?
p253
sg8
g13
sg10
VC.J.
p254
sg12
g9
sa(dp255
g6
VNo. Did State tell you about this Richter thing?
p256
sg8
g9
sg10
VBARTLET
p257
sg12
g9
sa(dp258
g6
VWell, this blew up good and fast, didn't it?
p259
sg8
g13
sg10
VBARTLET
p260
sg12
g13
sa(dp261
g6
VState's treating it like any other foreign arrest. There'll be a consular visit and a trial. Richter isn't satisfied with that.
p262
sg8
g9
sg10
VJOSH
p263
sg12
g9
sa(dp264
g6
VSudanese jail. You gotta hope someone back home's making noise.
p265
sg8
g20
sg10
VC.J.
p266
sg12
g9
sa(dp267
g6
VWere they proselytizing?
p268
sg8
g9
sg10
VBARTLET
p269
sg12
g20
sa(dp270
g6
VWe don't know. Richter says no. He spoke to a junior officer at the Sudan desk, thinks they're blowing it off so he's trying to bump it up the ladder.
p271
sg8
g9
sg10
VJOSH
p272
sg12
g20
sa(dp273
g6
V"Hostage" is a big word. Particularly at Christmas.
p274
sg8
g13
sg10
VC.J.
p275
sg12
g9
sa(dp276
g6
VAll right. Let's get him in here. What about the DEA?
p277
sg8
g9
sg10
VBARTLET
p278
sg12
g9
sa(dp279
g6
VThe DEA's coming down on a doctor in Oregon for assisting on a suicide. There's no federal jurisdiction. I don't know what they think they're doing.
p280
sg8
g9
sg10
VC.J.
p281
sg12
g9
sa(dp282
g6
VWhat do they say?
p283
sg8
g9
sg10
VBARTLET
p284
sg12
g9
sa(dp285
g6
VThey're calling it a violation of the Controlled Substances Act. The narcotic he used is federally controlled.
p286
sg8
g20
sg10
VC.J.
p287
sg12
g9
sa(dp288
g6
VSo's a handgun.
p289
sg8
g9
sg10
VTOBY
p290
sg12
g9
sa(dp291
g6
VYeah.
p292
sg8
g9
sg10
VJOSH
p293
sg12
g9
sa(dp294
g6
VDoesn't turn a shooting into a federal case.
p295
sg8
g20
sg10
VTOBY
p296
sg12
g20
sa(dp297
g6
VHe makes a point.
p298
sg8
g9
sg10
VJOSH
p299
sg12
g9
sa(dp300
g6
VWe're sure this wasn't an accident? Pay management gone awry?
p301
sg8
g20
sg10
VBARTLET
p302
sg12
g20
sa(dp303
g6
VThe doctor's not hiding his intentions. The state of Oregon says it's legal. He was assisting a terminal patient to hasten the end of her suffering.
p304
sg8
g13
sg10
VC.J.
p305
sg12
g9
sa(dp306
g6
VIt's a living.
p307
sg8
g9
sg10
VBARTLET
p308
sg12
g9
sa(dp309
g6
VWell, yes, in Oregon, it is.
p310
sg8
g9
sg10
VC.J.
p311
sg12
g13
sa(dp312
g6
VWhen's your next briefing?
p313
sg8
g9
sg10
VBARTLET
p314
sg12
g9
sa(dp315
g6
VAn hour. I was going to go...
p316
sg8
g9
sg10
VC.J.
p317
sg12
g9
sa(dp318
g6
VI don't think we comment. It's DOJ's mess. We don't want it.
p319
sg8
g20
sg10
VTOBY
p320
sg12
g20
sa(dp321
g6
VWe don't want a lot of things.
p322
sg8
g9
sg10
VC.J.
p323
sg12
g9
sa(dp324
g6
VFor four years it's been, "The President does not personally support physician assisted suicide but believes it's not a federal issue and should be resolved by the voters."
p325
sg8
g9
sg10
VTOBY
p326
sg12
g9
sa(dp327
g6
VState by state. And not by the Drug Enforcement Administration.
p328
sg8
g9
sg10
VBARTLET
p329
sg12
g9
sa(dp330
g6
VWe don't jump into the middle of a bar fight and declare our intention not to act. Let the Attorney General handle it.
p331
sg8
g9
sg10
VTOBY
p332
sg12
g9
sa(dp333
g6
VI'll sit down with the A.G.
p334
sg8
g9
sg10
VLEO
p335
sg12
g13
sa(dp336
g6
VThanks everybody.
p337
sg8
g9
sg10
VBARTLET
p338
sg12
g13
sa(dp339
g6
VThank you, sir.
p340
sg8
g13
sg10
VLEO
p341
sg12
g13
sa(dp342
g6
VDebbie, where are they?
p343
sg8
g9
sg10
VBARTLET
p344
sg12
g20
sa(dp345
g6
VOh, good.
p346
sg8
g13
sg10
VDONNA
p347
sg12
g13
sa(dp348
g6
VTalk to Debbie. We need a sit-down for Congressman Donald Richter today. And get him on the phone.
p349
sg8
g9
sg10
VJOSH
p350
sg12
g9
sa(dp351
g6
VDoug Westin's in your office.
p352
sg8
g9
sg10
VDONNA
p353
sg12
g9
sa(dp354
g6
VLiz's Doug?
p355
sg8
g9
sg10
VC.J.
p356
sg12
g9
sa(dp357
g6
VHow come he's not with his in-laws?
p358
sg8
g9
sg10
VJOSH
p359
sg12
g9
sa(dp360
g6
VThe President's introducing Gus to the Three Tenors. "Hallelujah Chorus" in the Blue Room.
p361
sg8
g9
sg10
VDONNA
p362
sg12
g9
sa(dp363
g6
VWhy's a five-year-old want to meet the Three Tenors?
p364
sg8
g9
sg10
VJOSH
p365
sg12
g9
sa(dp366
g6
VI'm pretty sure he doesn't.
p367
sg8
g13
sg10
VDONNA
p368
sg12
g20
sa(dp369
g6
VDoug's your friend.
p370
sg8
g13
sg10
VC.J.
p371
sg12
g13
sa(dp372
g6
VHe's a perfectly nice guy.
p373
sg8
g9
sg10
VJOSH
p374
sg12
g9
sa(dp375
g6
VSpeak slowly. You don't want to lose him.
p376
sg8
g20
sg10
VC.J.
p377
sg12
g9
sa(dp378
g6
VCheck it out! They're decking the halls.
p379
sg8
g9
sg10
VJOSH
p380
sg12
g9
sa(dp381
g6
VFive minutes and I'll spring you.
p382
sg8
g9
sg10
VDONNA
p383
sg12
g13
sa(dp384
g6
VDouglas!
p385
sg8
g9
sg10
VJOSH
p386
sg12
g9
sa(dp387
g6
VJosh.
p388
sg8
g9
sg10
VDOUG
p389
sg12
g9
sa(dp390
g6
VIt's good to see you.
p391
sg8
g13
sg10
VJOSH
p392
sg12
g13
sa(dp393
g6
VGood to see you. I swiped your paper.
p394
sg8
g9
sg10
VDOUG
p395
sg12
g9
sa(dp396
g6
VThat's government property. I'm gonna have to call the Feds.
p397
sg8
g20
sg10
VJOSH
p398
sg12
g20
sa(dp399
g6
VThen I better dash. See ya. [playfully attempts to run]
p400
sg8
g9
sg10
VDOUG
p401
sg12
g20
sa(dp402
g6
VCome on in.
p403
sg8
g9
sg10
VJOSH
p404
sg12
g9
sa(dp405
g6
VYou guys here for a couple days?
p406
sg8
g9
sg10
VJOSH
p407
sg12
g9
sa(dp408
g6
VNo, just tonight and tomorrow. We're going to my folks for Christmas this year. Tree-lighting seemed like the least we could do.
p409
sg8
g9
sg10
VDOUG
p410
sg12
g9
sa(dp411
g6
VNo Annie?
p412
sg8
g9
sg10
VJOSH
p413
sg12
g9
sa(dp414
g6
VSwim meet. That and she pierced her eyebrow. Thought we'd keep her off- camera till it healed.
p415
sg8
g9
sg10
VDOUG
p416
sg12
g9
sa(dp417
g6
VShe... on purpose?
p418
sg8
g9
sg10
VJOSH
p419
sg12
g13
sa(dp420
g6
VEveryday is a new set of challenges. Hey, you tracking Congressional recruitment? That still your area?
p421
sg8
g9
sg10
VDOUG
p422
sg12
g9
sa(dp423
g6
VYeah. I mean-- yeah. What's...?
p424
sg8
g9
sg10
VJOSH
p425
sg12
g20
sa(dp426
g6
VNew Hampshire, First District.
p427
sg8
g9
sg10
VDOUG
p428
sg12
g9
sa(dp429
g6
VKen Campbell.
p430
sg8
g9
sg10
VJOSH
p431
sg12
g9
sa(dp432
g6
VHe's stepping out end of this term. He's got a valve thing. If he doesn't slow down, his heart is just gonna pow-- like a balloon.
p433
sg8
g9
sg10
VDOUG
p434
sg12
g9
sa(dp435
g6
VThat's great. I mean not the-- But we'll have a good shot at the seat.
p436
sg8
g9
sg10
VJOSH
p437
sg12
g9
sa(dp438
g6
VI think so. And I think I'm the man to do it.
p439
sg8
g9
sg10
VDOUG
p440
sg12
g9
sa(dp441
g6
VTo what?
p442
sg8
g9
sg10
VJOSH
p443
sg12
g9
sa(dp444
g6
VI think with a little help from you fine people, I'm gonna be elected to the United States House of Representatives.
p445
sg8
g9
sg10
VDOUG
p446
sg12
g9
sa(dp447
g6
VThe Attorney-General.
p448
sg8
g9
sg10
VMARGARET
p449
sg12
g9
sa(dp450
g6
VMm-hmm.
p451
sg8
g9
sg10
VLEO
p452
sg12
g9
sa(dp453
g6
VAlan.
p454
sg8
g9
sg10
VLEO
p455
sg12
g9
sa(dp456
g6
VHow come I don't hear your daughters performing at the Kennedy Center till two days after?
p457
sg8
g9
sg10
VLEO
p458
sg12
g9
sa(dp459
g6
VBetween us, she was under a wig behind Aida's second elephant.
p460
sg8
g9
sg10
VALAN
p461
sg12
g9
sa(dp462
g6
VThis cowboy over at the DEA. You fire him yet?
p463
sg8
g9
sg10
VLEO
p464
sg12
g9
sa(dp465
g6
VNo.
p466
sg8
g9
sg10
VALAN
p467
sg12
g9
sa(dp468
g6
VSooner is better.
p469
sg8
g9
sg10
VLEO
p470
sg12
g13
sa(dp471
g6
VI think I've got to back up the DEA on this one. The CSA is...
p472
sg8
g9
sg10
VALAN
p473
sg12
g9
sa(dp474
g6
VThe Controlled Substances Act is about drug trafficking. It was never intended to supplant the states as regulators of medical practice.
p475
sg8
g13
sg10
VLEO
p476
sg12
g9
sa(dp477
g6
VHe had a license to dispense narcotics for legitimate medical purposes only.
p478
sg8
g13
sg10
VALAN
p479
sg12
g9
sa(dp480
g6
VThe voters of Oregon have declared the termination of life, pain and suffering to be a legitimate medical purpose, and frankly, whether they were right or wrong is none of the DEA's business. Assisted suicide should be...
p481
sg8
g20
sg10
VLEO
p482
sg12
g9
sa(dp483
g6
VIt's not "assisted" anything. It's murder.
p484
sg8
g20
sg10
VALAN
p485
sg12
g9
sa(dp486
g6
VOkay. We're done.
p487
sg8
g9
sg10
VLEO
p488
sg12
g9
sa(dp489
g6
VYou'll be hearing from the President.
p490
sg8
g20
sg10
VLEO
p491
sg12
g9
sa(dp492
g6
VThe White House interfering with a federal prosecution? You really want to walk that road?
p493
sg8
g20
sg10
VALAN
p494
sg12
g9
sa(dp495
g6
VYou're not a legislative body, Alan. There's only so many times you can pool this before the President...
p496
sg8
g13
sg10
VLEO
p497
sg12
g9
sa(dp498
g6
VWhat? Fires me?
p499
sg8
g9
sg10
VALAN
p500
sg12
g20
sa(dp501
g6
VI don't want to have this fight. [goes behind his desk] But if we do, I win.
p502
sg8
g20
sg10
VLEO
p503
sg12
g9
sa(dp504
g6
VJed Bartlet's not gonna fire me for standing on principle.
p505
sg8
g13
sg10
VALAN
p506
sg12
g9
sa(dp507
g6
VLeo.
p508
sg8
g9
sg10
VALAN
p509
sg12
g9
sa(dp510
g6
VFire him.
p511
sg8
g9
sg10
VTOBY
p512
sg12
g9
sa(dp513
g6
VThe Attorney General?
p514
sg8
g9
sg10
VC.J.
p515
sg12
g9
sa(dp516
g6
VFire him. We hired him.
p517
sg8
g9
sg10
VTOBY
p518
sg12
g9
sa(dp519
g6
VWe fire him over assisted suicide, it's 16 verses of "Grandma Got Run Over By The Bartlets" now till Easter.
p520
sg8
g20
sg10
VLEO
p521
sg12
g9
sa(dp522
g6
V"No comment" is not gonna play.
p523
sg8
g9
sg10
VC.J.
p524
sg12
g9
sa(dp525
g6
VHow about we let the VP be the front man?
p526
sg8
g9
sg10
VTOBY
p527
sg12
g9
sa(dp528
g6
VSeriously?
p529
sg8
g9
sg10
VC.J.
p530
sg12
g9
sa(dp531
g6
VWe're staring a State of the Union in the face. This is what hijacks the agenda for weeks at a time. [to Leo] This is what we talked about.
p532
sg8
g20
sg10
VTOBY
p533
sg12
g9
sa(dp534
g6
VWhat, do you need me to leave the room?
p535
sg8
g20
sg10
VC.J.
p536
sg12
g20
sa(dp537
g6
VToby's taking first chair on the State of the Union. Not just writing it.
p538
sg8
g9
sg10
VLEO
p539
sg12
g9
sa(dp540
g6
VThe agenda. That's great.
p541
sg8
g9
sg10
VC.J.
p542
sg12
g9
sa(dp543
g6
VAnd if I'm doing it, I'm doing it. This is not on the agenda.
p544
sg8
g9
sg10
VTOBY
p545
sg12
g9
sa(dp546
g6
VTalk to Will.
p547
sg8
g9
sg10
VLEO
p548
sg12
g9
sa(dp549
g6
VThank you.
p550
sg8
g9
sg10
VTOBY
p551
sg12
g13
sa(dp552
g6
VC.J.!
p553
sg8
g9
sg10
VELIZABETH
p554
sg12
g9
sa(dp555
g6
VLizzie B.
p556
sg8
g9
sg10
VC.J.
p557
sg12
g13
sa(dp558
g6
VHey.
p559
sg8
g9
sg10
VELIZABETH
p560
sg12
g9
sa(dp561
g6
VHey, listen, you're gonna get a call from an organization called The Hunger Plan. They should be fundraising for the World Food Program and instead they're developing freeze-dried peanut butter and jelly or something. I got lassoed onto the board for two years. I just retired, and I recommended you.
p562
sg8
g13
sg10
VELIZABETH
p563
sg12
g9
sa(dp564
g6
VYou didn't.
p565
sg8
g9
sg10
VC.J.
p566
sg12
g20
sa(dp567
g6
VThey get a small C-22 grant. It'd be a conflict. Just tell him you wish you wish, but you can't. It'll make him feel good just to know you were interested.
p568
sg8
g13
sg10
VELIZABETH
p569
sg12
g9
sa(dp570
g6
VThanks for the heads up.
p571
sg8
g9
sg10
VC.J.
p572
sg12
g9
sa(dp573
g6
VWe're gonna talk about UNESCO.
p574
sg8
g13
sg10
VELIZABETH
p575
sg12
g9
sa(dp576
g6
VYou going?
p577
sg8
g9
sg10
VC.J.
p578
sg12
g9
sa(dp579
g6
VYeah, and we're gonna talk about a guy named Chris Beck I want you to meet.
p580
sg8
g13
sg10
VELIZABETH
p581
sg12
g9
sa(dp582
g6
VHe from UNESCO?
p583
sg8
g9
sg10
VC.J.
p584
sg12
g13
sa(dp585
g6
VNope.
p586
sg8
g9
sg10
VELIZABETH
p587
sg12
g9
sa(dp588
g6
VDid she tell you about the walkthrough at 11:00?
p589
sg8
g9
sg10
VDEBBIE
p590
sg12
g9
sa(dp591
g6
VNo. Can you maybe handle that?
p592
sg8
g9
sg10
VC.J.
p593
sg12
g9
sa(dp594
g6
VShe asked for you.
p595
sg8
g9
sg10
VDEBBIE
p596
sg12
g13
sa(dp597
g6
VI've got a meeting. Could you tell her?
p598
sg8
g9
sg10
VC.J.
p599
sg12
g9
sa(dp600
g6
VYou can't say no to her, can you?
p601
sg8
g9
sg10
VDEBBIE
p602
sg12
g9
sa(dp603
g6
VNot really.
p604
sg8
g9
sg10
VC.J.
p605
sg12
g20
sa(dp606
g6
VI'll see you at 11:00.
p607
sg8
g9
sg10
VDEBBIE
p608
sg12
g13
sa(dp609
g6
VAny word from Ellie?
p610
sg8
g13
sg10
VDEBBIE
p611
sg12
g13
sa(dp612
g6
VShe's running an experiment on viral load reproduction, and she hopes it'll wrap up in time for the thing tonight.
p613
sg8
g9
sg10
VCHARLIE
p614
sg12
g9
sa(dp615
g6
VNo, it's a special dinner. It isn't optional.
p616
sg8
g13
sg10
VDEBBIE
p617
sg12
g13
sa(dp618
g6
VShe's a Bartlet. It's been special everyday since '62.
p619
sg8
g13
sg10
VCHARLIE
p620
sg12
g9
sa(dp621
g6
VCongressman, you start saying "hostages," things get a little out of hand.
p622
sg8
g9
sg10
VBARTLET
p623
sg12
g9
sa(dp624
g6
VMr. President.
p625
sg8
g9
sg10
VRICHTER
p626
sg12
g9
sa(dp627
g6
VSit. Hiya, Ted.
p628
sg8
g9
sg10
VBARTLET
p629
sg12
g9
sa(dp630
g6
V[gestures to the seats] Please.
p631
sg8
g9
sg10
VBARTLET
p632
sg12
g13
sa(dp633
g6
VProselytizing's punishable by death over there.
p634
sg8
g20
sg10
VRICHTER
p635
sg12
g9
sa(dp636
g6
VThey're not gonna do that. Ted spoke with the families, let them know we're waiting on a report from the consular officer. You gotta let it go through channels.
p637
sg8
g9
sg10
VBARTLET
p638
sg12
g9
sa(dp639
g6
VWe barely have an embassy in Sudan.
p640
sg8
g9
sg10
VRICHTER
p641
sg12
g9
sa(dp642
g6
VA consular from Cairo flies in whenever we have a problem. He's on the plane.
p643
sg8
g20
sg10
VTED
p644
sg12
g9
sa(dp645
g6
VThere should be a call to the prime minister.
p646
sg8
g13
sg10
VRICHTER
p647
sg12
g9
sa(dp648
g6
VState deals with thousands of these every year. Like it or not, Americans are subject to the laws of the country that they are in.
p649
sg8
g20
sg10
VTED
p650
sg12
g9
sa(dp651
g6
VThese aren't crack dealers.
p652
sg8
g20
sg10
VRICHTER
p653
sg12
g20
sa(dp654
g6
VWe don't arbitrate. We can't. Not in 193 countries with as many legal systems.
p655
sg8
g13
sg10
VBARTLET
p656
sg12
g20
sa(dp657
g6
VThey didn't break a law. They were stocking a food warehouse. It was looted as soon as they were arrested. Mr. President, these are young people who've taken a couple of years out of their lives to bring food to the poverty-stricken in a civil-war-riddled nation. Of course, they're religious. Someone asks them what it means to be a Christian, they're gonna give an answer. That is not proselytizing. The Secretary of State needs to pick up a phone.
p658
sg8
g13
sg10
VRICHTER
p659
sg12
g9
sa(dp660
g6
VSir, as soon as they know it's a Presidential priority, they will hold us up for millions.
p661
sg8
g9
sg10
VTED
p662
sg12
g9
sa(dp663
g6
VI've got 22 days of Christmas events ahead of me. I'm not sure how to explain to my district that Christians doing charitable works are in a Sudanese jail because we're too cheap to bail them out.
p664
sg8
g13
sg10
VRICHTER
p665
sg12
g9
sa(dp666
g6
VWe're expecting about 6,000 people. We're gonna switch on the lights, then there will be performances by the United States Marine band and the Louisiana Bayou Gospel Choir. And there's gonna be a troop of dancing snowmen. Men, really, dressed as snowmen. Not as scary as it sounds. Though probably deeply humiliating for the men.
p667
sg8
g20
sg10
VC.J.
p668
sg12
g9
sa(dp669
g6
VNo? Snowmen? [pause] Your mom's gonna be right back. And your grandpa will be rolling in here any second now.
p670
sg8
g9
sg10
VC.J.
p671
sg12
g9
sa(dp672
g6
VSo what did you think of the Three Tenors?
p673
sg8
g9
sg10
VC.J.
p674
sg12
g9
sa(dp675
g6
VIs Dr. McNally in her office?
p676
sg8
g9
sg10
VBARTLET
p677
sg12
g9
sa(dp678
g6
VI believe so. How about I send her in right after the tree rehearsal?
p679
sg8
g13
sg10
VDEBBIE
p680
sg12
g9
sa(dp681
g6
VCome again?
p682
sg8
g9
sg10
VBARTLET
p683
sg12
g20
sa(dp684
g6
VLiz is concerned that Gus may be overwhelmed with the cameras and the crowd and all. We're gonna practice.
p685
sg8
g9
sg10
VDEBBIE
p686
sg12
g9
sa(dp687
g6
VFlipping a switch?
p688
sg8
g9
sg10
VBARTLET
p689
sg12
g13
sa(dp690
g6
VWe're gonna show him the platform and the tree and the switch, certainly.
p691
sg8
g13
sg10
VDEBBIE
p692
sg12
g9
sa(dp693
g6
VHe'll be fine. Ellie can show him. She did it one year in New Hampshire. Ellie's not here yet?
p694
sg8
g9
sg10
VBARTLET
p695
sg12
g9
sa(dp696
g6
VA topic for another time.
p697
sg8
g9
sg10
VDEBBIE
p698
sg12
g9
sa(dp699
g6
VAll right. Push the rehearsal. I need to stop at Nancy McNally's. Is Ellie even coming?
p700
sg8
g9
sg10
VBARTLET
p701
sg12
g9
sa(dp702
g6
VShe's working on it.
p703
sg8
g13
sg10
VDEBBIE
p704
sg12
g13
sa(dp705
g6
VOne would never know that the leaders of powerful nations respond to my call on a moment's notice.
p706
sg8
g13
sg10
VBARTLET
p707
sg12
g9
sa(dp708
g6
VNot at first glance, sir, no.
p709
sg8
g13
sg10
VDEBBIE
p710
sg12
g20
sa(dp711
g6
VRussell's speaking to the American Nursing Association this week?
p712
sg8
g9
sg10
VTOBY
p713
sg12
g9
sa(dp714
g6
VYeah.
p715
sg8
g9
sg10
VWILL
p716
sg12
g9
sa(dp717
g6
VWe'd like him to do a speech insert.
p718
sg8
g13
sg10
VTOBY
p719
sg12
g9
sa(dp720
g6
VIn his first big health care speech?
p721
sg8
g13
sg10
VWILL
p722
sg12
g9
sa(dp723
g6
VIt's gonna come up in Q&A anyway. Might as well nip it in the bud.
p724
sg8
g9
sg10
VTOBY
p725
sg12
g9
sa(dp726
g6
VBy making his first speech to the medical community about assisted suicide? Are you kidding? Are you people trying to kill me?
p727
sg8
g13
sg10
VWILL
p728
sg12
g9
sa(dp729
g6
VWe're trying to make sure you can move to Oregon and kill yourself.
p730
sg8
g20
sg10
VTOBY
p731
sg12
g9
sa(dp732
g6
VHe needs to be talking about the insurance gap and prescription drugs.
p733
sg8
g20
sg10
VWILL
p734
sg12
g9
sa(dp735
g6
VWe need to place some distance between the President and...
p736
sg8
g9
sg10
VTOBY
p737
sg12
g9
sa(dp738
g6
VYou know how this thing polls? 48% of Americans consider it a right. 46% of Americans consider it morally reprehensible. It is the definition of a lose-lose issue.
p739
sg8
g9
sg10
VWILL
p740
sg12
g9
sa(dp741
g6
VThe AG's back-dooring this on a technicality. We're gonna wait till the courts knock it down, which they will. Meanwhile, he's usurping the policy prerogative of the President. We need somebody to remind the public it wasn't our decision.
p742
sg8
g9
sg10
VTOBY
p743
sg12
g9
sa(dp744
g6
VYou guys are asking me to groom a backwater congressman. I can't do that...
p745
sg8
g20
sg10
VWILL
p746
sg12
g20
sa(dp747
g6
VWe didn't ask you to groom Russell for a Presidential run. He asked you.
p748
sg8
g9
sg10
VTOBY
p749
sg12
g9
sa(dp750
g6
VHe was chosen by the President.
p751
sg8
g13
sg10
VWILL
p752
sg12
g9
sa(dp753
g6
VHe was chosen by the Republicans!
p754
sg8
g13
sg10
VTOBY
p755
sg12
g9
sa(dp756
g6
VLook, I've got a budget to finalize.
p757
sg8
g9
sg10
VWILL
p758
sg12
g9
sa(dp759
g6
VI'm sorry. I'm sure you're gonna pull a great Eliza Doolittle here.
p760
sg8
g13
sg10
VTOBY
p761
sg12
g9
sa(dp762
g6
VYour confidence is touching.
p763
sg8
g13
sg10
VWILL
p764
sg12
g9
sa(dp765
g6
VMeanwhile, if the Vice President would be so kind, in between campaign stops, could he do the President this favor?
p766
sg8
g13
sg10
VTOBY
p767
sg12
g9
sa(dp768
g6
VI'll run it by him. [goes back to his office]
p769
sg8
g9
sg10
VWILL
p770
sg12
g9
sa(dp771
g6
VIt's important that you look at the catalogues before the end of the day.
p772
sg8
g13
sg10
VDONNA
p773
sg12
g9
sa(dp774
g6
VThat's three weeks away.
p775
sg8
g9
sg10
VJOSH
p776
sg12
g9
sa(dp777
g6
VHannukah's two.
p778
sg8
g9
sg10
VDONNA
p779
sg12
g9
sa(dp780
g6
VThere's plenty of time.
p781
sg8
g9
sg10
VJOSH
p782
sg12
g13
sa(dp783
g6
VWho's in charge of shopping?
p784
sg8
g13
sg10
VDONNA
p785
sg12
g9
sa(dp786
g6
VYou are.
p787
sg8
g9
sg10
VJOSH
p788
sg12
g13
sa(dp789
g6
VThere are pages turned down with Post-its to tell you which of your relatives the gifts are for. If you're happy with the choices you should initial at the X. If you're not happy with the choices, you should remember how this goes when you try to do this yourself.
p790
sg8
g13
sg10
VDONNA
p791
sg12
g9
sa(dp792
g6
VI like the polar fleece stuff.
p793
sg8
g20
sg10
VJOSH
p794
sg12
g20
sa(dp795
g6
VWho's in charge of shopping?
p796
sg8
g13
sg10
VDONNA
p797
sg12
g9
sa(dp798
g6
VYou are.
p799
sg8
g9
sg10
VJOSH
p800
sg12
g13
sa(dp801
g6
VHey.
p802
sg8
g9
sg10
VZOEY
p803
sg12
g9
sa(dp804
g6
VHey.
p805
sg8
g9
sg10
VJOSH
p806
sg12
g9
sa(dp807
g6
VHi!
p808
sg8
g9
sg10
VDONNA
p809
sg12
g9
sa(dp810
g6
VZoey. Wow! You look fantastic.
p811
sg8
g9
sg10
VJOSH
p812
sg12
g9
sa(dp813
g6
VThanks.
p814
sg8
g9
sg10
VZOEY
p815
sg12
g9
sa(dp816
g6
VGosh, it's great to see you back.
p817
sg8
g9
sg10
VDONNA
p818
sg12
g20
sa(dp819
g6
VI'ts good to be back.
p820
sg8
g13
sg10
VZOEY
p821
sg12
g20
sa(dp822
g6
VWow, she looks great.
p823
sg8
g9
sg10
VJOSH
p824
sg12
g9
sa(dp825
g6
VLeo.
p826
sg8
g9
sg10
VJOSH
p827
sg12
g9
sa(dp828
g6
VYeah.
p829
sg8
g9
sg10
VLEO
p830
sg12
g9
sa(dp831
g6
VYou got a second?
p832
sg8
g9
sg10
VJOSH
p833
sg12
g9
sa(dp834
g6
VYeah.
p835
sg8
g9
sg10
VLEO
p836
sg12
g9
sa(dp837
g6
VAm I still on congressional recruitment, or is Angela gonna take that?
p838
sg8
g9
sg10
VJOSH
p839
sg12
g9
sa(dp840
g6
VHow about you two sit like grown-ups, and you figure it out for yourselves?
p841
sg8
g9
sg10
VLEO
p842
sg12
g9
sa(dp843
g6
VI don't care. It's just starting, so...
p844
sg8
g9
sg10
VJOSH
p845
sg12
g20
sa(dp846
g6
VYou getting calls already?
p847
sg8
g20
sg10
VLEO
p848
sg12
g20
sa(dp849
g6
VYeah. A nice young guy from New Hampshire wants to run for Campbell's seat. Married to the boss's daughter.
p850
sg8
g13
sg10
VJOSH
p851
sg12
g9
sa(dp852
g6
VFrom New Hampshire? The U.S. Congress, not the state legislature?
p853
sg8
g9
sg10
VBARTLET
p854
sg12
g9
sa(dp855
g6
VNo.
p856
sg8
g9
sg10
VJOSH
p857
sg12
g9
sa(dp858
g6
VAnd he wants an endorsement?
p859
sg8
g9
sg10
VBARTLET
p860
sg12
g9
sa(dp861
g6
VI spoke to the county chair and the D triple C. They have some doubts.
p862
sg8
g20
sg10
VJOSH
p863
sg12
g9
sa(dp864
g6
VDid you know about this thing with Lanthorp Biotech?
p865
sg8
g9
sg10
VLEO
p866
sg12
g9
sa(dp867
g6
VThey were in a nose dive. I know he tried to pull them out.
p868
sg8
g13
sg10
VBARTLET
p869
sg12
g9
sa(dp870
g6
VHe didn't.
p871
sg8
g9
sg10
VJOSH
p872
sg12
g20
sa(dp873
g6
VDNC wants to run Mitch Clark. He's been on the state legislature three terms. He's got ideas. He's a deal-maker. This has been a Republican seat a couple of terms. The party doesn't want to risk it with anybody untried.
p874
sg8
g20
sg10
VLEO
p875
sg12
g9
sa(dp876
g6
VEven with our endorsement, he may not make it to the primary.
p877
sg8
g13
sg10
VJOSH
p878
sg12
g9
sa(dp879
g6
VThen everybody looks like an idiot.
p880
sg8
g20
sg10
VLEO
p881
sg12
g20
sa(dp882
g6
VI'll talk to him.
p883
sg8
g13
sg10
VBARTLET
p884
sg12
g9
sa(dp885
g6
VI can talk to him, sir.
p886
sg8
g13
sg10
VJOSH
p887
sg12
g9
sa(dp888
g6
VNo, I'll do it.
p889
sg8
g9
sg10
VBARTLET
p890
sg12
g20
sa(dp891
g6
VMr. President, he went to Josh, asked his opinion. You got to respect that. Let Josh take care of it.
p892
sg8
g13
sg10
VLEO
p893
sg12
g9
sa(dp894
g6
VI, uh... I spoke to the Vice President about the assisted suicide thing. He's not comfortable getting into it.
p895
sg8
g20
sg10
VWILL
p896
sg12
g9
sa(dp897
g6
VI asked you what? Ten minutes ago?
p898
sg8
g9
sg10
VTOBY
p899
sg12
g9
sa(dp900
g6
VI'm a bigwig over there. I don't have to make an appointment.
p901
sg8
g9
sg10
VWILL
p902
sg12
g20
sa(dp903
g6
VYou found him, brought it up, carefully considered, then decided I can go stuff it?
p904
sg8
g13
sg10
VTOBY
p905
sg12
g13
sa(dp906
g6
VHe agreed with my analysis that death plays poorly at Christmas. [sits]
p907
sg8
g20
sg10
VWILL
p908
sg12
g9
sa(dp909
g6
VDid you even take it to him? Or just walk around the block and come back with your 'no'?
p910
sg8
g9
sg10
VTOBY
p911
sg12
g9
sa(dp912
g6
VI sent your case.
p913
sg8
g20
sg10
VWILL
p914
sg12
g20
sa(dp915
g6
V[nods] I should've sent a card.
p916
sg8
g9
sg10
VTOBY
p917
sg12
g20
sa(dp918
g6
VI'm not your man in the VP's office, Toby. It can't work like that.
p919
sg8
g9
sg10
VWILL
p920
sg12
g9
sa(dp921
g6
VI know who you are. You're the guy we pulled out of Botox Babylon out there, brought to work for the President.
p922
sg8
g9
sg10
VTOBY
p923
sg12
g9
sa(dp924
g6
VI work for somebody else now. I don't want this to be acrimonious.
p925
sg8
g9
sg10
VWILL
p926
sg12
g20
sa(dp927
g6
VNo, you certainly don't.
p928
sg8
g9
sg10
VTOBY
p929
sg12
g20
sa(dp930
g6
VThe President will take it to the Vice President.
p931
sg8
g9
sg10
VTOBY
p932
sg12
g9
sa(dp933
g6
VOkay.
p934
sg8
g9
sg10
VWILL
p935
sg12
g9
sa(dp936
g6
VDid you see the clips Carol dropped off? The Jackson Clarion-Ledger says, "Attorney General Cracks Down On Doc Peddling Death."
p937
sg8
g9
sg10
VC.J.
p938
sg12
g9
sa(dp939
g6
VCatchy.
p940
sg8
g9
sg10
VTOBY
p941
sg12
g9
sa(dp942
g6
VNobody but the locals in Oregon had picked it up yet, except the Jackson Clarion-Ledger.
p943
sg8
g9
sg10
VC.J.
p944
sg12
g9
sa(dp945
g6
VJackson, Mississippi?
p946
sg8
g9
sg10
VTOBY
p947
sg12
g9
sa(dp948
g6
VHome of the steamboat, the mud pie, and Attorney General Alan Fisk. He's talked about running for governor.
p949
sg8
g20
sg10
VC.J.
p950
sg12
g9
sa(dp951
g6
VThe AG?
p952
sg8
g9
sg10
VTOBY
p953
sg12
g9
sa(dp954
g6
V[sits] Is the Vice President going to...?
p955
sg8
g9
sg10
VC.J.
p956
sg12
g9
sa(dp957
g6
VI'm working on it.
p958
sg8
g13
sg10
VTOBY
p959
sg12
g20
sa(dp960
g6
V'Cause I've been thinking maybe it's time we get back into this.
p961
sg8
g9
sg10
VC.J.
p962
sg12
g9
sa(dp963
g6
VWe thought it through the first time.
p964
sg8
g9
sg10
VTOBY
p965
sg12
g9
sa(dp966
g6
VFive years ago.
p967
sg8
g9
sg10
VC.J.
p968
sg12
g9
sa(dp969
g6
VAnd Oregon hasn't worked out all the kinks.
p970
sg8
g9
sg10
VTOBY
p971
sg12
g9
sa(dp972
g6
VThe number of suicides among the terminally ill has gone down since they passed it.
p973
sg8
g20
sg10
VC.J.
p974
sg12
g9
sa(dp975
g6
VA policy of non-intervention...
p976
sg8
g9
sg10
VTOBY
p977
sg12
g9
sa(dp978
g6
V...is a little lame when there's a 14th amendment violation in the offing.
p979
sg8
g20
sg10
VC.J.
p980
sg12
g9
sa(dp981
g6
VWe have no Constitutional right to die. Refuse treatment, yeah, but...
p982
sg8
g20
sg10
VTOBY
p983
sg12
g9
sa(dp984
g6
VThe framers never considered the notion of degenerative death, an event which is entirely the creation of modern medicine. We have a right not to reach the end of life in unendurable suffering and agony.
p985
sg8
g20
sg10
VC.J.
p986
sg12
g9
sa(dp987
g6
VWe're not stopping anybody from squirreling away 50 Seconal in a nightstand and washing it down with a bottle of vodka.
p988
sg8
g9
sg10
VTOBY
p989
sg12
g9
sa(dp990
g6
VIn order to down the 50 Seconal, you have to have control of both the muscles in the hand and the muscles of the esophagus. This is an opportunity, and we're dodging it.
p991
sg8
g13
sg10
VC.J.
p992
sg12
g9
sa(dp993
g6
VC.J., how's your dad?
p994
sg8
g9
sg10
VTOBY
p995
sg12
g9
sa(dp996
g6
VHe's in the hospital. I don't know. I don't know... if he knows the difference.
p997
sg8
g9
sg10
VC.J.
p998
sg12
g9
sa(dp999
g6
VGus has a glove in here somewhere. I know I packed it.
p1000
sg8
g9
sg10
VDOUG
p1001
sg12
g9
sa(dp1002
g6
VHe's hitting already?
p1003
sg8
g9
sg10
VJOSH
p1004
sg12
g20
sa(dp1005
g6
VOh, like a pro. He can't catch to save his life, but he can swing, boy.
p1006
sg8
g9
sg10
VDOUG
p1007
sg12
g9
sa(dp1008
g6
VThat's great. So, New Hampshire, First District.
p1009
sg8
g9
sg10
VJOSH
p1010
sg12
g9
sa(dp1011
g6
VYeah. What you got?
p1012
sg8
g9
sg10
VDOUG
p1013
sg12
g13
sa(dp1014
g6
VYou know a guy named Mitchell Clark?
p1015
sg8
g9
sg10
VJOSH
p1016
sg12
g9
sa(dp1017
g6
VSure. Voted for him a couple, three times.
p1018
sg8
g9
sg10
VDOUG
p1019
sg12
g9
sa(dp1020
g6
VThe DNC seems to think he's got a chance for Campbell's seat.
p1021
sg8
g9
sg10
VJOSH
p1022
sg12
g9
sa(dp1023
g6
VAnyone's got a chance. It's a moderate district. It's poachable.
p1024
sg8
g13
sg10
VDOUG
p1025
sg12
g9
sa(dp1026
g6
VNo question. We have a shot, but the party, they're... reticent...
p1027
sg8
g20
sg10
VJOSH
p1028
sg12
g9
sa(dp1029
g6
VIt's a nepotism thing, isn't it?
p1030
sg8
g20
sg10
VDOUG
p1031
sg12
g9
sa(dp1032
g6
VThat could be part of it.
p1033
sg8
g9
sg10
VJOSH
p1034
sg12
g9
sa(dp1035
g6
VLook, it's gonna come up, and it's gonna pass. I mean if the worst thing they can say about me is that I'm Jed Bartlet's son-in-law. Once the public gets to know me as an individual, it's an entirely different race.
p1036
sg8
g13
sg10
VDOUG
p1037
sg12
g9
sa(dp1038
g6
VWhat about state legislature? It's the place to learn. The President started there...
p1039
sg8
g13
sg10
VJOSH
p1040
sg12
g9
sa(dp1041
g6
VCome on. I run while Jed's in office, I've got a leg up like no two terms, six terms as a state legislature's ever gonna give me. What kind of fool is gonna let a moment like that sail by?
p1042
sg8
g9
sg10
VDOUG
p1043
sg12
g9
sa(dp1044
g6
VI don't know.
p1045
sg8
g9
sg10
VJOSH
p1046
sg12
g20
sa(dp1047
g6
VHere we go. Is that the greatest thing you ever saw? Can't even get my thumb in there.
p1048
sg8
g9
sg10
VDOUG
p1049
sg12
g9
sa(dp1050
g6
VYeah.
p1051
sg8
g9
sg10
VJOSH
p1052
sg12
g9
sa(dp1053
g6
VLook, I really appreciate your concern, I do, but it's gonna be fine. I'm a winner, buddy. I'm gonna win this.
p1054
sg8
g13
sg10
VDOUG
p1055
sg12
g9
sa(dp1056
g6
VHi, Toby.
p1057
sg8
g9
sg10
VZOEY
p1058
sg12
g13
sa(dp1059
g6
VHi. You back to stay?
p1060
sg8
g9
sg10
VTOBY
p1061
sg12
g9
sa(dp1062
g6
VNah. I'm liking New Hampshire.
p1063
sg8
g13
sg10
VZOEY
p1064
sg12
g9
sa(dp1065
g6
V[to Toby] You can go in.
p1066
sg8
g9
sg10
VCHARLIE
p1067
sg12
g9
sa(dp1068
g6
VYou look, uh... great.
p1069
sg8
g9
sg10
VTOBY
p1070
sg12
g9
sa(dp1071
g6
VThanks. Good to see you, Toby.
p1072
sg8
g9
sg10
VZOEY
p1073
sg12
g13
sa(dp1074
g6
VPeople making a fuss?
p1075
sg8
g20
sg10
VCHARLIE
p1076
sg12
g20
sa(dp1077
g6
VYeah.
p1078
sg8
g9
sg10
VZOEY
p1079
sg12
g9
sa(dp1080
g6
VYou don't look that good.
p1081
sg8
g13
sg10
VCHARLIE
p1082
sg12
g9
sa(dp1083
g6
VI was hoping you could speak to the Vice President. Ask him to do some talking for us on the right-to-die situation.
p1084
sg8
g9
sg10
VTOBY
p1085
sg12
g9
sa(dp1086
g6
VYeah. He said Will brought it up.
p1087
sg8
g9
sg10
VBARTLET
p1088
sg12
g9
sa(dp1089
g6
VYou already discussed it?
p1090
sg8
g9
sg10
VTOBY
p1091
sg12
g9
sa(dp1092
g6
VThat's not gonna work. Leo's hoping the Attorney General will back down. If not, C.J. puts it in the Christmas Eve briefing, restates our position, it's gone by Boxing Day.
p1093
sg8
g9
sg10
VBARTLET
p1094
sg12
g9
sa(dp1095
g6
VWe just had a huge victory, and we're looking at a month of Christmas carols, and the official ornament from the State of South Dakota. The press is itching for a story with blood in it...
p1096
sg8
g13
sg10
VTOBY
p1097
sg12
g9
sa(dp1098
g6
VThe court will stop him. There's no way...
p1099
sg8
g9
sg10
VBARTLET
p1100
sg12
g9
sa(dp1101
g6
VOne in five patients requesting aid in dying has MS. One in five. Do you know what the questions sound like?
p1102
sg8
g9
sg10
VTOBY
p1103
sg12
g9
sa(dp1104
g6
VI've got a pretty good idea.
p1105
sg8
g13
sg10
VBARTLET
p1106
sg12
g20
sa(dp1107
g6
V"How long does the President think he has before his MS will become debilitating?" "Do the doctors anticipate a speedy decline?" "Does he have a plan?" "Does the First Lady have four glass vials and a syringe in a lock box in the night stand?"
p1108
sg8
g9
sg10
VTOBY
p1109
sg12
g9
sa(dp1110
g6
V[beat] She may chicken out. Maybe I'll call you.
p1111
sg8
g9
sg10
VBARTLET
p1112
sg12
g9
sa(dp1113
g6
VThat's the conversation, sir. It won't be Controlled Substances Act, or federal overreaching, or anything else. I don't think we're ready to have that conversation with the American public.
p1114
sg8
g13
sg10
VTOBY
p1115
sg12
g9
sa(dp1116
g6
VHey. Did you get a chance to talk...?
p1117
sg8
g13
sg10
VLEO
p1118
sg12
g9
sa(dp1119
g6
VDoug? Yeah.
p1120
sg8
g9
sg10
VJOSH
p1121
sg12
g9
sa(dp1122
g6
VDid he take it okay?
p1123
sg8
g9
sg10
VLEO
p1124
sg12
g9
sa(dp1125
g6
VHe did, you know. He really did.
p1126
sg8
g9
sg10
VJOSH
p1127
sg12
g9
sa(dp1128
g6
VGood.
p1129
sg8
g9
sg10
VLEO
p1130
sg12
g13
sa(dp1131
g6
VYou want to carry my books or something?
p1132
sg8
g9
sg10
VLEO
p1133
sg12
g9
sa(dp1134
g6
VI'm not sure he got it.
p1135
sg8
g9
sg10
VJOSH
p1136
sg12
g20
sa(dp1137
g6
VGot what?
p1138
sg8
g9
sg10
VLEO
p1139
sg12
g9
sa(dp1140
g6
VThe rejection.
p1141
sg8
g20
sg10
VJOSH
p1142
sg12
g20
sa(dp1143
g6
VIf he didn't take it personal, all the better.
p1144
sg8
g9
sg10
VLEO
p1145
sg12
g9
sa(dp1146
g6
VI think he thinks he's still running.
p1147
sg8
g9
sg10
VJOSH
p1148
sg12
g9
sa(dp1149
g6
VYou didn't tell him?!
p1150
sg8
g9
sg10
VLEO
p1151
sg12
g9
sa(dp1152
g6
VHe took it more like a cautionary tale than an actual...
p1153
sg8
g13
sg10
VJOSH
p1154
sg12
g9
sa(dp1155
g6
VOh, for the love of God.
p1156
sg8
g13
sg10
VLEO
p1157
sg12
g9
sa(dp1158
g6
VHe's resilient, which isn't a very bad thing in a candidate.
p1159
sg8
g13
sg10
VJOSH
p1160
sg12
g20
sa(dp1161
g6
VHe's gonna show up at dinner, popping champagne corks, and the President's gonna be stuck delivering the news in front of the guy's wife and his mother-in-law. You have to go back and tell him no.
p1162
sg8
g13
sg10
VLEO
p1163
sg12
g9
sa(dp1164
g6
VYeah.
p1165
sg8
g9
sg10
VJOSH
p1166
sg12
g9
sa(dp1167
g6
VIn no uncertain terms.
p1168
sg8
g20
sg10
VLEO
p1169
sg12
g20
sa(dp1170
g6
VI'm sorry.
p1171
sg8
g9
sg10
VJOSH
p1172
sg12
g20
sa(dp1173
g6
VDraw a picture if you need it. A ballot in a circle with a line through it.
p1174
sg8
g13
sg10
VLEO
p1175
sg12
g13
sa(dp1176
g6
VLiz and Gus are running a little behind schedule. Can we push this to four?
p1177
sg8
g9
sg10
VC.J.
p1178
sg12
g9
sa(dp1179
g6
VUh, do you want to belly dance for the Joint Chiefs, or shall I? [to Leo] Go on in.
p1180
sg8
g13
sg10
VDEBBIE
p1181
sg12
g9
sa(dp1182
g6
VEverything okay?
p1183
sg8
g9
sg10
VLEO
p1184
sg12
g9
sa(dp1185
g6
VI'm waiting for my daughter and her son to arrive so we can practice the ceremonial flipping of a switch.
p1186
sg8
g13
sg10
VBARTLET
p1187
sg12
g9
sa(dp1188
g6
VRight.
p1189
sg8
g9
sg10
VLEO
p1190
sg12
g9
sa(dp1191
g6
VHe had a Fisher-Price gizmo hooked to the side of this crib with more cranks and levers than a DC-10, but we're gonna practice with the switch.
p1192
sg8
g9
sg10
VBARTLET
p1193
sg12
g9
sa(dp1194
g6
VC.J. says the assisted suicide story's showing up in some Mississippi papers.
p1195
sg8
g20
sg10
VLEO
p1196
sg12
g9
sa(dp1197
g6
VYou think Fisk is feeding it to them? I want him in here first thing tomorrow.
p1198
sg8
g9
sg10
VBARTLET
p1199
sg12
g9
sa(dp1200
g6
V[gives Bartlet a file] Consular report from Sudan. Holly Gilweit and Katherine Melo, ages 20 and 23 respectively, had a grand total of 18 Bibles and a video on the lives of the Apostles.
p1201
sg8
g9
sg10
VLEO
p1202
sg12
g9
sa(dp1203
g6
V[reading] The NGO know about this?
p1204
sg8
g13
sg10
VBARTLET
p1205
sg12
g9
sa(dp1206
g6
VThey never identified themselves as evangelists. Never mentioned religion.
p1207
sg8
g9
sg10
VLEO
p1208
sg12
g9
sa(dp1209
g6
VSo they're undercover agents?
p1210
sg8
g9
sg10
VBARTLET
p1211
sg12
g9
sa(dp1212
g6
VSpies for Christ, yeah.
p1213
sg8
g9
sg10
VLEO
p1214
sg12
g13
sa(dp1215
g6
V18 Bibles. They couldn't have just talked about loving, kindness and good will towards men? I just had Berryhill call the prime minister of Sudan and issue a stern reprimand for behavior that I likened to street gangs and petty thieves. We need to issue an apology.
p1216
sg8
g13
sg10
VBARTLET
p1217
sg12
g9
sa(dp1218
g6
VWe can't. Ten other relief workers who weren't distributing anything other than wheat and sorghum are in jail. We've got to stick with our denial.
p1219
sg8
g20
sg10
VLEO
p1220
sg12
g20
sa(dp1221
g6
VBut they know what's going on.
p1222
sg8
g9
sg10
VBARTLET
p1223
sg12
g9
sa(dp1224
g6
VAnd we know. That's where the money comes in. Nancy's waiting downstairs.
p1225
sg8
g13
sg10
VLEO
p1226
sg12
g9
sa(dp1227
g6
VDebbie? [to Leo] 20 and 23?
p1228
sg8
g9
sg10
VBARTLET
p1229
sg12
g9
sa(dp1230
g6
VGirls.
p1231
sg8
g9
sg10
VLEO
p1232
sg12
g9
sa(dp1233
g6
VToby asked me today if I have a plan for my death. Liz has never asked. Zoey. I understand Ellie asked her mother once, but I'm not supposed to know about it. I get Toby.
p1234
sg8
g20
sg10
VBARTLET
p1235
sg12
g9
sa(dp1236
g6
VAre we expecting Liz and Gus?
p1237
sg8
g9
sg10
VBARTLET
p1238
sg12
g13
sa(dp1239
g6
VOh, they're running late. There's a disagreement about a bath.
p1240
sg8
g20
sg10
VDEBBIE
p1241
sg12
g9
sa(dp1242
g6
VNancy McNally is waiting, and she's already had her bath.
p1243
sg8
g13
sg10
VBARTLET
p1244
sg12
g9
sa(dp1245
g6
VI'll tell Liz.
p1246
sg8
g9
sg10
VDEBBIE
p1247
sg12
g9
sa(dp1248
g6
V[to Leo] Josh talk to Doug yet?
p1249
sg8
g13
sg10
VBARTLET
p1250
sg12
g9
sa(dp1251
g6
VThey spoke. He didn't seem to follow. Josh is gonna try again.
p1252
sg8
g20
sg10
VLEO
p1253
sg12
g20
sa(dp1254
g6
VHe didn't follow?
p1255
sg8
g9
sg10
VBARTLET
p1256
sg12
g20
sa(dp1257
g6
VJosh wasn't clear.
p1258
sg8
g9
sg10
VLEO
p1259
sg12
g20
sa(dp1260
g6
VWhat's not to follow?
p1261
sg8
g9
sg10
VBARTLET
p1262
sg12
g20
sa(dp1263
g6
VIt's hard to say. Thank you, Mr. President.
p1264
sg8
g9
sg10
VLEO
p1265
sg12
g9
sa(dp1266
g6
V3.2 billion men in the world. She picks him.
p1267
sg8
g9
sg10
VBARTLET
p1268
sg12
g9
sa(dp1269
g6
VI hear he had a great pitching arm.
p1270
sg8
g9
sg10
VDEBBIE
p1271
sg12
g9
sa(dp1272
g6
VWhen he was 19, sure. She dumped a Rhodes scholar for this guy. Zoey left Charlie for the Frog. Ellie and the guitar player with the purple van. My children choose morons. Every one.
p1273
sg8
g9
sg10
VBARTLET
p1274
sg12
g9
sa(dp1275
g6
VThey say daughters look for their fathers.
p1276
sg8
g9
sg10
VDEBBIE
p1277
sg12
g9
sa(dp1278
g6
VYou know, 15 years ago, we took a trip to Egypt, all five of us, saw the pyramids and Luxor, then headed up into the Sinai. We had a guide, a Bedouin man, who called me "Abu el Banat." Whenever we'd meet another Bedouin, he'd introduce me as "Abu el Banat." The Bedouin would laugh and laugh and then offer me a cup of tea. And I'd go and pay them for the tea, and they wouldn't let me. "Abu el Banat" means "father of daughters." They thought the tea was the least they could do.
p1279
sg8
g13
sg10
VBARTLET
p1280
sg12
g9
sa(dp1281
g6
VThanks.
p1282
sg8
g9
sg10
VBARTLET
p1283
sg12
g9
sa(dp1284
g6
VDoes he know we've heard "The Twelve Days of Christmas" twice?
p1285
sg8
g9
sg10
VC.J.
p1286
sg12
g9
sa(dp1287
g6
VWhat did Liz say?
p1288
sg8
g9
sg10
VBARTLET
p1289
sg12
g9
sa(dp1290
g6
VShe said we should've rehearsed.
p1291
sg8
g9
sg10
VCHARLIE
p1292
sg12
g9
sa(dp1293
g6
VI should go up there.
p1294
sg8
g9
sg10
VBARTLET
p1295
sg12
g20
sa(dp1296
g6
V7,000 people standing in the cold, sir, you have to go turn on the lights.
p1297
sg8
g13
sg10
VC.J.
p1298
sg12
g9
sa(dp1299
g6
VAny movement?
p1300
sg8
g9
sg10
VBARTLET
p1301
sg12
g20
sa(dp1302
g6
VThere's a lot of noise. Somebody's in a time out.
p1303
sg8
g20
sg10
VZOEY
p1304
sg12
g9
sa(dp1305
g6
VGus or Doug?
p1306
sg8
g9
sg10
VBARTLET
p1307
sg12
g9
sa(dp1308
g6
VI'll go. You and me.
p1309
sg8
g9
sg10
VZOEY
p1310
sg12
g9
sa(dp1311
g6
V[to Zoey's agent] Len, this gonna be okay?
p1312
sg8
g9
sg10
VBARTLET
p1313
sg12
g9
sa(dp1314
g6
VYes, sir.
p1315
sg8
g13
sg10
VLEN
p1316
sg12
g13
sa(dp1317
g6
V[to Zoey] It's cold out there. You got a coat?
p1318
sg8
g20
sg10
VBARTLET
p1319
sg12
g20
sa(dp1320
g6
VZoey.
p1321
sg8
g9
sg10
VCHARLIE
p1322
sg12
g9
sa(dp1323
g6
VYou're a prince.
p1324
sg8
g13
sg10
VZOEY
p1325
sg12
g9
sa(dp1326
g6
VHere we go.
p1327
sg8
g9
sg10
VBARTLET
p1328
sg12
g9
sa(dp1329
g6
VWe're moving Eagle and Bookbag. Replacing Eagle and Tonka with Eagle and Bookbag. Unit six and nine assist exit. Uniform to the front for a possible surge.
p1330
sg8
g13
sg10
VLEN
p1331
sg12
g13
sa(dp1332
g6
V[to Charlie] She's good.
p1333
sg8
g13
sg10
VC.J.
p1334
sg12
g13
sa(dp1335
g6
VBoxes for all this, and that... A dolly for the desk.
p1336
sg8
g9
sg10
VMOVER
p1337
sg12
g9
sa(dp1338
g6
V[enters] Hi, what are you doing?
p1339
sg8
g9
sg10
VWILL
p1340
sg12
g9
sa(dp1341
g6
VThis you?
p1342
sg8
g9
sg10
VMOVER
p1343
sg12
g13
sa(dp1344
g6
VYeah.
p1345
sg8
g9
sg10
VWILL
p1346
sg12
g9
sa(dp1347
g6
VWe're moving you to your new place across the street.
p1348
sg8
g9
sg10
VMOVER
p1349
sg12
g9
sa(dp1350
g6
VI don't have a new place.
p1351
sg8
g9
sg10
VWILL
p1352
sg12
g20
sa(dp1353
g6
V[shows him the clipboard] Will Bailey. OEOB.
p1354
sg8
g9
sg10
VMOVER
p1355
sg12
g9
sa(dp1356
g6
VDonna said you were looking for me.
p1357
sg8
g9
sg10
VDOUG
p1358
sg12
g9
sa(dp1359
g6
VYeah. How'd it go with the tree?
p1360
sg8
g13
sg10
VJOSH
p1361
sg12
g9
sa(dp1362
g6
VThe lights are on. Let's, let's leave it at that. [sits]
p1363
sg8
g20
sg10
VDOUG
p1364
sg12
g9
sa(dp1365
g6
VOkay, um... the conversation we had earlier. I think I wasn't clear.
p1366
sg8
g9
sg10
VJOSH
p1367
sg12
g20
sa(dp1368
g6
VThis is awkward, for all of you, I know that, but I don't want you to feel like you...
p1369
sg8
g9
sg10
VDOUG
p1370
sg12
g9
sa(dp1371
g6
VWe're asking you not to run.
p1372
sg8
g9
sg10
VJOSH
p1373
sg12
g9
sa(dp1374
g6
VWho's we?
p1375
sg8
g9
sg10
VDOUG
p1376
sg12
g9
sa(dp1377
g6
VThe DNC. The White House.
p1378
sg8
g9
sg10
VJOSH
p1379
sg12
g9
sa(dp1380
g6
VThe President?
p1381
sg8
g9
sg10
VDOUG
p1382
sg12
g9
sa(dp1383
g6
VIf you want to go forward on your own, the White House can't endorse you.
p1384
sg8
g13
sg10
VJOSH
p1385
sg12
g9
sa(dp1386
g6
VWow. [chuckles] Wow.
p1387
sg8
g9
sg10
VDOUG
p1388
sg12
g9
sa(dp1389
g6
VThe New Hampshire House is a great place to get some experience. Build a network...
p1390
sg8
g9
sg10
VJOSH
p1391
sg12
g9
sa(dp1392
g6
VI have a network. I've been working R&D in the New Hampshire tech corridor for 15 years. I got the CEO of the Diginet and the CFO of Gamsey-McGrath ready to join my finance committee. I got the guy who ran your boss's New Hampshire primary finding me a campaign manager and I just spent five hours last Sunday in a duck blind with the editor of the Manchester Union-Leader. I'm running for Congress.
p1393
sg8
g13
sg10
VDOUG
p1394
sg12
g9
sa(dp1395
g6
VHal Collins is... You met with Hal?
p1396
sg8
g9
sg10
VJOSH
p1397
sg12
g13
sa(dp1398
g6
VThere's a lot of fun to be had with the "there's nobody good enough for the President's daughter" stuff, but I'm not actually an idiot.
p1399
sg8
g13
sg10
VDOUG
p1400
sg12
g9
sa(dp1401
g6
VThat's...
p1402
sg8
g9
sg10
VJOSH
p1403
sg12
g9
sa(dp1404
g6
VI'm gonna have to dash. I'm late for dinner, but I appreciate your time, Josh. I really do.
p1405
sg8
g9
sg10
VDOUG
p1406
sg12
g20
sa(dp1407
g6
VAny time.
p1408
sg8
g9
sg10
VJOSH
p1409
sg12
g9
sa(dp1410
g6
VYeah. [leaves]
p1411
sg8
g9
sg10
VDOUG
p1412
sg12
g9
sa(dp1413
g6
VHe shouldn't be upset. He'll light the tree next year.
p1414
sg8
g9
sg10
VBARTLET
p1415
sg12
g9
sa(dp1416
g6
VHe's just wound up.
p1417
sg8
g20
sg10
VABBEY
p1418
sg12
g20
sa(dp1419
g6
VHe's not eating?
p1420
sg8
g9
sg10
VBARTLET
p1421
sg12
g9
sa(dp1422
g6
VIt's eight o'clock. He goes to sleep at eight. He eats at five.
p1423
sg8
g9
sg10
VELIZABETH
p1424
sg12
g9
sa(dp1425
g6
VWhy didn't we eat earlier?
p1426
sg8
g13
sg10
VBARTLET
p1427
sg12
g9
sa(dp1428
g6
VYou're a bright guy, and that's a stupid question.
p1429
sg8
g9
sg10
VABBEY
p1430
sg12
g9
sa(dp1431
g6
VWhere's Doug?
p1432
sg8
g9
sg10
VZOEY
p1433
sg12
g9
sa(dp1434
g6
VI think he's making sure Gus is down.
p1435
sg8
g9
sg10
VELIZABETH
p1436
sg12
g9
sa(dp1437
g6
VIsn't there some kind of person...?
p1438
sg8
g13
sg10
VBARTLET
p1439
sg12
g9
sa(dp1440
g6
VA nanny is not a substitute for a parent.
p1441
sg8
g9
sg10
VELIZABETH
p1442
sg12
g20
sa(dp1443
g6
VI thought that's exactly what a nanny was.
p1444
sg8
g9
sg10
VBARTLET
p1445
sg12
g9
sa(dp1446
g6
VShe has a strange chin.
p1447
sg8
g9
sg10
VZOEY
p1448
sg12
g13
sa(dp1449
g6
VNo, she doesn't.
p1450
sg8
g9
sg10
VABBEY
p1451
sg12
g20
sa(dp1452
g6
VWell, she kind of has no chin.
p1453
sg8
g13
sg10
VZOEY
p1454
sg12
g13
sa(dp1455
g6
VShe's Swedish.
p1456
sg8
g9
sg10
VELIZABETH
p1457
sg12
g13
sa(dp1458
g6
VYeah, most Swedes have chins.
p1459
sg8
g9
sg10
VZOEY
p1460
sg12
g20
sa(dp1461
g6
VWould you like to call him up and tell him we're waiting, and he can leave the child in the confident care of the chinless Swede?
p1462
sg8
g13
sg10
VBARTLET
p1463
sg12
g9
sa(dp1464
g6
VWe can give it ten more minutes.
p1465
sg8
g9
sg10
VABBEY
p1466
sg12
g9
sa(dp1467
g6
VIs Ellie...?
p1468
sg8
g9
sg10
VELIZABETH
p1469
sg12
g9
sa(dp1470
g6
VApparently not.
p1471
sg8
g9
sg10
VBARTLET
p1472
sg12
g20
sa(dp1473
g6
VCan we give it ten more minutes?
p1474
sg8
g9
sg10
VABBEY
p1475
sg12
g9
sa(dp1476
g6
VThere he is.
p1477
sg8
g9
sg10
VABBEY
p1478
sg12
g20
sa(dp1479
g6
VI'm sorry. Are we eating already?
p1480
sg8
g9
sg10
VDOUG
p1481
sg12
g9
sa(dp1482
g6
VWe're waiting.
p1483
sg8
g9
sg10
VZOEY
p1484
sg12
g20
sa(dp1485
g6
VIs he...?
p1486
sg8
g9
sg10
VELIZABETH
p1487
sg12
g9
sa(dp1488
g6
V[sits] He's fine. He's watching a video.
p1489
sg8
g9
sg10
VDOUG
p1490
sg12
g9
sa(dp1491
g6
VWell, I should...
p1492
sg8
g9
sg10
VELIZABETH
p1493
sg12
g20
sa(dp1494
g6
VHe's fine. So what's on the menu?
p1495
sg8
g9
sg10
VDOUG
p1496
sg12
g9
sa(dp1497
g6
VThe menu is absolutely...
p1498
sg8
g9
sg10
VABBEY
p1499
sg12
g9
sa(dp1500
g6
VWhere's Ellie?
p1501
sg8
g9
sg10
VDOUG
p1502
sg12
g9
sa(dp1503
g6
VWe have yet to determine if medical science can spare Ellie Bartlet for an evening.
p1504
sg8
g13
sg10
VBARTLET
p1505
sg12
g9
sa(dp1506
g6
VWe're giving her a few more minutes.
p1507
sg8
g13
sg10
VABBEY
p1508
sg12
g9
sa(dp1509
g6
V[to Doug] Did you...?
p1510
sg8
g9
sg10
VELIZABETH
p1511
sg12
g9
sa(dp1512
g6
VMm-hmm. I think I'm gonna grab a drink if that works. [stands]
p1513
sg8
g20
sg10
VDOUG
p1514
sg12
g20
sa(dp1515
g6
VLet me call the steward.
p1516
sg8
g13
sg10
VABBEY
p1517
sg12
g9
sa(dp1518
g6
VNo, I'll get it. They put ice in the scotch, and I-I don't really want ice in my scotch today. Which one is the sitting room?
p1519
sg8
g20
sg10
VDOUG
p1520
sg12
g9
sa(dp1521
g6
VGreat.
p1522
sg8
g9
sg10
VDOUG
p1523
sg12
g13
sa(dp1524
g6
VWhat was that?
p1525
sg8
g9
sg10
VABBEY
p1526
sg12
g20
sa(dp1527
g6
VGood evening, everybody. I apologize. They said they hadn't started serving.
p1528
sg8
g13
sg10
VLEO
p1529
sg12
g9
sa(dp1530
g6
VThat's all right.
p1531
sg8
g9
sg10
VABBEY
p1532
sg12
g9
sa(dp1533
g6
VDid you want to sit? We have room.
p1534
sg8
g9
sg10
VBARTLET
p1535
sg12
g9
sa(dp1536
g6
VThank you, no. We, um...
p1537
sg8
g9
sg10
VLEO
p1538
sg12
g20
sa(dp1539
g6
VExcuse me.
p1540
sg8
g9
sg10
VBARTLET
p1541
sg12
g20
sa(dp1542
g6
VTwo more physicians' licenses were just suspended. The AG's downstairs. I asked him to come in tomorrow, but he's getting on a plane.
p1543
sg8
g9
sg10
VLEO
p1544
sg12
g9
sa(dp1545
g6
VWhen's his flight?
p1546
sg8
g9
sg10
VBARTLET
p1547
sg12
g9
sa(dp1548
g6
VTwo hours.
p1549
sg8
g9
sg10
VLEO
p1550
sg12
g9
sa(dp1551
g6
V[to Abbey and Zoey] Five minutes. Ellie's still not here. I'll beat her back.
p1552
sg8
g9
sg10
VBARTLET
p1553
sg12
g9
sa(dp1554
g6
VJohn?
p1555
sg8
g9
sg10
VABBEY
p1556
sg12
g9
sa(dp1557
g6
VYes, ma'am?
p1558
sg8
g9
sg10
VJOHN
p1559
sg12
g13
sa(dp1560
g6
VWe seem to have lost our quorum.
p1561
sg8
g20
sg10
VABBEY
p1562
sg12
g20
sa(dp1563
g6
VTwo more doctors? You couldn't wait a year to start campaigning?
p1564
sg8
g20
sg10
VBARTLET
p1565
sg12
g20
sa(dp1566
g6
VMr. President...
p1567
sg8
g9
sg10
VALAN
p1568
sg12
g9
sa(dp1569
g6
VYou don't run for governor from my Cabinet.
p1570
sg8
g9
sg10
VBARTLET
p1571
sg12
g20
sa(dp1572
g6
VYou really think a run to the right on a couple of pro-life standards is gonna win me Mississippi?
p1573
sg8
g9
sg10
VALAN
p1574
sg12
g13
sa(dp1575
g6
V"The powers not delegated to the United States by the Constitution are reserved to the states respectively."
p1576
sg8
g9
sg10
VBARTLET
p1577
sg12
g9
sa(dp1578
g6
VHow long before there's a lawyer arguing, "We can't limit this to terminal patients? We ought to include the chronically ill? When is it allowing children to make the decision for their parents?
p1579
sg8
g20
sg10
VALAN
p1580
sg12
g9
sa(dp1581
g6
VYes. When is it allowing the state to decide, not families? We'll just start knocking off the weak and the indigent along with the sick and dying. When does my administration completely deteriorate into the Third Reich?
p1582
sg8
g20
sg10
VBARTLET
p1583
sg12
g9
sa(dp1584
g6
VI'm not suggesting...
p1585
sg8
g9
sg10
VALAN
p1586
sg12
g20
sa(dp1587
g6
VThe federal government has no place here. The question is a moral one, an individual one. Grappling with the nature of life and the purview of God, in which the federal government has no... Forget it. Do what you want. The courts are gonna nail you. You're counting on my silence, and you've just lost it. [turns to leave]
p1588
sg8
g20
sg10
VBARTLET
p1589
sg12
g9
sa(dp1590
g6
VSir, a public debate...
p1591
sg8
g13
sg10
VALAN
p1592
sg12
g13
sa(dp1593
g6
VYeah, I didn't want to get on T.V. with Oprah and talk about who's gonna cut my meat when the coordination goes, but c'est la vie. The lid's off. You pull this crap one more time, you're fired. Tell Janet Merry Christmas.
p1594
sg8
g13
sg10
VBARTLET
p1595
sg12
g9
sa(dp1596
g6
VGood evening, Ellie.
p1597
sg8
g9
sg10
VJOHN
p1598
sg12
g13
sa(dp1599
g6
VGood evening, John. Is my...?
p1600
sg8
g9
sg10
VELLIE
p1601
sg12
g9
sa(dp1602
g6
VThey'll be right back.
p1603
sg8
g9
sg10
VJOHN
p1604
sg12
g9
sa(dp1605
g6
VOkay.
p1606
sg8
g9
sg10
VELLIE
p1607
sg12
g9
sa(dp1608
g6
VCan I get you something to drink?
p1609
sg8
g9
sg10
VJOHN
p1610
sg12
g9
sa(dp1611
g6
VUm, no. I'm fine, thank you.
p1612
sg8
g9
sg10
VELLIE
p1613
sg12
g20
sa(dp1614
g6
VThere's a guy named Mitch Clark. DNC's been...
p1615
sg8
g9
sg10
VBARTLET
p1616
sg12
g9
sa(dp1617
g6
VMitchell Clark single-handedly disemboweled managed care reform. He put together the committee, took credit for creating rate stabilization and then sold the whole thing down the river. How do you think he's financing a run? He's got board members from Barnstead Mutual writing check after check.
p1618
sg8
g13
sg10
VELIZABETH
p1619
sg12
g9
sa(dp1620
g6
VThe district's splitting right, much more than in my day.
p1621
sg8
g20
sg10
VBARTLET
p1622
sg12
g9
sa(dp1623
g6
VJosh mentioned something about that. Apparently, he was very helpful.
p1624
sg8
g13
sg10
VELIZABETH
p1625
sg12
g9
sa(dp1626
g6
VElizabeth...
p1627
sg8
g9
sg10
VBARTLET
p1628
sg12
g9
sa(dp1629
g6
VYou couldn't give him the courtesy of five minutes? It's one thing to delegate my car loan or Ellie's MCATs to your staff, but my husband?
p1630
sg8
g13
sg10
VELIZABETH
p1631
sg12
g9
sa(dp1632
g6
VHe went to Josh. He didn't come to me. If he wanted my advice, or if you did, for that matter... [pause] Doug didn't call Hal Collins. You did. You recruited the finance committee.
p1633
sg8
g9
sg10
VBARTLET
p1634
sg12
g9
sa(dp1635
g6
VMom made a useful suggestion or two in the early years.
p1636
sg8
g9
sg10
VELIZABETH
p1637
sg12
g9
sa(dp1638
g6
V"The Speaker can convince most people of most things and himself of almost anything." Doug came up with that?
p1639
sg8
g13
sg10
VBARTLET
p1640
sg12
g9
sa(dp1641
g6
VWe're a good team. We have different strengths, skills. He has skills you've never even bothered...
p1642
sg8
g13
sg10
VELIZABETH
p1643
sg12
g9
sa(dp1644
g6
VHe's a great guy and a fantastic father. You're the politician. Why the hell don't you run?
p1645
sg8
g20
sg10
VBARTLET
p1646
sg12
g9
sa(dp1647
g6
VBecause Annie pierced her face. And this one can't catch, or bathe.
p1648
sg8
g9
sg10
VELIZABETH
p1649
sg12
g9
sa(dp1650
g6
VYou can handle it.
p1651
sg8
g9
sg10
VBARTLET
p1652
sg12
g20
sa(dp1653
g6
VYou can't. Forgive me, Ms. Steinem and Ms. Friedan, you cannot do it all.
p1654
sg8
g9
sg10
VELIZABETH
p1655
sg12
g9
sa(dp1656
g6
VYour mother did.
p1657
sg8
g9
sg10
VBARTLET
p1658
sg12
g9
sa(dp1659
g6
VNo, Daddy. She didn't.
p1660
sg8
g9
sg10
VELIZABETH
p1661
sg12
g20
sa(dp1662
g6
VThere's no question we missed things. We all made sacrifices, but Elizabeth, when Annie and Gus watch you walk onto the floor of the U.S. House of Representatives...
p1663
sg8
g9
sg10
VBARTLET
p1664
sg12
g9
sa(dp1665
g6
VI don't want my son to be a part of my entourage. A photo-op is not his idea... [firmly] I don't want it.
p1666
sg8
g9
sg10
VELIZABETH
p1667
sg12
g9
sa(dp1668
g6
VThen why would you let Doug?
p1669
sg8
g9
sg10
VBARTLET
p1670
sg12
g9
sa(dp1671
g6
VBecause he's my husband, and he asked me to.
p1672
sg8
g9
sg10
VELIZABETH
p1673
sg12
g13
sa(dp1674
g6
VYou gonna come watch? There's people singing in the lobby.
p1675
sg8
g9
sg10
VDONNA
p1676
sg12
g9
sa(dp1677
g6
VSpontaneously?
p1678
sg8
g9
sg10
VJOSH
p1679
sg12
g9
sa(dp1680
g6
VThe choir from the Tree Lighting.
p1681
sg8
g13
sg10
VDONNA
p1682
sg12
g9
sa(dp1683
g6
VWho's that for?
p1684
sg8
g9
sg10
VJOSH
p1685
sg12
g9
sa(dp1686
g6
VYou picked your own gift?
p1687
sg8
g13
sg10
VJOSH
p1688
sg12
g9
sa(dp1689
g6
VI'm in charge of shopping.
p1690
sg8
g13
sg10
VDONNA
p1691
sg12
g9
sa(dp1692
g6
VI got your gift.
p1693
sg8
g13
sg10
VJOSH
p1694
sg12
g13
sa(dp1695
g6
VNo, you didn't. Three weeks in advance?
p1696
sg8
g13
sg10
VDONNA
p1697
sg12
g9
sa(dp1698
g6
VI saw it Thanksgiving. I got it.
p1699
sg8
g9
sg10
VJOSH
p1700
sg12
g20
sa(dp1701
g6
VNo, you didn't. What is it?
p1702
sg8
g9
sg10
VDONNA
p1703
sg12
g9
sa(dp1704
g6
VI'm not telling you.
p1705
sg8
g9
sg10
VJOSH
p1706
sg12
g20
sa(dp1707
g6
VI want to know.
p1708
sg8
g9
sg10
VDONNA
p1709
sg12
g9
sa(dp1710
g6
VReally? It's a gift certificate. Tower Records. 'Cause you're a fan of the music. You get to go on a spree.
p1711
sg8
g13
sg10
VJOSH
p1712
sg12
g9
sa(dp1713
g6
VThat'll be fun.
p1714
sg8
g13
sg10
VDONNA
p1715
sg12
g13
sa(dp1716
g6
V[stands] So that's why I need to sit with Approps and find some foreign aid money we can reprogram.
p1717
sg8
g13
sg10
VJOSH
p1718
sg12
g9
sa(dp1719
g6
VWhat should I tell them it's for?
p1720
sg8
g9
sg10
VDONNA
p1721
sg12
g9
sa(dp1722
g6
VBribing a dictator to get illegal missionaries out of Sudan.
p1723
sg8
g20
sg10
VJOSH
p1724
sg12
g20
sa(dp1725
g6
VSomething I can put on a memo.
p1726
sg8
g9
sg10
VDONNA
p1727
sg12
g20
sa(dp1728
g6
VReassigning funds from extant authorizations based on new priorities in East Africa.
p1729
sg8
g9
sg10
VJOSH
p1730
sg12
g9
sa(dp1731
g6
VDo you mind if I go watch the carolers?
p1732
sg8
g9
sg10
VDONNA
p1733
sg12
g9
sa(dp1734
g6
VDonna, it's not a gift certificate.
p1735
sg8
g13
sg10
VJOSH
p1736
sg12
g20
sa(dp1737
g6
VWhat is it?
p1738
sg8
g9
sg10
VDONNA
p1739
sg12
g9
sa(dp1740
g6
VI'm not telling you.
p1741
sg8
g9
sg10
VJOSH
p1742
sg12
g20
sa(dp1743
g6
VI want to know.
p1744
sg8
g9
sg10
VDONNA
p1745
sg12
g9
sa(dp1746
g6
VSocks.
p1747
sg8
g9
sg10
VJOSH
p1748
sg12
g9
sa(dp1749
g6
VStop it.
p1750
sg8
g9
sg10
VDONNA
p1751
sg12
g20
sa(dp1752
g6
VI'm not telling you. Live with the pain.
p1753
sg8
g20
sg10
VJOSH
p1754
sg12
g9
sa(dp1755
g6
VYou didn't want to wait for dinner?
p1756
sg8
g9
sg10
VABBEY
p1757
sg12
g20
sa(dp1758
g6
VI'm waiting. There's a fruit bowl. Turns out the fruit's real.
p1759
sg8
g13
sg10
VBARTLET
p1760
sg12
g20
sa(dp1761
g6
VEllie and Zoey went down to watch the carolers. We didn't know how long you'd be.
p1762
sg8
g9
sg10
VABBEY
p1763
sg12
g20
sa(dp1764
g6
VEllie's here? That's nice. She enjoying her stay?
p1765
sg8
g13
sg10
VBARTLET
p1766
sg12
g9
sa(dp1767
g6
VDid you talk to Liz?
p1768
sg8
g13
sg10
VABBEY
p1769
sg12
g9
sa(dp1770
g6
VI'm not sure we're gonna see her for dinner. It's okay. I got a picture in my wallet of the three girls together from Acadia in '96.
p1771
sg8
g13
sg10
VBARTLET
p1772
sg12
g9
sa(dp1773
g6
V[sits] It's Doug's fight. Why does she have to get in the middle?
p1774
sg8
g20
sg10
VABBEY
p1775
sg12
g9
sa(dp1776
g6
VIt's bigger than Doug.
p1777
sg8
g9
sg10
VBARTLET
p1778
sg12
g9
sa(dp1779
g6
VWhat is it about those ice skates we never bought her?
p1780
sg8
g9
sg10
VABBEY
p1781
sg12
g9
sa(dp1782
g6
VThat and the cauliflower incident.
p1783
sg8
g9
sg10
VBARTLET
p1784
sg12
g9
sa(dp1785
g6
VWe didn't beat them.
p1786
sg8
g9
sg10
VABBEY
p1787
sg12
g20
sa(dp1788
g6
VThere's still time. Shame about Gus and the tree.
p1789
sg8
g13
sg10
VBARTLET
p1790
sg12
g9
sa(dp1791
g6
VYou really didn't think he was gonna march...
p1792
sg8
g13
sg10
VABBEY
p1793
sg12
g9
sa(dp1794
g6
VI did. He would have had fun.
p1795
sg8
g13
sg10
VBARTLET
p1796
sg12
g9
sa(dp1797
g6
VHe thought he was gonna be alone, with you. He didn't know what all those other people were doing there.
p1798
sg8
g9
sg10
VABBEY
p1799
sg12
g9
sa(dp1800
g6
VOh, yeah. Last Christmas, Ellie wasn't around. The year before was Tennessee and the calls to Belarus. I can't remember when it was just the five of us and weather and everybody in their slippers.
p1801
sg8
g20
sg10
VBARTLET
p1802
sg12
g9
sa(dp1803
g6
VWe don't do that.
p1804
sg8
g9
sg10
VABBEY
p1805
sg12
g20
sa(dp1806
g6
VWe did.
p1807
sg8
g9
sg10
VBARTLET
p1808
sg12
g9
sa(dp1809
g6
VI was on call three straight Christmas Eves when Ellie was little. We've never been Currier and Ives.
p1810
sg8
g9
sg10
VABBEY
p1811
sg12
g20
sa(dp1812
g6
VI'm putting together a panel on assisted suicide. If you got any names, medical ethicists.
p1813
sg8
g9
sg10
VBARTLET
p1814
sg12
g20
sa(dp1815
g6
VYour position has changed?
p1816
sg8
g9
sg10
VABBEY
p1817
sg12
g9
sa(dp1818
g6
V[shakes his head no] Uh-uh... No syringe in the nightstand. It'll get ugly and that's that... You gonna be there?
p1819
sg8
g20
sg10
VBARTLET
p1820
sg12
g9
sa(dp1821
g6
VYeah. [stands to leave]
p1822
sg8
g20
sg10
VABBEY
p1823
sg12
g20
sa(dp1824
g6
VAbbey.
p1825
sg8
g9
sg10
VBARTLET
p1826
sg12
g9
sa(dp1827
g6
VGus is still up. Go say good night.
p1828
sg8
g13
sg10
VABBEY
p1829
sg12
g9
sa(dp1830
g6
VWhat child is this, who laid to rest On Mary's lap, is sleeping Whom angels greet, with anthems sweet While shepherds watch are keeping This, this is Christ the king Whom shepherds guard, and angels sing Haste, haste, to bring him laud The Babe, the Son of Mary...
p1831
sg8
g13
sg10
VCHOIR
p1832
sg12
g9
sa(dp1833
g6
VHe's not a fan of turkey. I was told he didn't eat any of it... Yes. Talmidge Cregg. The other night nurse... Right. We spoke the day after Thanksgiving... It's fine. I just thought maybe I could send a ham... No, I'm not asking the kitchen to do it. I'm saying It's three weeks away. They vacuum pack it. If I could just send it to you, and you could see that they give it to him instead of... No, this is... I'm... This is C.J. I'm-I'm his daughter.
p1834
sg8
g13
sg10
VC.J.
p1835
sg12
g9
sa(dp1836
g6
VReady?
p1837
sg8
g9
sg10
VBARTLET
p1838
sg12
g9
sa(dp1839
g6
VYeah.
p1840
sg8
g9
sg10
VGUS
p1841
sg12
g9
sa(dp1842
g6
VOkay.
p1843
sg8
g9
sg10
VBARTLET
p1844
sg12
g9
sas.