(dp0
S'season'
p1
I7
sS'episode'
p2
I1
sS'script'
p3
(lp4
(dp5
S'text'
p6
VWelcome.
p7
sS'bow_score'
p8
S'neutral'
p9
sS'character'
p10
VBARTLET
p11
sS'maxent_score'
p12
g9
sa(dp13
g6
VNice to see you, sir.
p14
sg8
S'positive'
p15
sg10
VC.J.
p16
sg12
g9
sa(dp17
g6
VAnd you.
p18
sg8
g9
sg10
VBARTLET
p19
sg12
g15
sa(dp20
g6
VLook at that tan. I was gonna ask you to come up to the farm for a week but we should come up to you.
p21
sg8
g9
sg10
VBARTLET
p22
sg12
g9
sa(dp23
g6
VYou'd love it, sir. Santa Monica's your kind of town.
p24
sg8
g15
sg10
VC.J.
p25
sg12
g9
sa(dp26
g6
VReally?
p27
sg8
g9
sg10
VBARTLET
p28
sg12
g9
sa(dp29
g6
VNot really, no.
p30
sg8
g9
sg10
VC.J.
p31
sg12
g9
sa(dp32
g6
VAbbey wants a picture of the baby.
p33
sg8
g15
sg10
VBARTLET
p34
sg12
g9
sa(dp35
g6
VI thought we e-mailed you one.
p36
sg8
g9
sg10
VDANNY
p37
sg12
g9
sa(dp38
g6
VSomething she can tape to the fridge.
p39
sg8
g9
sg10
VBARTLET
p40
sg12
g9
sa(dp41
g6
VOh. I'll see what I can dig up.
p42
sg8
g9
sg10
VDANNY
p43
sg12
g9
sa(dp44
g6
VGlad you could make it.
p45
sg8
g9
sg10
VBARTLET
p46
sg12
g15
sa(dp47
g6
VThanks for the invitation, sir.
p48
sg8
g15
sg10
VTOBY
p49
sg12
g9
sa(dp50
g6
VHow's Columbia?
p51
sg8
g9
sg10
VBARTLET
p52
sg12
g9
sa(dp53
g6
VNot such a bad place to spend some time.
p54
sg8
S'negative'
p55
sg10
VTOBY
p56
sg12
g9
sa(dp57
g6
VI read your book. Gorgeous prose.
p58
sg8
g9
sg10
VBARTLET
p59
sg12
g9
sa(dp60
g6
VThank you.
p61
sg8
g9
sg10
VKATE
p62
sg12
g15
sa(dp63
g6
VDid you read her book?
p64
sg8
g9
sg10
VBARTLET
p65
sg12
g9
sa(dp66
g6
VLoad of hogwash. Nice job at Jakarta.
p67
sg8
g15
sg10
VCHARLIE
p68
sg12
g9
sa(dp69
g6
VThank you. Just trying to get them talking. Don't anyone hold your breath. Congressman.
p70
sg8
g9
sg10
VBARTLET
p71
sg12
g9
sa(dp72
g6
VMr. President.
p73
sg8
g9
sg10
VWILL
p74
sg12
g9
sa(dp75
g6
VWays and Means?
p76
sg8
g9
sg10
VBARTLET
p77
sg12
g9
sa(dp78
g6
VBackbencher. I sit tight for 32 years, I have a shot at Chairman.
p79
sg8
g55
sg10
VWILL
p80
sg12
g9
sa(dp81
g6
VAll set with your speech?
p82
sg8
g15
sg10
VC.J.
p83
sg12
g9
sa(dp84
g6
VI think so. A little meandering in the middle, but...
p85
sg8
g55
sg10
VBARTLET
p86
sg12
g9
sa(dp87
g6
VNo, thank you, I'll be fine.
p88
sg8
g9
sg10
VBARTLET
p89
sg12
g9
sa(dp90
g6
VSir, can we get you to...
p91
sg8
g9
sg10
VJOSH
p92
sg12
g9
sa(dp93
g6
VThere he is.
p94
sg8
g9
sg10
VBARTLET
p95
sg12
g9
sa(dp96
g6
VWow. Quite a collection of dignitaries. Sorry.
p97
sg8
g9
sg10
VJOSH
p98
sg12
g9
sa(dp99
g6
VYou were saying, Josh?
p100
sg8
g9
sg10
VBARTLET
p101
sg12
g9
sa(dp102
g6
VThe President's here.
p103
sg8
g9
sg10
VJOSH
p104
sg12
g9
sa(dp105
g6
VWelcome back.
p106
sg8
g9
sg10
VBRAM
p107
sg12
g9
sa(dp108
g6
VWow! Look at that. That's what we like to see.
p109
sg8
g9
sg10
VJOSH
p110
sg12
g9
sa(dp111
g6
VIs it out yet?
p112
sg8
g9
sg10
VBRAM
p113
sg12
g9
sa(dp114
g6
VNot yet. What'd I miss?
p115
sg8
g9
sg10
VJOSH
p116
sg12
g15
sa(dp117
g6
VUh, rally in Columbus was fantastic, crowds were going wild. Q&A in Dayton got a little sticky; they wouldn't shut up about the ticket.
p118
sg8
g55
sg10
VBRAM
p119
sg12
g9
sa(dp120
g6
VAbout Leo?
p121
sg8
g9
sg10
VJOSH
p122
sg12
g9
sa(dp123
g6
VYeah. The Congressman was pretty irritated.
p124
sg8
g15
sg10
VBRAM
p125
sg12
g9
sa(dp126
g6
VIt'll pass. We want copies of these, like 500.
p127
sg8
g9
sg10
VJOSH
p128
sg12
g9
sa(dp129
g6
VHow's headquarters?
p130
sg8
g9
sg10
VBRAM
p131
sg12
g9
sa(dp132
g6
VIt exists, which is a start. What else?
p133
sg8
g9
sg10
VJOSH
p134
sg12
g9
sa(dp135
g6
VUm, that's it.
p136
sg8
g9
sg10
VBRAM
p137
sg12
g9
sa(dp138
g6
VI've been away from you people for a whole day. You got nothing?
p139
sg8
g9
sg10
VJOSH
p140
sg12
g9
sa(dp141
g6
VSame speech, 27 times, dude.
p142
sg8
g15
sg10
VBRAM
p143
sg12
g9
sa(dp144
g6
VOkay, ten minutes of grip-and-grin, followed by the speech, followed b a quick stop in Bakersfield.
p145
sg8
g15
sg10
VANNABETH
p146
sg12
g9
sa(dp147
g6
VWhat happened to the conference call with the policy team?
p148
sg8
g9
sg10
VLEO
p149
sg12
g9
sa(dp150
g6
VThey decided they don't need you on the conference call, they need you in Bakersfield. Let's remember to call him "Santos."
p151
sg8
g9
sg10
VANNABETH
p152
sg12
g9
sa(dp153
g6
VThe candidate?
p154
sg8
g15
sg10
VLEO
p155
sg12
g9
sa(dp156
g6
VThat's what he calls himself.
p157
sg8
g55
sg10
VANNABETH
p158
sg12
g9
sa(dp159
g6
VWhat'd I call him?
p160
sg8
g9
sg10
VLEO
p161
sg12
g9
sa(dp162
g6
V"Santos," with an "ahh" instead of an "ah."
p163
sg8
g9
sg10
VANNABETH
p164
sg12
g9
sa(dp165
g6
VAhh's not more correct?
p166
sg8
g9
sg10
VLEO
p167
sg12
g9
sa(dp168
g6
VIn Mexico.
p169
sg8
g9
sg10
VANNABETH
p170
sg12
g9
sa(dp171
g6
VI say "ahh"?
p172
sg8
g9
sg10
VLEO
p173
sg12
g9
sa(dp174
g6
VLeo, you're inconsistent. We just don't want to give the impression that you're iffy on your running mate's name.
p175
sg8
g15
sg10
VANNABETH
p176
sg12
g9
sa(dp177
g6
VCertainly not.
p178
sg8
g9
sg10
VLEO
p179
sg12
g9
sa(dp180
g6
VNow I'm confused. Which is it?
p181
sg8
g9
sg10
VLEO
p182
sg12
g9
sa(dp183
g6
V"Ah".
p184
sg8
g9
sg10
VANNABETH
p185
sg12
g9
sa(dp186
g6
V"Ah"?
p187
sg8
g9
sg10
VLEO
p188
sg12
g9
sa(dp189
g6
V"Ah." It's not out yet.
p190
sg8
g9
sg10
VANNABETH
p191
sg12
g9
sa(dp192
g6
VDid I ask?
p193
sg8
g9
sg10
VLEO
p194
sg12
g9
sa(dp195
g6
VNo, but you wanted to.
p196
sg8
g9
sg10
VANNABETH
p197
sg12
g15
sa(dp198
g6
VYou wouldn't tell me even if you had it because I'm about to go onstage and you feel it's your responsibility to manage my mood, which it isn't.
p199
sg8
g15
sg10
VLEO
p200
sg12
g9
sa(dp201
g6
VYou know I left a great job to come work for this campaign.
p202
sg8
g15
sg10
VANNABETH
p203
sg12
g9
sa(dp204
g6
VI'm just saying, I've been at this for awhile. I don't need the babysitting.
p205
sg8
g9
sg10
VLEO
p206
sg12
g9
sa(dp207
g6
VYou most certainly do. Just because you've trained a Preakness jockey doesn't mean you know how to sit a horse.
p208
sg8
g9
sg10
VANNABETH
p209
sg12
g9
sa(dp210
g6
VHey, is it out yet?
p211
sg8
g9
sg10
VRONNA
p212
sg12
g9
sa(dp213
g6
VNot yet.
p214
sg8
g9
sg10
VJOSH
p215
sg12
g15
sa(dp216
g6
VAre you sure?
p217
sg8
g9
sg10
VRONNA
p218
sg12
g9
sa(dp219
g6
VHe checked.
p220
sg8
g9
sg10
VBRAM
p221
sg12
g9
sa(dp222
g6
VWe'll get it when we get it.
p223
sg8
g9
sg10
VJOSH
p224
sg12
g9
sa(dp225
g6
VYou hear anything yet?
p226
sg8
g9
sg10
VNED
p227
sg12
g15
sa(dp228
g6
VNot yet.
p229
sg8
g9
sg10
VRONNA
p230
sg12
g15
sa(dp231
g6
VI thought we were going to get it an hour ago.
p232
sg8
g9
sg10
VNED
p233
sg12
g9
sa(dp234
g6
VWe didn't.
p235
sg8
g9
sg10
VJOSH
p236
sg12
g9
sa(dp237
g6
VYou think we should call them?
p238
sg8
g9
sg10
VNED
p239
sg12
g9
sa(dp240
g6
VThis is one poll. Yes, it is a Gallup Poll. Yes, it is our first public polling data. Absolutely, it will shape our message and our strategy. But it will not change the fact that four days out of the convention the Santos-McGarry ticket is incredibly strong and poised for victory. The Congressman's not worried about it. I'm not worried about it. Everyone should stop worrying about it.
p241
sg8
g15
sg10
VJOSH
p242
sg12
g9
sa(dp243
g6
VIs it out yet?
p244
sg8
g9
sg10
VSANTOS
p245
sg12
g9
sa(dp246
g6
VNo, sir, not yet.
p247
sg8
g15
sg10
VJOSH
p248
sg12
g15
sa(dp249
g6
VUh, right after this we head back to Washington where we have one day at our new headquarters to sit you down with the department heads, brief you on electoral strategy, policy directives. Make sure we're not re-litigating this stuff.
p250
sg8
g9
sg10
VJOSH
p251
sg12
g9
sa(dp252
g6
VThat's great.
p253
sg8
g9
sg10
VSANTOS
p254
sg12
g9
sa(dp255
g6
VI'll be in and out interviewing new staff.
p256
sg8
g9
sg10
VJOSH
p257
sg12
g9
sa(dp258
g6
VAbout 90.
p259
sg8
g9
sg10
VJOSH
p260
sg12
g9
sa(dp261
g6
VToday?
p262
sg8
g9
sg10
VHELEN
p263
sg12
g9
sa(dp264
g6
VThere's a bathroom up there, if you need...
p265
sg8
g9
sg10
VJOSH
p266
sg12
g9
sa(dp267
g6
VOh, that's not a bad idea. Excuse me.
p268
sg8
g55
sg10
VSANTOS
p269
sg12
g9
sa(dp270
g6
VYou don't think that's micromanaging?
p271
sg8
g9
sg10
VHELEN
p272
sg12
g9
sa(dp273
g6
VHe went, didn't he?
p274
sg8
g9
sg10
VJOSH
p275
sg12
g9
sa(dp276
g6
VMatthew Santos served his community for two terms as Mayor of Houston; served his state for three terms in Congress; served his country for 12 years in the U.S. Navy.
p277
sg8
g15
sg10
VLEO
p278
sg12
g9
sa(dp279
g6
VMarine Corps.
p280
sg8
g9
sg10
VANNABETH
p281
sg12
g9
sa(dp282
g6
V12 years in the U.S. Marine Corps. I am proud to join this bold leader...
p283
sg8
g15
sg10
VLEO
p284
sg12
g9
sa(dp285
g6
VSay, uh, are we meeting with the White House today?
p286
sg8
g9
sg10
VSANTOS
p287
sg12
g9
sa(dp288
g6
VI am. I may take Leo with me.
p289
sg8
g9
sg10
VJOSH
p290
sg12
g9
sa(dp291
g6
VBefore or after your 600 interviews?
p292
sg8
g9
sg10
VHELEN
p293
sg12
g9
sa(dp294
g6
VYou don't need Leo at the White House. I want him in the briefings, make sure he's clear about what our direction is.
p295
sg8
g9
sg10
VSANTOS
p296
sg12
g9
sa(dp297
g6
VMrs. Santos, this is Chet. He's going to seat you down front with the Chancellor.
p298
sg8
g9
sg10
VBRAM
p299
sg12
g9
sa(dp300
g6
VYeah. Knock 'em down, honey.
p301
sg8
g15
sg10
VHELEN
p302
sg12
g15
sa(dp303
g6
VHopefully you two will have some time this afternoon. Get to know each other, maybe lunch.
p304
sg8
g9
sg10
VJOSH
p305
sg12
g9
sa(dp306
g6
VWho?
p307
sg8
g9
sg10
VSANTOS
p308
sg12
g9
sa(dp309
g6
VYou and Leo.
p310
sg8
g9
sg10
VJOSH
p311
sg12
g9
sa(dp312
g6
VWe've got one day in DC, you really think we should spend it on lunch?
p313
sg8
g9
sg10
VSANTOS
p314
sg12
g9
sa(dp315
g6
VI'm talking takeout, not wine and candles. Okay, go get 'em, sir.
p316
sg8
g15
sg10
VJOSH
p317
sg12
g9
sa(dp318
g6
VIt will be out soon, right?
p319
sg8
g9
sg10
VSANTOS
p320
sg12
g9
sa(dp321
g6
VYou'll know the second I know.
p322
sg8
g9
sg10
VJOSH
p323
sg12
g9
sa(dp324
g6
VCongressman Matthew Santos!
p325
sg8
g9
sg10
VINTRODUCER
p326
sg12
g9
sa(dp327
g6
VGet me an advance copy of this damn poll before I chew my arm off.
p328
sg8
g55
sg10
VJOSH
p329
sg12
g9
sa(dp330
g6
VHas the campaign seen this yet?
p331
sg8
g9
sg10
VBARTLET
p332
sg12
g9
sa(dp333
g6
VNo. Gallup slipped us an advance copy. They'll publish in about an hour.
p334
sg8
g9
sg10
VTOBY
p335
sg12
g9
sa(dp336
g6
VSir, we should have Moscow any minute now.
p337
sg8
g9
sg10
VNANCY
p338
sg12
g9
sa(dp339
g6
VThank you.
p340
sg8
g9
sg10
VBARTLET
p341
sg12
g15
sa(dp342
g6
VThis ought to be fun.
p343
sg8
g15
sg10
VBARTLET
p344
sg12
g9
sa(dp345
g6
VHow much do you plan on telling them?
p346
sg8
g9
sg10
VC.J.
p347
sg12
g9
sa(dp348
g6
VI'm telling them the military space shuttle, whose existence we've flatly denied, will be hurtling up from Vandenburg in about an hour.
p349
sg8
g9
sg10
VBARTLET
p350
sg12
g9
sa(dp351
g6
VComprehensive.
p352
sg8
g9
sg10
VTOBY
p353
sg12
g9
sa(dp354
g6
VHutchinson will want you downstairs for the final go and we've set up calls for you with China, France, Germany, Japan. Everyone with a satellite that'll pick it up.
p355
sg8
g9
sg10
VC.J.
p356
sg12
g9
sa(dp357
g6
VHow about the wives?
p358
sg8
g9
sg10
VTOBY
p359
sg12
g9
sa(dp360
g6
VOf the astronauts? Not until we know we're actually going to get them back.
p361
sg8
g9
sg10
VBARTLET
p362
sg12
g9
sa(dp363
g6
VSenator Weller has started his own investigation of the leak.
p364
sg8
g55
sg10
VC.J.
p365
sg12
g9
sa(dp366
g6
VWe're running an investigation. The AG's running an investigation. What does he think Congress is going to find out that we won't?
p367
sg8
g9
sg10
VBARTLET
p368
sg12
g9
sa(dp369
g6
VHe doesn't think the AG is objective.
p370
sg8
g15
sg10
VTOBY
p371
sg12
g9
sa(dp372
g6
VThe AG hates us, we hate him. It doesn't get more objective than that.
p373
sg8
g9
sg10
VBARTLET
p374
sg12
g9
sa(dp375
g6
VNo.
p376
sg8
g9
sg10
VC.J.
p377
sg12
g9
sa(dp378
g6
VGod bless. What else?
p379
sg8
g15
sg10
VBARTLET
p380
sg12
g9
sa(dp381
g6
VHaffley's giving us the hard sell on this education plan. He's talking about moving on teacher incentives.
p382
sg8
g15
sg10
VTOBY
p383
sg12
g9
sa(dp384
g6
VHe's prepared to actually pay teachers more?
p385
sg8
g15
sg10
VBARTLET
p386
sg12
g9
sa(dp387
g6
VIf the meet higher standards they get a cash bump, pay for performance.
p388
sg8
g15
sg10
VTOBY
p389
sg12
g9
sa(dp390
g6
VSantos' campaign is going to be livid. Education's a tent pole issue for them and performance pay was a big part of their plan.
p391
sg8
g9
sg10
VC.J.
p392
sg12
g9
sa(dp393
g6
VLikely as not Haffley's baiting us, hoping we'll take the issue away from Santos.
p394
sg8
g9
sg10
VTOBY
p395
sg12
g9
sa(dp396
g6
VYou think we should skip it?
p397
sg8
g55
sg10
VBARTLET
p398
sg12
g9
sa(dp399
g6
VNo. I think we should call his bluff.
p400
sg8
g55
sg10
VTOBY
p401
sg12
g9
sa(dp402
g6
VWe steal a lot of thunder away from the campaign for an education plan that'll die before it hits the floor of the House.
p403
sg8
g55
sg10
VC.J.
p404
sg12
g9
sa(dp405
g6
VMaybe, but I'm not prepared to walk away from it yet. Let's try and figure out if Haffley's serious.
p406
sg8
g15
sg10
VBARTLET
p407
sg12
g9
sa(dp408
g6
VOkay. Campaign's in town today. We'll give them a heads-up. I'll be back in when you've got Moscow.
p409
sg8
g9
sg10
VC.J.
p410
sg12
g9
sa(dp411
g6
VOkay.
p412
sg8
g9
sg10
VBARTLET
p413
sg12
g9
sa(dp414
g6
VThank you, Mr. President.
p415
sg8
g9
sg10
VTOBY
p416
sg12
g15
sa(dp417
g6
VThank you.
p418
sg8
g9
sg10
VBARTLET
p419
sg12
g15
sa(dp420
g6
VWhat they won't tell you is that 5.4 million jobs were actually lost in the last eight years.
p421
sg8
g55
sg10
VVINICK
p422
sg12
g9
sa(dp423
g6
VOliver Babish.
p424
sg8
g9
sg10
VC.J.
p425
sg12
g9
sa(dp426
g6
VWe don't have to talk yet. My caffeine uptake's a bit logy.
p427
sg8
g15
sg10
VBABISH
p428
sg12
g9
sa(dp429
g6
VAn honor just to be in the White House Counsel's company.
p430
sg8
g15
sg10
VC.J.
p431
sg12
g9
sa(dp432
g6
VWhat's your day like?
p433
sg8
g9
sg10
VBABISH
p434
sg12
g9
sa(dp435
g6
VSome people talk about these things with my assistant.
p436
sg8
g15
sg10
VC.J.
p437
sg12
g9
sa(dp438
g6
VHmm, I'm about to monopolize a bunch of your morning with this NASA crap. She should cancel things.
p439
sg8
g55
sg10
VBABISH
p440
sg12
g9
sa(dp441
g6
VI've had the NASA conversation with the FBI three times. I've got my spiel down to a brisk ten minutes.
p442
sg8
g9
sg10
VC.J.
p443
sg12
g9
sa(dp444
g6
VYou're giving me more than that.
p445
sg8
g15
sg10
VBABISH
p446
sg12
g9
sa(dp447
g6
VI was going to say White House Counsel would like a moment, but I guess he took care of that.
p448
sg8
g9
sg10
VMARGARET
p449
sg12
g9
sa(dp450
g6
VNice to see you.
p451
sg8
g9
sg10
VBABISH
p452
sg12
g9
sa(dp453
g6
VHe needs you back in there already.
p454
sg8
g9
sg10
VMARGARET
p455
sg12
g9
sa(dp456
g6
VMargaret will call you when I'm done.
p457
sg8
g9
sg10
VC.J.
p458
sg12
g15
sa(dp459
g6
VI'll wait.
p460
sg8
g55
sg10
VBABISH
p461
sg12
g9
sa(dp462
g6
VWallingford's office still hasn't called back. He's supposed to do the intro at the Denver rally.
p463
sg8
g9
sg10
VRONNA
p464
sg12
g9
sa(dp465
g6
VCall him again. Remind him the Democrats looked like feuding inbreds at the Convention last week. We need their help with our party-unity strategy. We need Congressmen lined up with smiles on at every one of our events. That includes Wallingford, on stage, clapping.
p466
sg8
g9
sg10
VJOSH
p467
sg12
g9
sa(dp468
g6
VWe got it.
p469
sg8
g9
sg10
VBRAM
p470
sg12
g15
sa(dp471
g6
VLeo McGarry, ladies and gentlemen! Let's send this guy back to the White House.
p472
sg8
g9
sg10
VEMCEE
p473
sg12
g9
sa(dp474
g6
VPress is here for the Q&A. Now remember, you control the conversation. You don't like what the ask, don't accept the premise of the question.
p475
sg8
g15
sg10
VANNABETH
p476
sg12
g9
sa(dp477
g6
VThat's my line, you know. You're quoting me.
p478
sg8
g9
sg10
VLEO
p479
sg12
g9
sa(dp480
g6
VI thought it was Toby.
p481
sg8
g9
sg10
VANNABETH
p482
sg12
g9
sa(dp483
g6
VWhere do you think he got it? I've been rejecting the premises of questions since the Hoover Administration.
p484
sg8
g15
sg10
VLEO
p485
sg12
g9
sa(dp486
g6
VGood to see you, Christine.
p487
sg8
g9
sg10
VLEO
p488
sg12
g9
sa(dp489
g6
VWhen was the last time you went to a meeting?
p490
sg8
g9
sg10
VCHRISTINE
p491
sg12
g9
sa(dp492
g6
VI've made statements about that before. You should take a look at them.
p493
sg8
g9
sg10
VLEO
p494
sg12
g9
sa(dp495
g6
VDoes your cardiologist think you can handle this kind of stress?
p496
sg8
g9
sg10
VREPORTER
p497
sg12
g9
sa(dp498
g6
VMy cardiologist has made a statement about that. You should take a look at it. See, what I'd like to talk about is what Matt Santos can do to improve the public schools here in Pennsylvania and across the country.
p499
sg8
g15
sg10
VLEO
p500
sg12
g9
sa(dp501
g6
VHey. Is she in there?
p502
sg8
g9
sg10
VTOBY
p503
sg12
g9
sa(dp504
g6
VShe's in with Babish. She could be awhile.
p505
sg8
g9
sg10
VMARGARET
p506
sg12
g9
sa(dp507
g6
VWhy?
p508
sg8
g9
sg10
VTOBY
p509
sg12
g9
sa(dp510
g6
VApparently, he's got a lot to talk about.
p511
sg8
g15
sg10
VMARGARET
p512
sg12
g9
sa(dp513
g6
VDo me a favor: call me when she gets out.
p514
sg8
g9
sg10
VTOBY
p515
sg12
g9
sa(dp516
g6
VI'm getting a lot of questions about McGarry's health. I'm gonna need a better answer than he's cut out red meat.
p517
sg8
g9
sg10
VSANTOS
p518
sg12
g9
sa(dp519
g6
VCome here a second.
p520
sg8
g9
sg10
VJOSH
p521
sg12
g9
sa(dp522
g6
VNine points.
p523
sg8
g9
sg10
VJOSH
p524
sg12
g9
sa(dp525
g6
VThat's all?
p526
sg8
g9
sg10
VSANTOS
p527
sg12
g9
sa(dp528
g6
VWe trail a tiny bit on strong leader, but we're neck-and-neck on values, we got a solid lead on cares about our needs optimistic vision for the country's future. Joey Lucas will break this down at HQ, but... man!
p529
sg8
g15
sg10
VJOSH
p530
sg12
g9
sa(dp531
g6
VOnly nine points down? Yes!
p532
sg8
g9
sg10
VSANTOS
p533
sg12
g9
sa(dp534
g6
VYou heard it from Nancy McNally?
p535
sg8
g9
sg10
VBABISH
p536
sg12
g9
sa(dp537
g6
VI heard it straight from Kelwick at NASA and he wasn't going to blab any more than he had to because the whole thing made his department look terrible. The space station's losing oxygen, they've got a $4 billion space shuttle fleet and not one of them is ready to leave the ground because of a retrofit he ordered.
p538
sg8
g55
sg10
VC.J.
p539
sg12
g9
sa(dp540
g6
VEmbarrassing.
p541
sg8
g9
sg10
VBABISH
p542
sg12
g9
sa(dp543
g6
VA little bit.
p544
sg8
g9
sg10
VC.J.
p545
sg12
g55
sa(dp546
g6
VYou ever notice his eyebrows?
p547
sg8
g9
sg10
VBABISH
p548
sg12
g9
sa(dp549
g6
VKelwick's?
p550
sg8
g9
sg10
VC.J.
p551
sg12
g9
sa(dp552
g6
VVery... active.
p553
sg8
g9
sg10
VBABISH
p554
sg12
g9
sa(dp555
g6
VAre they?
p556
sg8
g9
sg10
VC.J.
p557
sg12
g55
sa(dp558
g6
VI'm vamping. I brought the wrong folder. Humor me, though: who else new before the story went public?
p559
sg8
g9
sg10
VBABISH
p560
sg12
g9
sa(dp561
g6
VNASA Director of Ops, NASA ISS Director...
p562
sg8
g9
sg10
VC.J.
p563
sg12
g9
sa(dp564
g6
VYeah. Who at the White House?
p565
sg8
g9
sg10
VBABISH
p566
sg12
g9
sa(dp567
g6
VYou rang?
p568
sg8
g9
sg10
VKATE
p569
sg12
g9
sa(dp570
g6
VYeah.
p571
sg8
g9
sg10
VTOBY
p572
sg12
g9
sa(dp573
g6
VC.J.'s with Babish.
p574
sg8
g9
sg10
VTOBY
p575
sg12
g9
sa(dp576
g6
VRight now?
p577
sg8
g9
sg10
VKATE
p578
sg12
g9
sa(dp579
g6
VDid you talk to him?
p580
sg8
g15
sg10
VTOBY
p581
sg12
g9
sa(dp582
g6
VYesterday.
p583
sg8
g9
sg10
VKATE
p584
sg12
g9
sa(dp585
g6
VWhat did you tell him?
p586
sg8
g9
sg10
VTOBY
p587
sg12
g9
sa(dp588
g6
VI didn't tell him anything. I said the FBI thinks they're seeing a trail.
p589
sg8
g9
sg10
VKATE
p590
sg12
g9
sa(dp591
g6
VA trail?
p592
sg8
g9
sg10
VTOBY
p593
sg12
g9
sa(dp594
g6
VYeah. If they have a theory, they have to follow it out.
p595
sg8
g9
sg10
VKATE
p596
sg12
g9
sa(dp597
g6
VYou handed C.J. Cregg to the White House Counsel?
p598
sg8
g9
sg10
VTOBY
p599
sg12
g9
sa(dp600
g6
VI did nothing of the kind.
p601
sg8
g15
sg10
VKATE
p602
sg12
g9
sa(dp603
g6
VDo you have anything that resembles hard evidence?
p604
sg8
g9
sg10
VTOBY
p605
sg12
g9
sa(dp606
g6
VI'm not handing them C.J. Cregg. I'll be in my office.
p607
sg8
g9
sg10
VKATE
p608
sg12
g9
sa(dp609
g6
V43 on "strong leader"; six points up on "Will Unite the Country"; this is Christmas morning here in Santos-McGarry land.
p610
sg8
g15
sg10
VJOSH
p611
sg12
g9
sa(dp612
g6
VLet me see.
p613
sg8
g9
sg10
VSANTOS
p614
sg12
g9
sa(dp615
g6
VCheck out state-by-state.
p616
sg8
g9
sg10
VJOSH
p617
sg12
g9
sa(dp618
g6
VThat's a nice shot.
p619
sg8
g55
sg10
VJOSH
p620
sg12
g9
sa(dp621
g6
VMy wife wants to make T-shirts out of that one.
p622
sg8
g9
sg10
VSANTOS
p623
sg12
g9
sa(dp624
g6
VWell, tell here to PhotoShop out the question mark.
p625
sg8
g15
sg10
VJOSH
p626
sg12
g9
sa(dp627
g6
VWhat's this.
p628
sg8
g9
sg10
VSANTOS
p629
sg12
g9
sa(dp630
g6
VThat's Leo's approval rating on his own. Don't worry about it. It's not a relevant number. Sticker shock on the part of the voters is all. It's not like he's a drag on the ticket. People are voting for the top of the ticket, anyway. We've got plenty of time to pull his numbers up. One poll.
p631
sg8
g15
sg10
VJOSH
p632
sg12
g9
sa(dp633
g6
VYeah.
p634
sg8
g9
sg10
VSANTOS
p635
sg12
g9
sa(dp636
g6
VNice building.
p637
sg8
g15
sg10
VHELEN
p638
sg12
g9
sa(dp639
g6
VYou know somebody named Jackie in Advance?
p640
sg8
g9
sg10
VSANTOS
p641
sg12
g9
sa(dp642
g6
VNo.
p643
sg8
g9
sg10
VJOSH
p644
sg12
g9
sa(dp645
g6
VSomebody told me there was a staffer who put us 18 points down in the pool. There's nobody named Jackie in Advance?
p646
sg8
g15
sg10
VSANTOS
p647
sg12
g9
sa(dp648
g6
VNot anymore there's not.
p649
sg8
g9
sg10
VJOSH
p650
sg12
g9
sa(dp651
g6
VThe office is still mostly in boxes. We've only hired about half the staff so far, but it's a start.
p652
sg8
g9
sg10
VJOSH
p653
sg12
g9
sa(dp654
g6
VWell, as long as you've got a couple of people here to get the ball rolling, I guess.
p655
sg8
g9
sg10
VSANTOS
p656
sg12
g9
sa(dp657
g6
VThat, I think we've got.
p658
sg8
g9
sg10
VJOSH
p659
sg12
g9
sa(dp660
g6
VWelcome to the mothership.
p661
sg8
g9
sg10
VJOSH
p662
sg12
g9
sa(dp663
g6
VEdie.
p664
sg8
g9
sg10
VJOSH
p665
sg12
g9
sa(dp666
g6
VJosh. Oh, my God. The Congressman.
p667
sg8
g9
sg10
VEDIE
p668
sg12
g9
sa(dp669
g6
VOh, thank you. Thank you. Stop. Thank you, all.
p670
sg8
g9
sg10
VSANTOS
p671
sg12
g9
sa(dp672
g6
VThat's enough. Back to work.
p673
sg8
g9
sg10
VJOSH
p674
sg12
g9
sa(dp675
g6
VThis is Edith Ortega, Deputy Campaign Manager for Strategic Planning. Anything I'm not handling, she is.
p676
sg8
g9
sg10
VJOSH
p677
sg12
g9
sa(dp678
g6
VPleasure to meet you.
p679
sg8
g9
sg10
VSANTOS
p680
sg12
g9
sa(dp681
g6
VThrilled to be on board.
p682
sg8
g9
sg10
VEDIE
p683
sg12
g9
sa(dp684
g6
VJulian Mirada, Deputy Policy Director. I'll take credit for most of what he does.
p685
sg8
g15
sg10
VJOSH
p686
sg12
g9
sa(dp687
g6
VHey, Julian.
p688
sg8
g9
sg10
VSANTOS
p689
sg12
g9
sa(dp690
g6
VRalph Lee, Veterans Coordinator. Steve Lacey. Steve's our African-American Steering Committee Chair. Mary DiMartino next to him, Women for Santos. John Vega, Latino Committee Coordinator. That's kind of Minority Row there, now that I think about it. Angie. Angie Worster's our blogmaster.
p691
sg8
g15
sg10
VJOSH
p692
sg12
g9
sa(dp693
g6
VHey, Angie.
p694
sg8
g9
sg10
VSANTOS
p695
sg12
g9
sa(dp696
g6
VAngie's assistant, Craig, and this is his crew. They're making a documentary on Craig. I'm not entirely clear why. Smile.
p697
sg8
g9
sg10
VJOSH
p698
sg12
g9
sa(dp699
g6
VCraig's doing a great job. We're proud of him.
p700
sg8
g15
sg10
VSANTOS
p701
sg12
g9
sa(dp702
g6
VVery proud.
p703
sg8
g15
sg10
VJOSH
p704
sg12
g9
sa(dp705
g6
VMrs. Santos, we need to get you to Georgetown, speech to the DNC Women's Caucus.
p706
sg8
g15
sg10
VBRAM
p707
sg12
g9
sa(dp708
g6
VRight.
p709
sg8
g9
sg10
VHELEN
p710
sg12
g9
sa(dp711
g6
VSee you tonight?
p712
sg8
g9
sg10
VSANTOS
p713
sg12
g15
sa(dp714
g6
VI've got to swing through Virginia. I think we catch up with you in Denver.
p715
sg8
g9
sg10
VHELEN
p716
sg12
g9
sa(dp717
g6
VGood thing I carry a picture.
p718
sg8
g9
sg10
VSANTOS
p719
sg12
g15
sa(dp720
g6
VCall the kids before 7:00.
p721
sg8
g9
sg10
VHELEN
p722
sg12
g9
sa(dp723
g6
VMy office is over there. You're welcome to drop your stuff.
p724
sg8
g9
sg10
VJOSH
p725
sg12
g9
sa(dp726
g6
VWhere's mine?
p727
sg8
g9
sg10
VSANTOS
p728
sg12
g9
sa(dp729
g6
VYou don't have an office.
p730
sg8
g9
sg10
VJOSH
p731
sg12
g9
sa(dp732
g6
VI don't have an office?
p733
sg8
g9
sg10
VSANTOS
p734
sg12
g55
sa(dp735
g6
VYou're never going to step foot in this building again.
p736
sg8
g15
sg10
VJOSH
p737
sg12
g9
sa(dp738
g6
VCongressman, these are for you.
p739
sg8
g9
sg10
VBRAM
p740
sg12
g9
sa(dp741
g6
VJosh, Gregory Ward, he's interviewing for Midwest Regional Political Director. And Dana Sharpey's after that. Congressman, if you need to use Josh's office, Stan Picket needs you right now. He's one of the Deputy Communications Directors.
p742
sg8
g9
sg10
VBRAM
p743
sg12
g9
sa(dp744
g6
VYeah, send him in.
p745
sg8
g9
sg10
VSANTOS
p746
sg12
g9
sa(dp747
g6
VI finally heard from Wallingford's guy. He can't do the Denver rally. He's going to be in Washington.
p748
sg8
g15
sg10
VRONNA
p749
sg12
g9
sa(dp750
g6
VYou explained how integral the little turd is to our party-unity strategy?
p751
sg8
g9
sg10
VJOSH
p752
sg12
g9
sa(dp753
g6
VI did. Hammond wasn't free either.
p754
sg8
g9
sg10
VRONNA
p755
sg12
g9
sa(dp756
g6
VThen get somebody else from the Colorado Congressional Delegation.
p757
sg8
g9
sg10
VJOSH
p758
sg12
g9
sa(dp759
g6
VIt's a hard sell, no doubt about it. But, Santos knew what he was getting. You don't pick Leo McGarry as a running mate with all that baggage because you want to; you do it because you have to. Santos needs that heft and foreign policy savvy which he certainly doesn't have himself.
p760
sg8
g15
sg10
VREPORTER
p761
sg12
g9
sa(dp762
g6
VWhere was I?
p763
sg8
g9
sg10
VC.J.
p764
sg12
g9
sa(dp765
g6
VKate Harper.
p766
sg8
g9
sg10
VBABISH
p767
sg12
g9
sa(dp768
g6
VYes. She was briefing me because she was in the sessions with NASA and DOD.
p769
sg8
g9
sg10
VC.J.
p770
sg12
g9
sa(dp771
g6
VDo you like her?
p772
sg8
g9
sg10
VBABISH
p773
sg12
g15
sa(dp774
g6
VSure.
p775
sg8
g9
sg10
VC.J.
p776
sg12
g9
sa(dp777
g6
VShe's an achiever.
p778
sg8
g9
sg10
VBABISH
p779
sg12
g9
sa(dp780
g6
VYoung for the job, and I think she's earned it.
p781
sg8
g15
sg10
VC.J.
p782
sg12
g9
sa(dp783
g6
VMoving up.
p784
sg8
g9
sg10
VBABISH
p785
sg12
g55
sa(dp786
g6
VNancy McNally trusts her quite a lot.
p787
sg8
g9
sg10
VC.J.
p788
sg12
g15
sa(dp789
g6
VDo you?
p790
sg8
g9
sg10
VBABISH
p791
sg12
g15
sa(dp792
g6
VSure.
p793
sg8
g9
sg10
VC.J.
p794
sg12
g9
sa(dp795
g6
VSo she was your go-to gal with questions or anything else?
p796
sg8
g9
sg10
VBABISH
p797
sg12
g9
sa(dp798
g6
VFor the most part.
p799
sg8
g9
sg10
VC.J.
p800
sg12
g9
sa(dp801
g6
VWell, what about the other part?
p802
sg8
g9
sg10
VBABISH
p803
sg12
g9
sa(dp804
g6
VNo, she was really it.
p805
sg8
g9
sg10
VC.J.
p806
sg12
g9
sa(dp807
g6
VYou, uh, consult with anyone else before you briefed the President?
p808
sg8
g9
sg10
VBABISH
p809
sg12
g9
sa(dp810
g6
VI... no. I mean... I had a conversation with Leo McGarry about some of the technical elements that were put in place while he was here, and I spoke to Toby Ziegler about it, and I had Hutchinson's deputy brief me.
p811
sg8
g55
sg10
VC.J.
p812
sg12
g9
sa(dp813
g6
VWhoa, that's a bunch of people. Kate Harper didn't have all the information?
p814
sg8
g15
sg10
VBABISH
p815
sg12
g9
sa(dp816
g6
VNo, I'm sure she did.
p817
sg8
g9
sg10
VC.J.
p818
sg12
g9
sa(dp819
g6
VThink she might have shared it with Greg Brock?
p820
sg8
g9
sg10
VBABISH
p821
sg12
g9
sa(dp822
g6
VOliver, she's running the investigation.
p823
sg8
g9
sg10
VC.J.
p824
sg12
g9
sa(dp825
g6
VThat wasn't my idea.
p826
sg8
g9
sg10
VBABISH
p827
sg12
g9
sa(dp828
g6
VWell, next time we'll check with you.
p829
sg8
g9
sg10
VC.J.
p830
sg12
g9
sa(dp831
g6
VWell, you're the one who didn't want to talk to her about it.
p832
sg8
g15
sg10
VBABISH
p833
sg12
g9
sa(dp834
g6
VIt's not that I didn't want to.
p835
sg8
g9
sg10
VC.J.
p836
sg12
g9
sa(dp837
g6
VBut you went to Leo and Toby. So let's go back to the earlier question. Do you trust her?
p838
sg8
g15
sg10
VBABISH
p839
sg12
g9
sa(dp840
g6
VJennifer Howard, interviewing for Deputy Policy Director for Health Care and Don needs you.
p841
sg8
g9
sg10
VRONNA
p842
sg12
g9
sa(dp843
g6
VYou've got to give me five minutes. I just did 12 interviews, back-to-back.
p844
sg8
g9
sg10
VJOSH
p845
sg12
g9
sa(dp846
g6
VWell, you're eight interviews behind. Can we let Chuck do some of these?
p847
sg8
g9
sg10
VRONNA
p848
sg12
g9
sa(dp849
g6
VNo.
p850
sg8
g9
sg10
VJOSH
p851
sg12
g9
sa(dp852
g6
VMr. McGarry just got in.
p853
sg8
g9
sg10
VRONNA
p854
sg12
g9
sa(dp855
g6
VLeo's here?
p856
sg8
g9
sg10
VJOSH
p857
sg12
g9
sa(dp858
g6
VWelcome to our happy home.
p859
sg8
g15
sg10
VJOSH
p860
sg12
g9
sa(dp861
g6
VHey, kid. We need to sit down with your health care guy. This Medicare reform thing is way off.
p862
sg8
g15
sg10
VLEO
p863
sg12
g9
sa(dp864
g6
VWe'll look at it.
p865
sg8
g9
sg10
VJOSH
p866
sg12
g9
sa(dp867
g6
VWhen are we at the White House?
p868
sg8
g9
sg10
VLEO
p869
sg12
g9
sa(dp870
g6
VYou can sit that one out, give you some time with the guys here.
p871
sg8
g9
sg10
VJOSH
p872
sg12
g9
sa(dp873
g6
VI'll sit quiet and keep my mouth shut. Be nice to just say hello.
p874
sg8
g15
sg10
VLEO
p875
sg12
g9
sa(dp876
g6
VSure. Uh, we've got to make it quick, though, make sure you don't miss any policy briefings.
p877
sg8
g9
sg10
VJOSH
p878
sg12
g9
sa(dp879
g6
VSir, can you take a quick look. We've made some changes.
p880
sg8
g9
sg10
VEDIE
p881
sg12
g9
sa(dp882
g6
VHey, Annabeth. These are his clips of about a half an hour ago.
p883
sg8
g9
sg10
VRONNA
p884
sg12
g9
sa(dp885
g6
VDid you see these yet?
p886
sg8
g9
sg10
VANNABETH
p887
sg12
g9
sa(dp888
g6
VExcuse me, Mr. McGarry, can I grab you for a moment?
p889
sg8
g55
sg10
VBRAM
p890
sg12
g9
sa(dp891
g6
VSure.
p892
sg8
g9
sg10
VLEO
p893
sg12
g9
sa(dp894
g6
VHey, are those clips?
p895
sg8
g9
sg10
VLEO
p896
sg12
g9
sa(dp897
g6
VBram needs you and then we have a makeup consultant waiting. The base is looking a little orange under the fluorescents.
p898
sg8
g9
sg10
VANNABETH
p899
sg12
g9
sa(dp900
g6
VShe doesn't want me to look at clips.
p901
sg8
g9
sg10
VLEO
p902
sg12
g9
sa(dp903
g6
VMr. McGarry, this is Special Agent Ellis Taylor.
p904
sg8
g9
sg10
VBRAM
p905
sg12
g55
sa(dp906
g6
VHow do you do?
p907
sg8
g9
sg10
VLEO
p908
sg12
g9
sa(dp909
g6
VOkay. So who's on the Congressman's detail and who got stuck with me?
p910
sg8
g9
sg10
VLEO
p911
sg12
g9
sa(dp912
g6
VNo, no, sir. This is all you.
p913
sg8
g15
sg10
VTAYLOR
p914
sg12
g9
sa(dp915
g6
VOuch. Ooh.
p916
sg8
g9
sg10
VJOSH
p917
sg12
g9
sa(dp918
g6
VIs the Congressman getting hit like this?
p919
sg8
g55
sg10
VANNABETH
p920
sg12
g9
sa(dp921
g6
VNot like this.
p922
sg8
g9
sg10
VJOSH
p923
sg12
g55
sa(dp924
g6
VJoey Lucas is here.
p925
sg8
g9
sg10
VBRAM
p926
sg12
g55
sa(dp927
g6
VAll right. Tell Ronna to halt the interview parade till I'm done with Joey.
p928
sg8
g9
sg10
VJOSH
p929
sg12
g9
sa(dp930
g6
VAre those Mr. McGarry's clips?
p931
sg8
g9
sg10
VBRAM
p932
sg12
g9
sa(dp933
g6
VYeah.
p934
sg8
g9
sg10
VJOSH
p935
sg12
g9
sa(dp936
g6
VDid you see the Wizard of Oz cartoon? Matt cowering in front of the big head.
p937
sg8
g9
sg10
VBRAM
p938
sg12
g9
sa(dp939
g6
VBartlet?
p940
sg8
g9
sg10
VJOSH
p941
sg12
g9
sa(dp942
g6
VHe's there, too.
p943
sg8
g9
sg10
VBRAM
p944
sg12
g9
sa(dp945
g6
VWho's the big head?
p946
sg8
g9
sg10
VJOSH
p947
sg12
g9
sa(dp948
g6
VLeo.
p949
sg8
g9
sg10
VANNABETH
p950
sg12
g9
sa(dp951
g6
VLeo's the big head, Matt's in a Dorothy costume.
p952
sg8
g9
sg10
VBRAM
p953
sg12
g9
sa(dp954
g6
VWhere's Bartlet?
p955
sg8
g9
sg10
VJOSH
p956
sg12
g9
sa(dp957
g6
VThey guy behind the curtain pulling the strings.
p958
sg8
g9
sg10
VANNABETH
p959
sg12
g9
sa(dp960
g6
VI'm working on it.
p961
sg8
g15
sg10
VJOSH
p962
sg12
g9
sa(dp963
g6
VYou tell me.
p964
sg8
g9
sg10
VJOSH
p965
sg12
g9
sa(dp966
g6
VI'm not sneezing. I'm ordering champagne.
p967
sg8
g9
sg10
VJOSH
p968
sg12
g9
sa(dp969
g6
VNed. Jake, can you get that?
p970
sg8
g9
sg10
VJOSH
p971
sg12
g9
sa(dp972
g6
V"Appealing."
p973
sg8
g9
sg10
VJOSH
p974
sg12
g9
sa(dp975
g6
VThis is really the kind of comment you really don't want to hear coming out of Kenny's mouth.
p976
sg8
g15
sg10
VJOSH
p977
sg12
g9
sa(dp978
g6
VFirst few days are tough.
p979
sg8
g55
sg10
VJOSH
p980
sg12
g9
sa(dp981
g6
VYeah, he doesn't know Leo all that well. It's not like they were old friends.
p982
sg8
g9
sg10
VJOSH
p983
sg12
g9
sa(dp984
g6
VThe Congressman's looking for you. Strategy was supposed to start ten minutes ago.
p985
sg8
g9
sg10
VBRAM
p986
sg12
g9
sa(dp987
g6
VSorry, we got backed up.
p988
sg8
g9
sg10
VJOSH
p989
sg12
g9
sa(dp990
g6
VJosh is in the market for a deputy. Someone to help him out, if anyone's got a cousin who needs a job. What do we got?
p991
sg8
g15
sg10
VSANTOS
p992
sg12
g9
sa(dp993
g6
VOkay, the current schedule is yellow. If you have a blue copy or a pink copy burn it. It is tragically out of date and will put you in Kansas when the rest of us are in Michigan.
p994
sg8
g55
sg10
VEDIE
p995
sg12
g9
sa(dp996
g6
VWhere's Leo?
p997
sg8
g9
sg10
VJOSH
p998
sg12
g9
sa(dp999
g6
VHe's talking with Lorraine about the Medicaid piece. He'll be right in.
p1000
sg8
g9
sg10
VANNABETH
p1001
sg12
g9
sa(dp1002
g6
VMaybe we should wait a second.
p1003
sg8
g55
sg10
VJOSH
p1004
sg12
g9
sa(dp1005
g6
VWhat else?
p1006
sg8
g9
sg10
VSANTOS
p1007
sg12
g9
sa(dp1008
g6
VYeah.
p1009
sg8
g9
sg10
VSANTOS
p1010
sg12
g9
sa(dp1011
g6
VBecause?
p1012
sg8
g9
sg10
VNED
p1013
sg12
g9
sa(dp1014
g6
VIt has something to do with strong arms and fireplaces and you don't want to hear it from Kenny.
p1015
sg8
g9
sg10
VJOSH
p1016
sg12
g9
sa(dp1017
g6
VOkay, I would have gone with telegenic, but if hunky works for you I'll take it.
p1018
sg8
g9
sg10
VSANTOS
p1019
sg12
g9
sa(dp1020
g6
VYou read the summary?
p1021
sg8
g9
sg10
VJOSH
p1022
sg12
g9
sa(dp1023
g6
VYeah. I did. I'm, uh, appealing.
p1024
sg8
g9
sg10
VSANTOS
p1025
sg12
g9
sa(dp1026
g6
VWell, if appealing is what they believe, maybe we should play into it. Lock it up, build on it.
p1027
sg8
g15
sg10
VJOSH
p1028
sg12
g9
sa(dp1029
g6
VThat's good news. You've got the charisma factor. You can't teach that. Now let's just see if we can project some depth.
p1030
sg8
g15
sg10
VANNABETH
p1031
sg12
g9
sa(dp1032
g6
VI could carry around a copy of Proust.
p1033
sg8
g55
sg10
VSANTOS
p1034
sg12
g9
sa(dp1035
g6
VSo Scheduling needs to make room for more Q&As. Let everybody know he's not just a pretty face with nothing to say.
p1036
sg8
g15
sg10
VJOSH
p1037
sg12
g9
sa(dp1038
g6
VTwo a day?
p1039
sg8
g9
sg10
VEDIE
p1040
sg12
g9
sa(dp1041
g6
VHow about one after every speech?
p1042
sg8
g15
sg10
VSANTOS
p1043
sg12
g9
sa(dp1044
g6
VThat's a lot of time out of the schedule.
p1045
sg8
g9
sg10
VEDIE
p1046
sg12
g9
sa(dp1047
g6
VIt'll be worth it.
p1048
sg8
g15
sg10
VSANTOS
p1049
sg12
g9
sa(dp1050
g6
VHe's right. We're talking five conversations with the press pool every day.
p1051
sg8
g15
sg10
VJOSH
p1052
sg12
g9
sa(dp1053
g6
VFive?
p1054
sg8
g9
sg10
VEDIE
p1055
sg12
g9
sa(dp1056
g6
VEasily. And remember, you control the conversation.
p1057
sg8
g9
sg10
VJOSH
p1058
sg12
g9
sa(dp1059
g6
VIf you don't like what they're asking, don't accept the premise of the question.
p1060
sg8
g15
sg10
VANNABETH
p1061
sg12
g9
sa(dp1062
g6
VLeo McGarry, ladies and gentlemen.
p1063
sg8
g9
sg10
VSANTOS
p1064
sg12
g9
sa(dp1065
g6
VSorry, a little mix-up with some of the Medicaid figures.
p1066
sg8
g9
sg10
VLEO
p1067
sg12
g9
sa(dp1068
g6
VGood to have you here. Interest groups?
p1069
sg8
g9
sg10
VSANTOS
p1070
sg12
g9
sa(dp1071
g6
VBroad-based, moderate groups first.
p1072
sg8
g15
sg10
VJOSH
p1073
sg12
g9
sa(dp1074
g6
VCareful.
p1075
sg8
g9
sg10
VANNABETH
p1076
sg12
g9
sa(dp1077
g6
VThis isn't the primary, anymore. We've got to attack center, hard.
p1078
sg8
g15
sg10
VJOSH
p1079
sg12
g9
sa(dp1080
g6
VArnold Vinick is a moderate Republican. There's not a lot of center he doesn't have a hold on.
p1081
sg8
g15
sg10
VANNABETH
p1082
sg12
g9
sa(dp1083
g6
VShe's right. We need the left flank.
p1084
sg8
g9
sg10
VSANTOS
p1085
sg12
g9
sa(dp1086
g6
VYou can't concede the center. Battle's won and lost there.
p1087
sg8
g9
sg10
VLEO
p1088
sg12
g9
sa(dp1089
g6
VAnd without the Democratic base I'm not going to make it onto the battlefield.
p1090
sg8
g55
sg10
VSANTOS
p1091
sg12
g9
sa(dp1092
g6
VEverybody. What else?
p1093
sg8
g9
sg10
VJOSH
p1094
sg12
g9
sa(dp1095
g6
VThere's been a lot of interest in Mr. McGarry's personal history. Do we want to reevaluate the way we're addressing that?
p1096
sg8
g15
sg10
VEDIE
p1097
sg12
g9
sa(dp1098
g6
VI've made statements about all of it in the past; the addiction, the health stuff. Just refer them to that.
p1099
sg8
g55
sg10
VLEO
p1100
sg12
g9
sa(dp1101
g6
VI'm not sure the press is satisfied with that.
p1102
sg8
g15
sg10
VEDIE
p1103
sg12
g9
sa(dp1104
g6
VWe could reconsider doing a mea culpa.
p1105
sg8
g9
sg10
VANNABETH
p1106
sg12
g9
sa(dp1107
g6
VOr 20/20. You tell your story, cry a little and get on with it.
p1108
sg8
g55
sg10
VANNABETH
p1109
sg12
g9
sa(dp1110
g6
VMight simplify matters.
p1111
sg8
g15
sg10
VSANTOS
p1112
sg12
g9
sa(dp1113
g6
VIf I thought it would work I'd cry all afternoon. I don't think it'll help.
p1114
sg8
g55
sg10
VLEO
p1115
sg12
g9
sa(dp1116
g6
VMy daughter, Mallory?
p1117
sg8
g15
sg10
VLEO
p1118
sg12
g9
sa(dp1119
g6
VShe might enjoy joining you on the road.
p1120
sg8
g15
sg10
VEDIE
p1121
sg12
g9
sa(dp1122
g6
VI sincerely doubt it, but I understand the press might enjoy it.
p1123
sg8
g9
sg10
VLEO
p1124
sg12
g9
sa(dp1125
g6
VI'll give her a call.
p1126
sg8
g9
sg10
VANNABETH
p1127
sg12
g9
sa(dp1128
g6
VFive a day?
p1129
sg8
g9
sg10
VLEO
p1130
sg12
g9
sa(dp1131
g6
VIt's a new strategy. We're trying it out.
p1132
sg8
g9
sg10
VJOSH
p1133
sg12
g9
sa(dp1134
g6
VThat's a lot of feeding the beast.
p1135
sg8
g55
sg10
VLEO
p1136
sg12
g9
sa(dp1137
g6
VWe're going to try it.
p1138
sg8
g9
sg10
VSANTOS
p1139
sg12
g9
sa(dp1140
g6
VI'm not sure you want to give the press that many shots at you.
p1141
sg8
g9
sg10
VLEO
p1142
sg12
g9
sa(dp1143
g6
VWhat else?
p1144
sg8
g9
sg10
VSANTOS
p1145
sg12
g9
sa(dp1146
g6
VAny chance Mallory would be willing to bring the baby on the road?
p1147
sg8
g15
sg10
VEDIE
p1148
sg12
g9
sa(dp1149
g6
VIs it a photogenic baby?
p1150
sg8
g15
sg10
VBRAM
p1151
sg12
g9
sa(dp1152
g6
VHey, not all of them are.
p1153
sg8
g9
sg10
VBRAM
p1154
sg12
g9
sa(dp1155
g6
VHow are you holding up?
p1156
sg8
g9
sg10
VJOSH
p1157
sg12
g9
sa(dp1158
g6
VFine. There's a lot of flashbulbs. You may get more mileage out of me in a room with the strategists instead of the cameras.
p1159
sg8
g9
sg10
VLEO
p1160
sg12
g9
sa(dp1161
g6
VIt's that prize-winning face.
p1162
sg8
g9
sg10
VJOSH
p1163
sg12
g9
sa(dp1164
g6
VThe media gal's right. The press is doing a lot of talking about my love for sedatives and single-malt.
p1165
sg8
g15
sg10
VLEO
p1166
sg12
g9
sa(dp1167
g6
VWe knew it was coming. You worry too much. That's my job.
p1168
sg8
g9
sg10
VJOSH
p1169
sg12
g9
sa(dp1170
g6
VAnd you're not worried?
p1171
sg8
g55
sg10
VLEO
p1172
sg12
g9
sa(dp1173
g6
VWe're only nine points down. White House, half an hour, you and me.
p1174
sg8
g9
sg10
VJOSH
p1175
sg12
g9
sa(dp1176
g6
VMr. McGarry, we need to get a few shots of you and the Congressman. We think it'll be better with you in this shirt. The Congressman's wearing white. [pause] Mr. McGarry?
p1177
sg8
g15
sg10
VBRAM
p1178
sg12
g9
sa(dp1179
g6
VYeah.
p1180
sg8
g9
sg10
VLEO
p1181
sg12
g9
sa(dp1182
g6
VYes.
p1183
sg8
g9
sg10
VC.J.
p1184
sg12
g15
sa(dp1185
g6
VThank you.
p1186
sg8
g9
sg10
VC.J.
p1187
sg12
g15
sa(dp1188
g6
VYou want to order lunch?
p1189
sg8
g9
sg10
VBABISH
p1190
sg12
g9
sa(dp1191
g6
VI've got a meeting. The Santos Campaign and the West Wing need to coordinate agendas.
p1192
sg8
g9
sg10
VC.J.
p1193
sg12
g9
sa(dp1194
g6
VI'll order lunch and we'll eat when you get back.
p1195
sg8
g15
sg10
VBABISH
p1196
sg12
g9
sa(dp1197
g6
VYou're a lonely man, aren't you?
p1198
sg8
g55
sg10
VC.J.
p1199
sg12
g9
sa(dp1200
g6
VDo you miss him?
p1201
sg8
g9
sg10
VBABISH
p1202
sg12
g9
sa(dp1203
g6
VWho?
p1204
sg8
g9
sg10
VC.J.
p1205
sg12
g9
sa(dp1206
g6
VJosh, Leo. You guys are spread a little thin. Half your staff bleeding to the campaign, you stuck with the Chief of Staff job, probably still a little Press Secretary agenda on your plate.
p1207
sg8
g9
sg10
VBABISH
p1208
sg12
g9
sa(dp1209
g6
VNot really.
p1210
sg8
g9
sg10
VC.J.
p1211
sg12
g9
sa(dp1212
g6
VReally?
p1213
sg8
g9
sg10
VBABISH
p1214
sg12
g9
sa(dp1215
g6
VNot at all.
p1216
sg8
g9
sg10
VC.J.
p1217
sg12
g9
sa(dp1218
g6
VWell, then why does Greg Brock of the New York Times appear on your call log an average of five times a week in the six months before he published his leak story? He spent that much time with Leo McGarry?
p1219
sg8
g55
sg10
VBABISH
p1220
sg12
g9
sa(dp1221
g6
VI really have to go now.
p1222
sg8
g9
sg10
VC.J.
p1223
sg12
g9
sa(dp1224
g6
VI'm thinking turkey club for me. Do you want some kind of salad?
p1225
sg8
g15
sg10
VBABISH
p1226
sg12
g9
sa(dp1227
g6
VAnnabeth camped out on your shoulder, that's got to be something.
p1228
sg8
g15
sg10
VTOBY
p1229
sg12
g9
sa(dp1230
g6
VSix kinds of makeup.
p1231
sg8
g9
sg10
VLEO
p1232
sg12
g9
sa(dp1233
g6
VYeah, she's relentless.
p1234
sg8
g9
sg10
VJOSH
p1235
sg12
g9
sa(dp1236
g6
VI'm worried tomorrow she's going to braid my hair.
p1237
sg8
g55
sg10
VLEO
p1238
sg12
g9
sa(dp1239
g6
VSorry.
p1240
sg8
g9
sg10
VC.J.
p1241
sg12
g9
sa(dp1242
g6
VHey.
p1243
sg8
g9
sg10
VJOSH
p1244
sg12
g9
sa(dp1245
g6
VSight for sore eyes.
p1246
sg8
g55
sg10
VLEO
p1247
sg12
g9
sa(dp1248
g6
VAnd you. Look at this. I feel like we should take a picture.
p1249
sg8
g9
sg10
VC.J.
p1250
sg12
g9
sa(dp1251
g6
VWe should've got lunch or something.
p1252
sg8
g9
sg10
VTOBY
p1253
sg12
g9
sa(dp1254
g6
VWell, I'm lunching with Oliver Babish. He has his heart set on ruining my day. Sit, sit.
p1255
sg8
g9
sg10
VC.J.
p1256
sg12
g9
sa(dp1257
g6
VDid you see our numbers?
p1258
sg8
g15
sg10
VJOSH
p1259
sg12
g15
sa(dp1260
g6
VI did. How the hell did you pull that off?
p1261
sg8
g9
sg10
VC.J.
p1262
sg12
g9
sa(dp1263
g6
VI have no idea.
p1264
sg8
g9
sg10
VJOSH
p1265
sg12
g55
sa(dp1266
g6
VAs soon as you get a message calendar, send it over. We'll be sure to back you up.
p1267
sg8
g9
sg10
VTOBY
p1268
sg12
g9
sa(dp1269
g6
VThat's great.
p1270
sg8
g9
sg10
VJOSH
p1271
sg12
g9
sa(dp1272
g6
VThe President's planning a big push on jobs. Should be a good issue for you.
p1273
sg8
g15
sg10
VC.J.
p1274
sg12
g9
sa(dp1275
g6
VPerfect.
p1276
sg8
g9
sg10
VJOSH
p1277
sg12
g9
sa(dp1278
g6
VWe're getting some movement from Congress on education.
p1279
sg8
g9
sg10
VTOBY
p1280
sg12
g9
sa(dp1281
g6
VWhat kind?
p1282
sg8
g15
sg10
VJOSH
p1283
sg12
g9
sa(dp1284
g6
VWe'll get you a summary but probably class size reduction, a little infrastructure money, some version of performance incentives for teachers.
p1285
sg8
g15
sg10
VC.J.
p1286
sg12
g9
sa(dp1287
g6
VThat's right out of the Santos plan.
p1288
sg8
g9
sg10
VJOSH
p1289
sg12
g9
sa(dp1290
g6
VWell, he probably doesn't have the votes for it.
p1291
sg8
g9
sg10
VC.J.
p1292
sg12
g9
sa(dp1293
g6
VHe definitely doesn't have the votes.
p1294
sg8
g9
sg10
VJOSH
p1295
sg12
g9
sa(dp1296
g6
VBut if he's expressing an interest...
p1297
sg8
g15
sg10
VC.J.
p1298
sg12
g9
sa(dp1299
g6
VHe's expressing an interest because the Vinick camp told him to.
p1300
sg8
g15
sg10
VJOSH
p1301
sg12
g9
sa(dp1302
g6
VCould be.
p1303
sg8
g9
sg10
VTOBY
p1304
sg12
g9
sa(dp1305
g6
VEducation may be the only thing the public knows about Matt Santos other than his hair color. We would be thrilled if you kept the hands off.
p1306
sg8
g15
sg10
VJOSH
p1307
sg12
g9
sa(dp1308
g6
VWow. Okay.
p1309
sg8
g9
sg10
VTOBY
p1310
sg12
g9
sa(dp1311
g6
VYou think we can bring it up in a debate after Jed Bartlet's already moved on it? We'll look like idiots.
p1312
sg8
g15
sg10
VJOSH
p1313
sg12
g9
sa(dp1314
g6
VThat's unfortunate.
p1315
sg8
g55
sg10
VTOBY
p1316
sg12
g9
sa(dp1317
g6
VOkay, everybody, let's take a breath.
p1318
sg8
g9
sg10
VC.J.
p1319
sg12
g9
sa(dp1320
g6
VHaffley is extending an olive branch. I'm sure the President is just being polite. He knows he can't get an education bill passed in his last six months.
p1321
sg8
g15
sg10
VLEO
p1322
sg12
g9
sa(dp1323
g6
VThe guy's got a 66% approval rating. We're not rolling up the rugs.
p1324
sg8
g9
sg10
VC.J.
p1325
sg12
g9
sa(dp1326
g6
VA new Democratic administration will pass a much more powerful bill.
p1327
sg8
g15
sg10
VLEO
p1328
sg12
g9
sa(dp1329
g6
VYou people are nine points down. It's better than 20 points down, but it's not what I'd call a win.
p1330
sg8
g9
sg10
VC.J.
p1331
sg12
g9
sa(dp1332
g6
VHey...
p1333
sg8
g9
sg10
VJOSH
p1334
sg12
g9
sa(dp1335
g6
VThe only reason the Speaker is opening the door at all is because he thinks it may wound your campaign. You think he's going to walk in here a year from now and offer it to the bright-eyed new President?
p1336
sg8
g15
sg10
VTOBY
p1337
sg12
g9
sa(dp1338
g6
VHaffley's playing you.
p1339
sg8
g9
sg10
VLEO
p1340
sg12
g9
sa(dp1341
g6
VNo, actually, he's screwing you, and for the moment, we're comfortable with that.
p1342
sg8
g9
sg10
VTOBY
p1343
sg12
g9
sa(dp1344
g6
VHe's screwing the party.
p1345
sg8
g9
sg10
VLEO
p1346
sg12
g9
sa(dp1347
g6
VLeo.
p1348
sg8
g9
sg10
VJOSH
p1349
sg12
g9
sa(dp1350
g6
VHe's screwing the party and using this administration to do it.
p1351
sg8
g9
sg10
VLEO
p1352
sg12
g9
sa(dp1353
g6
VThe President did not take an oath of party, he took an oath of office.
p1354
sg8
g15
sg10
VC.J.
p1355
sg12
g9
sa(dp1356
g6
VThis has been great. Coordinate your message calendar with Toby.
p1357
sg8
g9
sg10
VC.J.
p1358
sg12
g9
sa(dp1359
g6
VNice to see you both.
p1360
sg8
g9
sg10
VC.J.
p1361
sg12
g9
sa(dp1362
g6
VIs there anything else I can do for you?
p1363
sg8
g9
sg10
VTOBY
p1364
sg12
g9
sa(dp1365
g6
VHey. Babish is still in your office.
p1366
sg8
g9
sg10
VKATE
p1367
sg12
g9
sa(dp1368
g6
VYes.
p1369
sg8
g9
sg10
VC.J.
p1370
sg12
g15
sa(dp1371
g6
VWere you on the call with the Chinese?
p1372
sg8
g9
sg10
VKATE
p1373
sg12
g9
sa(dp1374
g6
VThere was a lot of yelling.
p1375
sg8
g9
sg10
VC.J.
p1376
sg12
g9
sa(dp1377
g6
VThe shuttle launches in a few minutes. You should probably be down there.
p1378
sg8
g9
sg10
VKATE
p1379
sg12
g9
sa(dp1380
g6
VIf he has a minute, I'd like to say hi.
p1381
sg8
g9
sg10
VLEO
p1382
sg12
g9
sa(dp1383
g6
VHe's just on his way out.
p1384
sg8
g9
sg10
VNANCY
p1385
sg12
g9
sa(dp1386
g6
VI thought I heard that voice. I'm headed for the dungeon, care for a stroll?
p1387
sg8
g55
sg10
VBARTLET
p1388
sg12
g9
sa(dp1389
g6
VI'd love to.
p1390
sg8
g15
sg10
VLEO
p1391
sg12
g15
sa(dp1392
g6
VI'm surprised the let you off the trail.
p1393
sg8
g9
sg10
VBARTLET
p1394
sg12
g9
sa(dp1395
g6
VI ducked out with Josh to do a house call, coordinate policy with Toby and C.J.
p1396
sg8
g9
sg10
VLEO
p1397
sg12
g9
sa(dp1398
g6
VWell, you're not a campaign manager, now you're a candidate.
p1399
sg8
g15
sg10
VBARTLET
p1400
sg12
g9
sa(dp1401
g6
VThey mentioned something about that.
p1402
sg8
g9
sg10
VLEO
p1403
sg12
g9
sa(dp1404
g6
VYou having a good time?
p1405
sg8
g15
sg10
VBARTLET
p1406
sg12
g9
sa(dp1407
g6
VIt's quite a ride. We spoke to Toby and C.J. about this education plan Haffley's putting on the table. You think it's going anywhere?
p1408
sg8
g55
sg10
VLEO
p1409
sg12
g9
sa(dp1410
g6
VI'm rolling the dice.
p1411
sg8
g9
sg10
VBARTLET
p1412
sg12
g9
sa(dp1413
g6
VIt screws us a little bit.
p1414
sg8
g9
sg10
VLEO
p1415
sg12
g9
sa(dp1416
g6
VYeah.
p1417
sg8
g9
sg10
VBARTLET
p1418
sg12
g9
sa(dp1419
g6
VMaybe you back off, leave it for the new kid.
p1420
sg8
g55
sg10
VLEO
p1421
sg12
g9
sa(dp1422
g6
VIf you were my Chief of Staff, what would you tell me to do?
p1423
sg8
g9
sg10
VBARTLET
p1424
sg12
g9
sa(dp1425
g6
VI'd tell you when you walk out of here somebody else has to walk in, and do what you can to make sure it's a Democrat.
p1426
sg8
g9
sg10
VLEO
p1427
sg12
g9
sa(dp1428
g6
VYou want to try that again?
p1429
sg8
g9
sg10
VBARTLET
p1430
sg12
g9
sa(dp1431
g6
VYou've got to think about the future.
p1432
sg8
g9
sg10
VLEO
p1433
sg12
g9
sa(dp1434
g6
VIf you were my Chief of Staff...?
p1435
sg8
g9
sg10
VBARTLET
p1436
sg12
g9
sa(dp1437
g6
VYeah.
p1438
sg8
g9
sg10
VLEO
p1439
sg12
g9
sa(dp1440
g6
VYeah, that's what I thought.
p1441
sg8
g9
sg10
VBARTLET
p1442
sg12
g9
sa(dp1443
g6
VInvigorating, Kevin. Thanks for asking.
p1444
sg8
g9
sg10
VLEO
p1445
sg12
g9
sa(dp1446
g6
VIs Speaker Haffley floating an education issue with the White House?
p1447
sg8
g9
sg10
VKEVIN
p1448
sg12
g9
sa(dp1449
g6
VI don't know what's going on in the Speaker's office, but I can tell you that Matt Santos has the most practical approach to improving teacher quality we've seen in a long time.
p1450
sg8
g15
sg10
VLEO
p1451
sg12
g9
sa(dp1452
g6
VIs it similar to Haffley's plan?
p1453
sg8
g9
sg10
VCHRIS
p1454
sg12
g9
sa(dp1455
g6
VThe Santos plan is a comprehensive...
p1456
sg8
g15
sg10
VLEO
p1457
sg12
g9
sa(dp1458
g6
VWhy is the President working with Haffley if this is the candidate's baby?
p1459
sg8
g15
sg10
VKEVIN
p1460
sg12
g9
sa(dp1461
g6
VBecause the Constitution empowers the President to sign bills into law and doesn't empower candidates to do anything.
p1462
sg8
g15
sg10
VLEO
p1463
sg12
g9
sa(dp1464
g6
VThanks folks, it's been a real pleasure.
p1465
sg8
g15
sg10
VANNABETH
p1466
sg12
g9
sa(dp1467
g6
VI accepted the premise of the question, didn't I?
p1468
sg8
g15
sg10
VLEO
p1469
sg12
g9
sa(dp1470
g6
VYou sure did.
p1471
sg8
g9
sg10
VANNABETH
p1472
sg12
g9
sa(dp1473
g6
VI just met with Lily Shultz, who we're hiring, and Dave Blumberg, who we're not. Tell Isabelle.
p1474
sg8
g9
sg10
VJOSH
p1475
sg12
g9
sa(dp1476
g6
VI can't get anyone from the Colorado delegation to do the Denver rally.
p1477
sg8
g9
sg10
VRONNA
p1478
sg12
g9
sa(dp1479
g6
VNo one?
p1480
sg8
g9
sg10
VJOSH
p1481
sg12
g15
sa(dp1482
g6
VThey're all in D.C. this weekend.
p1483
sg8
g9
sg10
VRONNA
p1484
sg12
g9
sa(dp1485
g6
VCongressmen don't stay in D.C. on the weekend, they go home to their districts to make nice with... Son of a bitch. Get Wallingford's Chief of Staff on the phone, now.
p1486
sg8
g55
sg10
VJOSH
p1487
sg12
g9
sa(dp1488
g6
VSon of a bitch!
p1489
sg8
g55
sg10
VJOSH
p1490
sg12
g9
sa(dp1491
g6
VA little hiccup.
p1492
sg8
g9
sg10
VANNABETH
p1493
sg12
g55
sa(dp1494
g6
VWhat?
p1495
sg8
g9
sg10
VJOSH
p1496
sg12
g9
sa(dp1497
g6
VLeo just inadvertently suggested to the press that the reason the President's moving on this education bill is because the Congressman's a generally powerless individual.
p1498
sg8
g9
sg10
VANNABETH
p1499
sg12
g9
sa(dp1500
g6
VAnnabeth.
p1501
sg8
g9
sg10
VJOSH
p1502
sg12
g9
sa(dp1503
g6
VMomentary lapse of reason. We should probably get out in front of it.
p1504
sg8
g9
sg10
VANNABETH
p1505
sg12
g9
sa(dp1506
g6
VGood afternoon, sir. He feels awful.
p1507
sg8
g9
sg10
VANNABETH
p1508
sg12
g9
sa(dp1509
g6
VWhat was that?
p1510
sg8
g9
sg10
VSANTOS
p1511
sg12
g9
sa(dp1512
g6
VA little stumble. Bram!
p1513
sg8
g55
sg10
VJOSH
p1514
sg12
g9
sa(dp1515
g6
VKendra, in Wallingford's office, on line three.
p1516
sg8
g9
sg10
VRONNA
p1517
sg12
g9
sa(dp1518
g6
VThe Congressman is about to tell the press how excited he is that the White House is making in-roads with the Speaker of the House on an education bill. Have Trisha draft a release.
p1519
sg8
g15
sg10
VJOSH
p1520
sg12
g9
sa(dp1521
g6
VThe Congressman doesn't like that idea very much.
p1522
sg8
g9
sg10
VSANTOS
p1523
sg12
g9
sa(dp1524
g6
VIt's one of those "Close your eyes and think of England" moments.
p1525
sg8
g9
sg10
VJOSH
p1526
sg12
g9
sa(dp1527
g6
VJosh, Sandy's waiting for comments on this.
p1528
sg8
g9
sg10
VBRAM
p1529
sg12
g9
sa(dp1530
g6
VLeo?
p1531
sg8
g9
sg10
VSANTOS
p1532
sg12
g9
sa(dp1533
g6
VYeah, let's not worry about that right now. You've got a press avail in the conference room. Big smiles.
p1534
sg8
g55
sg10
VJOSH
p1535
sg12
g9
sa(dp1536
g6
VKendra, for the love of God, you can't do this to me!
p1537
sg8
g15
sg10
VJOSH
p1538
sg12
g9
sa(dp1539
g6
VI started without you.
p1540
sg8
g9
sg10
VBABISH
p1541
sg12
g9
sa(dp1542
g6
VThat's okay. Where were we?
p1543
sg8
g9
sg10
VC.J.
p1544
sg12
g9
sa(dp1545
g6
VGreg Brock.
p1546
sg8
g9
sg10
VBABISH
p1547
sg12
g9
sa(dp1548
g6
VThe name sounds familiar. You got any mustard?
p1549
sg8
g15
sg10
VC.J.
p1550
sg12
g9
sa(dp1551
g6
VOn your salad?
p1552
sg8
g9
sg10
VBABISH
p1553
sg12
g9
sa(dp1554
g6
VYes or no?
p1555
sg8
g9
sg10
VC.J.
p1556
sg12
g15
sa(dp1557
g6
VSo, uh, you guys spend some time together?
p1558
sg8
g9
sg10
VBABISH
p1559
sg12
g9
sa(dp1560
g6
VBrock? We can hold a conversation.
p1561
sg8
g9
sg10
VC.J.
p1562
sg12
g55
sa(dp1563
g6
VHe's the guy?
p1564
sg8
g9
sg10
VBABISH
p1565
sg12
g9
sa(dp1566
g6
VWhich guy would that be?
p1567
sg8
g9
sg10
VC.J.
p1568
sg12
g9
sa(dp1569
g6
VYour fav.
p1570
sg8
g9
sg10
VBABISH
p1571
sg12
g9
sa(dp1572
g6
VI don't play favorites.
p1573
sg8
g9
sg10
VC.J.
p1574
sg12
g9
sa(dp1575
g6
VI'm thinking you play favorites, given the number of times his name appears on your call sheet and also given the fact that six reporters in the White House Press Corps say you play favorites. It used to be Danny Concanon, now it's Greg Brock. So... it's a crush, or an affair, or a mutually acknowledged though never requited... what are we talking about here?
p1576
sg8
g9
sg10
VBABISH
p1577
sg12
g9
sa(dp1578
g6
VOliver, I have a whole lot to do.
p1579
sg8
g9
sg10
VC.J.
p1580
sg12
g9
sa(dp1581
g6
VIt got personal with Danny, right? If he's the new Danny...
p1582
sg8
g9
sg10
VBABISH
p1583
sg12
g9
sa(dp1584
g6
VWe're not doing this.
p1585
sg8
g9
sg10
VC.J.
p1586
sg12
g55
sa(dp1587
g6
VYou talk to him every day. He drops by more than a guy with a phone in his pocket needs to drop by. And he published code-word classified information on the front page of his newspaper. So this does not fall under the category of things to which I do not need an answer.
p1588
sg8
g15
sg10
VBABISH
p1589
sg12
g9
sa(dp1590
g6
VYou think the leak came from me. I'm the suspect.
p1591
sg8
g55
sg10
VC.J.
p1592
sg12
g9
sa(dp1593
g6
VCan you tell me about the nature of your relationship with Greg Brock?
p1594
sg8
g9
sg10
VBABISH
p1595
sg12
g9
sa(dp1596
g6
VWhere's the Congressman?
p1597
sg8
g9
sg10
VJOSH
p1598
sg12
g9
sa(dp1599
g6
VHe's still in front of the cameras.
p1600
sg8
g9
sg10
VBRAM
p1601
sg12
g9
sa(dp1602
g6
VOkay, shut the door.
p1603
sg8
g9
sg10
VJOSH
p1604
sg12
g9
sa(dp1605
g6
VWallingford's avoiding our events because Vinick's polling 28 points ahead in his district. And he's not the only one. It's a bunch of the Democrats.
p1606
sg8
g15
sg10
VJOSH
p1607
sg12
g9
sa(dp1608
g6
V28 points?
p1609
sg8
g9
sg10
VANNABETH
p1610
sg12
g9
sa(dp1611
g6
VWell, Vinick's a known quantity. Santos appeared out of nowhere at the eleventh hour at the Convention.
p1612
sg8
g9
sg10
VLEO
p1613
sg12
g9
sa(dp1614
g6
VSo we're scrapping the party-unity strategy. The new strategy is we don't put Congressmen up on the stage at events because Santos isn't a party hack. He's his own man.
p1615
sg8
g9
sg10
VJOSH
p1616
sg12
g9
sa(dp1617
g6
VWhat happened?
p1618
sg8
g9
sg10
VSANTOS
p1619
sg12
g9
sa(dp1620
g6
VWallingford's avoiding us. So is Hammond, Warren, Campbell, and Ross. What other districts had Vinick ahead by more than 20 points?
p1621
sg8
g15
sg10
VJOSH
p1622
sg12
g9
sa(dp1623
g6
VUh, looks like Kelly, Grader, Harrison, Zwick.
p1624
sg8
g9
sg10
VANNABETH
p1625
sg12
g9
sa(dp1626
g6
VHarrison?
p1627
sg8
g9
sg10
VSANTOS
p1628
sg12
g9
sa(dp1629
g6
VI've got, uh, Marcus, Scott, and Lester.
p1630
sg8
g9
sg10
VMAN
p1631
sg12
g9
sa(dp1632
g6
VOkay, the Congressman calls this list, Leo this. Within the next 24 hours. We've got to do some hand-holding.
p1633
sg8
g55
sg10
VJOSH
p1634
sg12
g9
sa(dp1635
g6
VKelly and I go way back. Zwick, too. Put them on my list.
p1636
sg8
g9
sg10
VLEO
p1637
sg12
g9
sa(dp1638
g6
VI'll call them all. I'll do all the calls. Who else?
p1639
sg8
g55
sg10
VSANTOS
p1640
sg12
g9
sa(dp1641
g6
VUm, Houfek, Fenton...
p1642
sg8
g9
sg10
VANNABETH
p1643
sg12
g9
sa(dp1644
g6
VThat's the whole Colorado delegation.
p1645
sg8
g9
sg10
VSANTOS
p1646
sg12
g9
sa(dp1647
g6
VSir, the CNN guy's still waiting.
p1648
sg8
g9
sg10
VBRAM
p1649
sg12
g9
sa(dp1650
g6
VRight, tell him I need five minutes, but get Houfek on the phone for me, right now.
p1651
sg8
g9
sg10
VSANTOS
p1652
sg12
g9
sa(dp1653
g6
VOkay.
p1654
sg8
g9
sg10
VBRAM
p1655
sg12
g9
sa(dp1656
g6
VJosh, you've got another interview.
p1657
sg8
g9
sg10
VRONNA
p1658
sg12
g15
sa(dp1659
g6
VI told Chuck, everybody who's still waiting come back tomorrow.
p1660
sg8
g9
sg10
VJOSH
p1661
sg12
g9
sa(dp1662
g6
VChuck said you'd want this one.
p1663
sg8
g9
sg10
VRONNA
p1664
sg12
g9
sa(dp1665
g6
VWell, Chuck is wrong.
p1666
sg8
g55
sg10
VJOSH
p1667
sg12
g9
sa(dp1668
g6
VWhat else?
p1669
sg8
g9
sg10
VC.J.
p1670
sg12
g9
sa(dp1671
g6
VHang on.
p1672
sg8
g9
sg10
VBABISH
p1673
sg12
g9
sa(dp1674
g6
VThat's it.
p1675
sg8
g9
sg10
VBABISH
p1676
sg12
g9
sa(dp1677
g6
VThat's it? I'm sure it isn't.
p1678
sg8
g9
sg10
VC.J.
p1679
sg12
g9
sa(dp1680
g6
VThat's it.
p1681
sg8
g9
sg10
VBABISH
p1682
sg12
g9
sa(dp1683
g6
VYou didn't even ask me.
p1684
sg8
g9
sg10
VC.J.
p1685
sg12
g9
sa(dp1686
g6
VAsk you what?
p1687
sg8
g9
sg10
VBABISH
p1688
sg12
g9
sa(dp1689
g6
V"Did you tell Greg Brock of the New York Times of the existence of a classified military space shuttle?"
p1690
sg8
g15
sg10
VC.J.
p1691
sg12
g9
sa(dp1692
g6
VI don't want to know.
p1693
sg8
g9
sg10
VBABISH
p1694
sg12
g9
sa(dp1695
g6
VI need to see the President.
p1696
sg8
g9
sg10
VBABISH
p1697
sg12
g9
sa(dp1698
g6
VNice headline in the Post today. That's got to feel good.
p1699
sg8
g15
sg10
VDONNA
p1700
sg12
g9
sa(dp1701
g6
VYeah, it does. Heady stuff. How's Will?
p1702
sg8
g9
sg10
VJOSH
p1703
sg12
g9
sa(dp1704
g6
VWell, back in the VP's office. He wanders around a lot like a guy who can't find his glasses.
p1705
sg8
g9
sg10
VDONNA
p1706
sg12
g9
sa(dp1707
g6
VYou going back there, too?
p1708
sg8
g9
sg10
VJOSH
p1709
sg12
g9
sa(dp1710
g6
VThe Vice President's office? I'm glad you brought that up. I'm proud to say I've grown a lot in the last few months. The Russell Campaign gave me some wonderful opportunities. I took an active role in drafting policy positions and eventually was promoted to the role of Campaign Spokesperson.
p1711
sg8
g15
sg10
VDONNA
p1712
sg12
g9
sa(dp1713
g6
VDonna...
p1714
sg8
g9
sg10
VJOSH
p1715
sg12
g9
sa(dp1716
g6
VLet me get through this. It's one of the more awkward moments of a lifetime.
p1717
sg8
g9
sg10
VDONNA
p1718
sg12
g9
sa(dp1719
g6
VI can't do this.
p1720
sg8
g9
sg10
VJOSH
p1721
sg12
g55
sa(dp1722
g6
VI'm good is the point. I'm as surprised as you are and rumor has it that you could use a deputy.
p1723
sg8
g9
sg10
VDONNA
p1724
sg12
g9
sa(dp1725
g6
V"Matthew Santos is throwing a ton of numbers at you hoping you'll be so confused as to miss the fact that his education plan is both impractical and unaffordable. He was a House member, you'd think behavior like that would annoy him." Donna Moss, Spokesperson, Russell for President Campaign.
p1726
sg8
g9
sg10
VJOSH
p1727
sg12
g9
sa(dp1728
g6
VI didn't mean that he was...
p1729
sg8
g9
sg10
VDONNA
p1730
sg12
g9
sa(dp1731
g6
V"Claiming that 3 House terms qualifies you to be President is like me saying I'm a foreign relations expert because I ordered Kung Pao last night."
p1732
sg8
g9
sg10
VJOSH
p1733
sg12
g9
sa(dp1734
g6
VI didn't say that, did I?
p1735
sg8
g9
sg10
VDONNA
p1736
sg12
g9
sa(dp1737
g6
VFebruary 26; Coffee, Cake, and Candidates; Raleigh, North Carolina. "He wasn't a military strategist, he was a pilot. Ask him about the overhead compartment, not about defense."
p1738
sg8
g15
sg10
VJOSH
p1739
sg12
g9
sa(dp1740
g6
VYou called Russell a cowpoke. You said the President avoided him in the halls. You hummed "These Boots are Made for Walking" every time the press mentioned his name.
p1741
sg8
g9
sg10
VDONNA
p1742
sg12
g9
sa(dp1743
g6
VYeah, but I won.
p1744
sg8
g9
sg10
VJOSH
p1745
sg12
g15
sa(dp1746
g6
VIt was my job, Josh. You're not used to me being in a position of authority. I'm sure that's uncomfortable.
p1747
sg8
g15
sg10
VDONNA
p1748
sg12
g9
sa(dp1749
g6
VI've got an airplane hangar out there filled with 500 strangers looking to me for direction; I've got a candidate who doesn't trust any of them, and frankly neither do I. And if you think I don't miss you every day...
p1750
sg8
g15
sg10
VJOSH
p1751
sg12
g9
sa(dp1752
g6
VI can make a couple of calls...
p1753
sg8
g55
sg10
VJOSH
p1754
sg12
g9
sa(dp1755
g6
VThank you for your time.
p1756
sg8
g9
sg10
VDONNA
p1757
sg12
g9
sa(dp1758
g6
VYou need to stop the internal investigation of the security leak.
p1759
sg8
g55
sg10
VBABISH
p1760
sg12
g9
sa(dp1761
g6
VExcuse me?
p1762
sg8
g9
sg10
VBARTLET
p1763
sg12
g9
sa(dp1764
g6
VA White House investigation is, at best, superfluous.
p1765
sg8
g55
sg10
VBABISH
p1766
sg12
g9
sa(dp1767
g6
VAre you getting tired? We can give this to somebody else.
p1768
sg8
g55
sg10
VBARTLET
p1769
sg12
g9
sa(dp1770
g6
VI appreciate that, sir.
p1771
sg8
g15
sg10
VBABISH
p1772
sg12
g9
sa(dp1773
g6
VI know you have a lot on your plate.
p1774
sg8
g9
sg10
VBARTLET
p1775
sg12
g9
sa(dp1776
g6
VYou know, that's true.
p1777
sg8
g15
sg10
VBABISH
p1778
sg12
g9
sa(dp1779
g6
VThis was a massive security breech. Not only will we continue our investigation, we'll make it abundantly clear to the American people that it is among our highest priorities and not even remotely superfluous.
p1780
sg8
g9
sg10
VBARTLET
p1781
sg12
g9
sa(dp1782
g6
VThe evidence thus far suggests the leak came from inside the White House. This was not NASA or DOD. This was us. And we are not qualified to investigate ourselves.
p1783
sg8
g15
sg10
VBABISH
p1784
sg12
g9
sa(dp1785
g6
VWe're not?
p1786
sg8
g9
sg10
VBARTLET
p1787
sg12
g9
sa(dp1788
g6
VI don't have subpoena power. I can't put people under oath. If you want answers cooperate with the Attorney General's investigation and with Congress.
p1789
sg8
g15
sg10
VBABISH
p1790
sg12
g9
sa(dp1791
g6
VYou have a suspect. Otherwise we wouldn't be having this conversation.
p1792
sg8
g55
sg10
VBARTLET
p1793
sg12
g9
sa(dp1794
g6
VCome in.
p1795
sg8
g9
sg10
VBARTLET
p1796
sg12
g9
sa(dp1797
g6
VWe're going to get slammed for this. The press is going to say we're running like frightened rabbits down the nearest hole and they'll be right.
p1798
sg8
g55
sg10
VBARTLET
p1799
sg12
g9
sa(dp1800
g6
VYou're not going to tell me who your suspect is?
p1801
sg8
g55
sg10
VBARTLET
p1802
sg12
g9
sa(dp1803
g6
VNo, sir, I'm not.
p1804
sg8
g15
sg10
VBABISH
p1805
sg12
g9
sa(dp1806
g6
VIs this a bad time?
p1807
sg8
g55
sg10
VLEO
p1808
sg12
g9
sa(dp1809
g6
VOh, if you're waiting for a good time you may be waiting a while.
p1810
sg8
g15
sg10
VSANTOS
p1811
sg12
g9
sa(dp1812
g6
VA made a misstep today with the press.
p1813
sg8
g9
sg10
VLEO
p1814
sg12
g9
sa(dp1815
g6
VThe President's going to pass an education bill because he's powerful and I'm a lot of hot air. Yeah, that was ugly.
p1816
sg8
g9
sg10
VSANTOS
p1817
sg12
g9
sa(dp1818
g6
VI apologize. It was truly embarrassing.
p1819
sg8
g9
sg10
VLEO
p1820
sg12
g9
sa(dp1821
g6
VLeo, do a 20/20 interview, tell them the story they want to hear. They'll stop gunning for you.
p1822
sg8
g9
sg10
VSANTOS
p1823
sg12
g9
sa(dp1824
g6
VI could talk about addictions and heart attacks till I'm blue in the face. Best strategy is to call it old news and move on.
p1825
sg8
g15
sg10
VLEO
p1826
sg12
g9
sa(dp1827
g6
VIt's not the best strategy. It's not working. I'm spending half my day talking about it. Do the interview.
p1828
sg8
g15
sg10
VSANTOS
p1829
sg12
g9
sa(dp1830
g6
VIf you're having second thoughts there are options.
p1831
sg8
g9
sg10
VLEO
p1832
sg12
g9
sa(dp1833
g6
VAre you trying to quit?
p1834
sg8
g55
sg10
VSANTOS
p1835
sg12
g9
sa(dp1836
g6
VYou're either trying to quit or you're trying to get me to fire you.
p1837
sg8
g55
sg10
VSANTOS
p1838
sg12
g9
sa(dp1839
g6
VWell, it's something to think about.
p1840
sg8
g9
sg10
VLEO
p1841
sg12
g9
sa(dp1842
g6
VI'm not going to fire you. You want out you're going to have to drum up another heart attack or something.
p1843
sg8
g55
sg10
VSANTOS
p1844
sg12
g9
sa(dp1845
g6
VThank you. That's a beautiful sentiment. I'm just, I'm not sure what your vision for my role is.
p1846
sg8
g15
sg10
VLEO
p1847
sg12
g9
sa(dp1848
g6
VAt the moment it's stumping and smiling for the cameras; not herding policy advisors and running over to the White House with Josh. You can't do his job for him.
p1849
sg8
g15
sg10
VSANTOS
p1850
sg12
g9
sa(dp1851
g6
VMy strength is my experience and my relationships on the Hill.
p1852
sg8
g15
sg10
VLEO
p1853
sg12
g9
sa(dp1854
g6
VWhat happens if you get on the phone with Hammond, and Kelly and Zwick? I can't win a race when we tell people that when things get really serious they're going to be getting a call from Leo McGarry. You saw the pole. America thinks you're the chaperone and I'm running for Prom King.
p1855
sg8
g9
sg10
VSANTOS
p1856
sg12
g9
sa(dp1857
g6
VIf you can't utilize my expertise I'm just a drag on the ticket.
p1858
sg8
g15
sg10
VLEO
p1859
sg12
g9
sa(dp1860
g6
VLook, nobody hired you because you'd be a brilliant campaigner. You're a beginner in all this. Yes, at the moment, you're a liability, but you'll get the hang of it. You're here because you know how to run a country. The conversation I'm interested in is how do we build a four year plan where you don't know what kind of Congress you're going to have to work with.
p1861
sg8
g15
sg10
VSANTOS
p1862
sg12
g9
sa(dp1863
g6
VThat's what transition is about.
p1864
sg8
g9
sg10
VLEO
p1865
sg12
g9
sa(dp1866
g6
VI don't want to wait until transition. I want a plan in place. I want to spend transition hiring a staff that can execute it and on day one I want to get to work, not dickering around for the first three months. You want something to worry about, worry about that.
p1867
sg8
g55
sg10
VSANTOS
p1868
sg12
g9
sa(dp1869
g6
VOkay. Well, let's start by reframing the question. Forget about a four-year term. The Presidency is 18 months. That's your window. After that, there's midterms. No one on the Hill's got time to do business with you. They're too busy getting reelected. Then, suddenly, you're running again.
p1870
sg8
g15
sg10
VLEO
p1871
sg12
g9
sa(dp1872
g6
VSo, I'm basically throwing out everything but my first five pages?
p1873
sg8
g9
sg10
VSANTOS
p1874
sg12
g9
sa(dp1875
g6
VIn the garbage. Realistically, one page, but we can do this in phases.
p1876
sg8
g55
sg10
VLEO
p1877
sg12
g9
sa(dp1878
g6
VHey, Costos is waiting. I've got to pull him.
p1879
sg8
g15
sg10
VBRAM
p1880
sg12
g9
sa(dp1881
g6
VLater.
p1882
sg8
g9
sg10
VJOSH
p1883
sg12
g9
sa(dp1884
g6
VWhat are they doing?
p1885
sg8
g9
sg10
VBRAM
p1886
sg12
g9
sa(dp1887
g6
VMaking plans.
p1888
sg8
g9
sg10
VJOSH
p1889
sg12
g9
sas.